
atmega32_ECU.elf:     file format elf32-avr

Sections:
Idx Name          Size      VMA       LMA       File off  Algn
  0 .text         00000f94  00000000  00000000  00000094  2**1
                  CONTENTS, ALLOC, LOAD, READONLY, CODE
  1 .data         00000040  00800060  00000f94  00001028  2**0
                  CONTENTS, ALLOC, LOAD, DATA
  2 .bss          00000039  008000a0  008000a0  00001068  2**0
                  ALLOC
  3 .comment      00000030  00000000  00000000  00001068  2**0
                  CONTENTS, READONLY
  4 .note.gnu.avr.deviceinfo 0000003c  00000000  00000000  00001098  2**2
                  CONTENTS, READONLY
  5 .debug_info   000004e6  00000000  00000000  000010d4  2**0
                  CONTENTS, READONLY, DEBUGGING
  6 .debug_abbrev 000004a3  00000000  00000000  000015ba  2**0
                  CONTENTS, READONLY, DEBUGGING
  7 .debug_line   00000116  00000000  00000000  00001a5d  2**0
                  CONTENTS, READONLY, DEBUGGING
  8 .debug_str    00000196  00000000  00000000  00001b73  2**0
                  CONTENTS, READONLY, DEBUGGING

Disassembly of section .text:

00000000 <__vectors>:
   0:	0c 94 2a 00 	jmp	0x54	; 0x54 <__ctors_end>
   4:	0c 94 bc 03 	jmp	0x778	; 0x778 <__vector_1>
   8:	0c 94 e5 03 	jmp	0x7ca	; 0x7ca <__vector_2>
   c:	0c 94 0e 04 	jmp	0x81c	; 0x81c <__vector_3>
  10:	0c 94 47 00 	jmp	0x8e	; 0x8e <__bad_interrupt>
  14:	0c 94 47 00 	jmp	0x8e	; 0x8e <__bad_interrupt>
  18:	0c 94 3d 05 	jmp	0xa7a	; 0xa7a <__vector_6>
  1c:	0c 94 c2 04 	jmp	0x984	; 0x984 <__vector_7>
  20:	0c 94 eb 04 	jmp	0x9d6	; 0x9d6 <__vector_8>
  24:	0c 94 14 05 	jmp	0xa28	; 0xa28 <__vector_9>
  28:	0c 94 70 04 	jmp	0x8e0	; 0x8e0 <__vector_10>
  2c:	0c 94 99 04 	jmp	0x932	; 0x932 <__vector_11>
  30:	0c 94 47 04 	jmp	0x88e	; 0x88e <__vector_12>
  34:	0c 94 66 05 	jmp	0xacc	; 0xacc <__vector_13>
  38:	0c 94 b8 05 	jmp	0xb70	; 0xb70 <__vector_14>
  3c:	0c 94 8f 05 	jmp	0xb1e	; 0xb1e <__vector_15>
  40:	0c 94 39 02 	jmp	0x472	; 0x472 <__vector_16>
  44:	0c 94 47 00 	jmp	0x8e	; 0x8e <__bad_interrupt>
  48:	0c 94 47 00 	jmp	0x8e	; 0x8e <__bad_interrupt>
  4c:	0c 94 47 00 	jmp	0x8e	; 0x8e <__bad_interrupt>
  50:	0c 94 47 00 	jmp	0x8e	; 0x8e <__bad_interrupt>

00000054 <__ctors_end>:
  54:	11 24       	eor	r1, r1
  56:	1f be       	out	0x3f, r1	; 63
  58:	cf e5       	ldi	r28, 0x5F	; 95
  5a:	d8 e0       	ldi	r29, 0x08	; 8
  5c:	de bf       	out	0x3e, r29	; 62
  5e:	cd bf       	out	0x3d, r28	; 61

00000060 <__do_copy_data>:
  60:	10 e0       	ldi	r17, 0x00	; 0
  62:	a0 e6       	ldi	r26, 0x60	; 96
  64:	b0 e0       	ldi	r27, 0x00	; 0
  66:	e4 e9       	ldi	r30, 0x94	; 148
  68:	ff e0       	ldi	r31, 0x0F	; 15
  6a:	02 c0       	rjmp	.+4      	; 0x70 <__do_copy_data+0x10>
  6c:	05 90       	lpm	r0, Z+
  6e:	0d 92       	st	X+, r0
  70:	a0 3a       	cpi	r26, 0xA0	; 160
  72:	b1 07       	cpc	r27, r17
  74:	d9 f7       	brne	.-10     	; 0x6c <__do_copy_data+0xc>

00000076 <__do_clear_bss>:
  76:	20 e0       	ldi	r18, 0x00	; 0
  78:	a0 ea       	ldi	r26, 0xA0	; 160
  7a:	b0 e0       	ldi	r27, 0x00	; 0
  7c:	01 c0       	rjmp	.+2      	; 0x80 <.do_clear_bss_start>

0000007e <.do_clear_bss_loop>:
  7e:	1d 92       	st	X+, r1

00000080 <.do_clear_bss_start>:
  80:	a9 3d       	cpi	r26, 0xD9	; 217
  82:	b2 07       	cpc	r27, r18
  84:	e1 f7       	brne	.-8      	; 0x7e <.do_clear_bss_loop>
  86:	0e 94 fc 01 	call	0x3f8	; 0x3f8 <main>
  8a:	0c 94 c8 07 	jmp	0xf90	; 0xf90 <_exit>

0000008e <__bad_interrupt>:
  8e:	0c 94 00 00 	jmp	0	; 0x0 <__vectors>

00000092 <LCD_WriteCommand>:
  92:	cf 93       	push	r28
  94:	c8 2f       	mov	r28, r24
  96:	60 e0       	ldi	r22, 0x00	; 0
  98:	81 e0       	ldi	r24, 0x01	; 1
  9a:	0e 94 41 03 	call	0x682	; 0x682 <DIO_WritePin>
  9e:	c4 fb       	bst	r28, 4
  a0:	66 27       	eor	r22, r22
  a2:	60 f9       	bld	r22, 0
  a4:	83 e0       	ldi	r24, 0x03	; 3
  a6:	0e 94 41 03 	call	0x682	; 0x682 <DIO_WritePin>
  aa:	c5 fb       	bst	r28, 5
  ac:	66 27       	eor	r22, r22
  ae:	60 f9       	bld	r22, 0
  b0:	84 e0       	ldi	r24, 0x04	; 4
  b2:	0e 94 41 03 	call	0x682	; 0x682 <DIO_WritePin>
  b6:	c6 fb       	bst	r28, 6
  b8:	66 27       	eor	r22, r22
  ba:	60 f9       	bld	r22, 0
  bc:	85 e0       	ldi	r24, 0x05	; 5
  be:	0e 94 41 03 	call	0x682	; 0x682 <DIO_WritePin>
  c2:	6c 2f       	mov	r22, r28
  c4:	66 1f       	adc	r22, r22
  c6:	66 27       	eor	r22, r22
  c8:	66 1f       	adc	r22, r22
  ca:	86 e0       	ldi	r24, 0x06	; 6
  cc:	0e 94 41 03 	call	0x682	; 0x682 <DIO_WritePin>
  d0:	61 e0       	ldi	r22, 0x01	; 1
  d2:	82 e0       	ldi	r24, 0x02	; 2
  d4:	0e 94 41 03 	call	0x682	; 0x682 <DIO_WritePin>
  d8:	8f ec       	ldi	r24, 0xCF	; 207
  da:	97 e0       	ldi	r25, 0x07	; 7
  dc:	01 97       	sbiw	r24, 0x01	; 1
  de:	f1 f7       	brne	.-4      	; 0xdc <LCD_WriteCommand+0x4a>
  e0:	00 c0       	rjmp	.+0      	; 0xe2 <LCD_WriteCommand+0x50>
  e2:	00 00       	nop
  e4:	60 e0       	ldi	r22, 0x00	; 0
  e6:	82 e0       	ldi	r24, 0x02	; 2
  e8:	0e 94 41 03 	call	0x682	; 0x682 <DIO_WritePin>
  ec:	6c 2f       	mov	r22, r28
  ee:	61 70       	andi	r22, 0x01	; 1
  f0:	83 e0       	ldi	r24, 0x03	; 3
  f2:	0e 94 41 03 	call	0x682	; 0x682 <DIO_WritePin>
  f6:	c1 fb       	bst	r28, 1
  f8:	66 27       	eor	r22, r22
  fa:	60 f9       	bld	r22, 0
  fc:	84 e0       	ldi	r24, 0x04	; 4
  fe:	0e 94 41 03 	call	0x682	; 0x682 <DIO_WritePin>
 102:	c2 fb       	bst	r28, 2
 104:	66 27       	eor	r22, r22
 106:	60 f9       	bld	r22, 0
 108:	85 e0       	ldi	r24, 0x05	; 5
 10a:	0e 94 41 03 	call	0x682	; 0x682 <DIO_WritePin>
 10e:	c3 fb       	bst	r28, 3
 110:	66 27       	eor	r22, r22
 112:	60 f9       	bld	r22, 0
 114:	86 e0       	ldi	r24, 0x06	; 6
 116:	0e 94 41 03 	call	0x682	; 0x682 <DIO_WritePin>
 11a:	61 e0       	ldi	r22, 0x01	; 1
 11c:	82 e0       	ldi	r24, 0x02	; 2
 11e:	0e 94 41 03 	call	0x682	; 0x682 <DIO_WritePin>
 122:	8f ec       	ldi	r24, 0xCF	; 207
 124:	97 e0       	ldi	r25, 0x07	; 7
 126:	01 97       	sbiw	r24, 0x01	; 1
 128:	f1 f7       	brne	.-4      	; 0x126 <LCD_WriteCommand+0x94>
 12a:	00 c0       	rjmp	.+0      	; 0x12c <LCD_WriteCommand+0x9a>
 12c:	00 00       	nop
 12e:	60 e0       	ldi	r22, 0x00	; 0
 130:	82 e0       	ldi	r24, 0x02	; 2
 132:	0e 94 41 03 	call	0x682	; 0x682 <DIO_WritePin>
 136:	8f ec       	ldi	r24, 0xCF	; 207
 138:	97 e0       	ldi	r25, 0x07	; 7
 13a:	01 97       	sbiw	r24, 0x01	; 1
 13c:	f1 f7       	brne	.-4      	; 0x13a <LCD_WriteCommand+0xa8>
 13e:	00 c0       	rjmp	.+0      	; 0x140 <LCD_WriteCommand+0xae>
 140:	00 00       	nop
 142:	cf 91       	pop	r28
 144:	08 95       	ret

00000146 <LCD_WriteData>:
 146:	cf 93       	push	r28
 148:	c8 2f       	mov	r28, r24
 14a:	61 e0       	ldi	r22, 0x01	; 1
 14c:	81 e0       	ldi	r24, 0x01	; 1
 14e:	0e 94 41 03 	call	0x682	; 0x682 <DIO_WritePin>
 152:	c4 fb       	bst	r28, 4
 154:	66 27       	eor	r22, r22
 156:	60 f9       	bld	r22, 0
 158:	83 e0       	ldi	r24, 0x03	; 3
 15a:	0e 94 41 03 	call	0x682	; 0x682 <DIO_WritePin>
 15e:	c5 fb       	bst	r28, 5
 160:	66 27       	eor	r22, r22
 162:	60 f9       	bld	r22, 0
 164:	84 e0       	ldi	r24, 0x04	; 4
 166:	0e 94 41 03 	call	0x682	; 0x682 <DIO_WritePin>
 16a:	c6 fb       	bst	r28, 6
 16c:	66 27       	eor	r22, r22
 16e:	60 f9       	bld	r22, 0
 170:	85 e0       	ldi	r24, 0x05	; 5
 172:	0e 94 41 03 	call	0x682	; 0x682 <DIO_WritePin>
 176:	6c 2f       	mov	r22, r28
 178:	66 1f       	adc	r22, r22
 17a:	66 27       	eor	r22, r22
 17c:	66 1f       	adc	r22, r22
 17e:	86 e0       	ldi	r24, 0x06	; 6
 180:	0e 94 41 03 	call	0x682	; 0x682 <DIO_WritePin>
 184:	61 e0       	ldi	r22, 0x01	; 1
 186:	82 e0       	ldi	r24, 0x02	; 2
 188:	0e 94 41 03 	call	0x682	; 0x682 <DIO_WritePin>
 18c:	8f ec       	ldi	r24, 0xCF	; 207
 18e:	97 e0       	ldi	r25, 0x07	; 7
 190:	01 97       	sbiw	r24, 0x01	; 1
 192:	f1 f7       	brne	.-4      	; 0x190 <LCD_WriteData+0x4a>
 194:	00 c0       	rjmp	.+0      	; 0x196 <LCD_WriteData+0x50>
 196:	00 00       	nop
 198:	60 e0       	ldi	r22, 0x00	; 0
 19a:	82 e0       	ldi	r24, 0x02	; 2
 19c:	0e 94 41 03 	call	0x682	; 0x682 <DIO_WritePin>
 1a0:	6c 2f       	mov	r22, r28
 1a2:	61 70       	andi	r22, 0x01	; 1
 1a4:	83 e0       	ldi	r24, 0x03	; 3
 1a6:	0e 94 41 03 	call	0x682	; 0x682 <DIO_WritePin>
 1aa:	c1 fb       	bst	r28, 1
 1ac:	66 27       	eor	r22, r22
 1ae:	60 f9       	bld	r22, 0
 1b0:	84 e0       	ldi	r24, 0x04	; 4
 1b2:	0e 94 41 03 	call	0x682	; 0x682 <DIO_WritePin>
 1b6:	c2 fb       	bst	r28, 2
 1b8:	66 27       	eor	r22, r22
 1ba:	60 f9       	bld	r22, 0
 1bc:	85 e0       	ldi	r24, 0x05	; 5
 1be:	0e 94 41 03 	call	0x682	; 0x682 <DIO_WritePin>
 1c2:	c3 fb       	bst	r28, 3
 1c4:	66 27       	eor	r22, r22
 1c6:	60 f9       	bld	r22, 0
 1c8:	86 e0       	ldi	r24, 0x06	; 6
 1ca:	0e 94 41 03 	call	0x682	; 0x682 <DIO_WritePin>
 1ce:	61 e0       	ldi	r22, 0x01	; 1
 1d0:	82 e0       	ldi	r24, 0x02	; 2
 1d2:	0e 94 41 03 	call	0x682	; 0x682 <DIO_WritePin>
 1d6:	8f ec       	ldi	r24, 0xCF	; 207
 1d8:	97 e0       	ldi	r25, 0x07	; 7
 1da:	01 97       	sbiw	r24, 0x01	; 1
 1dc:	f1 f7       	brne	.-4      	; 0x1da <LCD_WriteData+0x94>
 1de:	00 c0       	rjmp	.+0      	; 0x1e0 <LCD_WriteData+0x9a>
 1e0:	00 00       	nop
 1e2:	60 e0       	ldi	r22, 0x00	; 0
 1e4:	82 e0       	ldi	r24, 0x02	; 2
 1e6:	0e 94 41 03 	call	0x682	; 0x682 <DIO_WritePin>
 1ea:	8f ec       	ldi	r24, 0xCF	; 207
 1ec:	97 e0       	ldi	r25, 0x07	; 7
 1ee:	01 97       	sbiw	r24, 0x01	; 1
 1f0:	f1 f7       	brne	.-4      	; 0x1ee <LCD_WriteData+0xa8>
 1f2:	00 c0       	rjmp	.+0      	; 0x1f4 <LCD_WriteData+0xae>
 1f4:	00 00       	nop
 1f6:	cf 91       	pop	r28
 1f8:	08 95       	ret

000001fa <LCD_Init>:
 1fa:	2f e7       	ldi	r18, 0x7F	; 127
 1fc:	88 e3       	ldi	r24, 0x38	; 56
 1fe:	91 e0       	ldi	r25, 0x01	; 1
 200:	21 50       	subi	r18, 0x01	; 1
 202:	80 40       	sbci	r24, 0x00	; 0
 204:	90 40       	sbci	r25, 0x00	; 0
 206:	e1 f7       	brne	.-8      	; 0x200 <LCD_Init+0x6>
 208:	00 c0       	rjmp	.+0      	; 0x20a <LCD_Init+0x10>
 20a:	00 00       	nop
 20c:	82 e2       	ldi	r24, 0x22	; 34
 20e:	0e 94 49 00 	call	0x92	; 0x92 <LCD_WriteCommand>
 212:	60 e0       	ldi	r22, 0x00	; 0
 214:	81 e0       	ldi	r24, 0x01	; 1
 216:	0e 94 41 03 	call	0x682	; 0x682 <DIO_WritePin>
 21a:	60 e0       	ldi	r22, 0x00	; 0
 21c:	85 e0       	ldi	r24, 0x05	; 5
 21e:	0e 94 41 03 	call	0x682	; 0x682 <DIO_WritePin>
 222:	61 e0       	ldi	r22, 0x01	; 1
 224:	86 e0       	ldi	r24, 0x06	; 6
 226:	0e 94 41 03 	call	0x682	; 0x682 <DIO_WritePin>
 22a:	61 e0       	ldi	r22, 0x01	; 1
 22c:	82 e0       	ldi	r24, 0x02	; 2
 22e:	0e 94 41 03 	call	0x682	; 0x682 <DIO_WritePin>
 232:	8f ec       	ldi	r24, 0xCF	; 207
 234:	97 e0       	ldi	r25, 0x07	; 7
 236:	01 97       	sbiw	r24, 0x01	; 1
 238:	f1 f7       	brne	.-4      	; 0x236 <LCD_Init+0x3c>
 23a:	00 c0       	rjmp	.+0      	; 0x23c <LCD_Init+0x42>
 23c:	00 00       	nop
 23e:	60 e0       	ldi	r22, 0x00	; 0
 240:	82 e0       	ldi	r24, 0x02	; 2
 242:	0e 94 41 03 	call	0x682	; 0x682 <DIO_WritePin>
 246:	8f ec       	ldi	r24, 0xCF	; 207
 248:	97 e0       	ldi	r25, 0x07	; 7
 24a:	01 97       	sbiw	r24, 0x01	; 1
 24c:	f1 f7       	brne	.-4      	; 0x24a <LCD_Init+0x50>
 24e:	00 c0       	rjmp	.+0      	; 0x250 <LCD_Init+0x56>
 250:	00 00       	nop
 252:	8c e0       	ldi	r24, 0x0C	; 12
 254:	0e 94 49 00 	call	0x92	; 0x92 <LCD_WriteCommand>
 258:	81 e0       	ldi	r24, 0x01	; 1
 25a:	0e 94 49 00 	call	0x92	; 0x92 <LCD_WriteCommand>
 25e:	8f ec       	ldi	r24, 0xCF	; 207
 260:	97 e0       	ldi	r25, 0x07	; 7
 262:	01 97       	sbiw	r24, 0x01	; 1
 264:	f1 f7       	brne	.-4      	; 0x262 <LCD_Init+0x68>
 266:	00 c0       	rjmp	.+0      	; 0x268 <LCD_Init+0x6e>
 268:	00 00       	nop
 26a:	86 e0       	ldi	r24, 0x06	; 6
 26c:	0c 94 49 00 	jmp	0x92	; 0x92 <LCD_WriteCommand>

00000270 <LCD_GoTo>:
 270:	81 11       	cpse	r24, r1
 272:	02 c0       	rjmp	.+4      	; 0x278 <LCD_GoTo+0x8>
 274:	86 2f       	mov	r24, r22
 276:	04 c0       	rjmp	.+8      	; 0x280 <LCD_GoTo+0x10>
 278:	81 30       	cpi	r24, 0x01	; 1
 27a:	29 f4       	brne	.+10     	; 0x286 <LCD_GoTo+0x16>
 27c:	80 e4       	ldi	r24, 0x40	; 64
 27e:	86 0f       	add	r24, r22
 280:	80 68       	ori	r24, 0x80	; 128
 282:	0c 94 49 00 	jmp	0x92	; 0x92 <LCD_WriteCommand>
 286:	08 95       	ret

00000288 <LCD_WriteString>:
 288:	0f 93       	push	r16
 28a:	1f 93       	push	r17
 28c:	cf 93       	push	r28
 28e:	8c 01       	movw	r16, r24
 290:	c0 e0       	ldi	r28, 0x00	; 0
 292:	f8 01       	movw	r30, r16
 294:	ec 0f       	add	r30, r28
 296:	f1 1d       	adc	r31, r1
 298:	80 81       	ld	r24, Z
 29a:	88 23       	and	r24, r24
 29c:	21 f0       	breq	.+8      	; 0x2a6 <LCD_WriteString+0x1e>
 29e:	0e 94 a3 00 	call	0x146	; 0x146 <LCD_WriteData>
 2a2:	cf 5f       	subi	r28, 0xFF	; 255
 2a4:	f6 cf       	rjmp	.-20     	; 0x292 <LCD_WriteString+0xa>
 2a6:	cf 91       	pop	r28
 2a8:	1f 91       	pop	r17
 2aa:	0f 91       	pop	r16
 2ac:	08 95       	ret

000002ae <LCD_WriteNumber>:
 2ae:	8f 92       	push	r8
 2b0:	9f 92       	push	r9
 2b2:	af 92       	push	r10
 2b4:	bf 92       	push	r11
 2b6:	cf 92       	push	r12
 2b8:	df 92       	push	r13
 2ba:	ef 92       	push	r14
 2bc:	ff 92       	push	r15
 2be:	cf 93       	push	r28
 2c0:	61 15       	cp	r22, r1
 2c2:	71 05       	cpc	r23, r1
 2c4:	81 05       	cpc	r24, r1
 2c6:	91 05       	cpc	r25, r1
 2c8:	61 f4       	brne	.+24     	; 0x2e2 <LCD_WriteNumber+0x34>
 2ca:	80 e3       	ldi	r24, 0x30	; 48
 2cc:	cf 91       	pop	r28
 2ce:	ff 90       	pop	r15
 2d0:	ef 90       	pop	r14
 2d2:	df 90       	pop	r13
 2d4:	cf 90       	pop	r12
 2d6:	bf 90       	pop	r11
 2d8:	af 90       	pop	r10
 2da:	9f 90       	pop	r9
 2dc:	8f 90       	pop	r8
 2de:	0c 94 a3 00 	jmp	0x146	; 0x146 <LCD_WriteData>
 2e2:	6b 01       	movw	r12, r22
 2e4:	7c 01       	movw	r14, r24
 2e6:	97 ff       	sbrs	r25, 7
 2e8:	0a c0       	rjmp	.+20     	; 0x2fe <LCD_WriteNumber+0x50>
 2ea:	8d e2       	ldi	r24, 0x2D	; 45
 2ec:	0e 94 a3 00 	call	0x146	; 0x146 <LCD_WriteData>
 2f0:	66 27       	eor	r22, r22
 2f2:	77 27       	eor	r23, r23
 2f4:	cb 01       	movw	r24, r22
 2f6:	6c 19       	sub	r22, r12
 2f8:	7d 09       	sbc	r23, r13
 2fa:	8e 09       	sbc	r24, r14
 2fc:	9f 09       	sbc	r25, r15
 2fe:	0e 94 84 06 	call	0xd08	; 0xd08 <__floatsisf>
 302:	6b 01       	movw	r12, r22
 304:	7c 01       	movw	r14, r24
 306:	c0 e0       	ldi	r28, 0x00	; 0
 308:	20 e0       	ldi	r18, 0x00	; 0
 30a:	30 e0       	ldi	r19, 0x00	; 0
 30c:	40 e8       	ldi	r20, 0x80	; 128
 30e:	5f e3       	ldi	r21, 0x3F	; 63
 310:	c7 01       	movw	r24, r14
 312:	b6 01       	movw	r22, r12
 314:	0e 94 34 07 	call	0xe68	; 0xe68 <__gesf2>
 318:	87 fd       	sbrc	r24, 7
 31a:	0c c0       	rjmp	.+24     	; 0x334 <LCD_WriteNumber+0x86>
 31c:	20 e0       	ldi	r18, 0x00	; 0
 31e:	30 e0       	ldi	r19, 0x00	; 0
 320:	40 e2       	ldi	r20, 0x20	; 32
 322:	51 e4       	ldi	r21, 0x41	; 65
 324:	c7 01       	movw	r24, r14
 326:	b6 01       	movw	r22, r12
 328:	0e 94 e1 05 	call	0xbc2	; 0xbc2 <__divsf3>
 32c:	6b 01       	movw	r12, r22
 32e:	7c 01       	movw	r14, r24
 330:	cf 5f       	subi	r28, 0xFF	; 255
 332:	ea cf       	rjmp	.-44     	; 0x308 <LCD_WriteNumber+0x5a>
 334:	8a e0       	ldi	r24, 0x0A	; 10
 336:	88 2e       	mov	r8, r24
 338:	91 2c       	mov	r9, r1
 33a:	a1 2c       	mov	r10, r1
 33c:	b1 2c       	mov	r11, r1
 33e:	cc 23       	and	r28, r28
 340:	b1 f0       	breq	.+44     	; 0x36e <LCD_WriteNumber+0xc0>
 342:	20 e0       	ldi	r18, 0x00	; 0
 344:	30 e0       	ldi	r19, 0x00	; 0
 346:	40 e2       	ldi	r20, 0x20	; 32
 348:	51 e4       	ldi	r21, 0x41	; 65
 34a:	c7 01       	movw	r24, r14
 34c:	b6 01       	movw	r22, r12
 34e:	0e 94 39 07 	call	0xe72	; 0xe72 <__mulsf3>
 352:	6b 01       	movw	r12, r22
 354:	7c 01       	movw	r14, r24
 356:	0e 94 53 06 	call	0xca6	; 0xca6 <__fixunssfsi>
 35a:	a5 01       	movw	r20, r10
 35c:	94 01       	movw	r18, r8
 35e:	0e 94 a6 07 	call	0xf4c	; 0xf4c <__udivmodsi4>
 362:	80 e3       	ldi	r24, 0x30	; 48
 364:	86 0f       	add	r24, r22
 366:	0e 94 a3 00 	call	0x146	; 0x146 <LCD_WriteData>
 36a:	c1 50       	subi	r28, 0x01	; 1
 36c:	e8 cf       	rjmp	.-48     	; 0x33e <LCD_WriteNumber+0x90>
 36e:	cf 91       	pop	r28
 370:	ff 90       	pop	r15
 372:	ef 90       	pop	r14
 374:	df 90       	pop	r13
 376:	cf 90       	pop	r12
 378:	bf 90       	pop	r11
 37a:	af 90       	pop	r10
 37c:	9f 90       	pop	r9
 37e:	8f 90       	pop	r8
 380:	08 95       	ret

00000382 <SPI_recieveInterrupt>:
 382:	cf 93       	push	r28
 384:	df 93       	push	r29
 386:	80 91 a0 00 	lds	r24, 0x00A0	; 0x8000a0 <__data_end>
 38a:	81 11       	cpse	r24, r1
 38c:	0c c0       	rjmp	.+24     	; 0x3a6 <SPI_recieveInterrupt+0x24>
 38e:	c0 91 a2 00 	lds	r28, 0x00A2	; 0x8000a2 <data_recieve_Index>
 392:	d0 e0       	ldi	r29, 0x00	; 0
 394:	0e 94 3e 04 	call	0x87c	; 0x87c <SPI_Recieve>
 398:	cd 55       	subi	r28, 0x5D	; 93
 39a:	df 4f       	sbci	r29, 0xFF	; 255
 39c:	88 83       	st	Y, r24
 39e:	81 e0       	ldi	r24, 0x01	; 1
 3a0:	80 93 a0 00 	sts	0x00A0, r24	; 0x8000a0 <__data_end>
 3a4:	14 c0       	rjmp	.+40     	; 0x3ce <SPI_recieveInterrupt+0x4c>
 3a6:	81 30       	cpi	r24, 0x01	; 1
 3a8:	91 f4       	brne	.+36     	; 0x3ce <SPI_recieveInterrupt+0x4c>
 3aa:	c0 91 a2 00 	lds	r28, 0x00A2	; 0x8000a2 <data_recieve_Index>
 3ae:	d0 e0       	ldi	r29, 0x00	; 0
 3b0:	0e 94 3e 04 	call	0x87c	; 0x87c <SPI_Recieve>
 3b4:	cd 55       	subi	r28, 0x5D	; 93
 3b6:	df 4f       	sbci	r29, 0xFF	; 255
 3b8:	88 83       	st	Y, r24
 3ba:	80 91 a2 00 	lds	r24, 0x00A2	; 0x8000a2 <data_recieve_Index>
 3be:	8f 5f       	subi	r24, 0xFF	; 255
 3c0:	8a 31       	cpi	r24, 0x1A	; 26
 3c2:	18 f4       	brcc	.+6      	; 0x3ca <SPI_recieveInterrupt+0x48>
 3c4:	80 93 a2 00 	sts	0x00A2, r24	; 0x8000a2 <data_recieve_Index>
 3c8:	02 c0       	rjmp	.+4      	; 0x3ce <SPI_recieveInterrupt+0x4c>
 3ca:	10 92 a2 00 	sts	0x00A2, r1	; 0x8000a2 <data_recieve_Index>
 3ce:	e0 91 a1 00 	lds	r30, 0x00A1	; 0x8000a1 <data_send_Index>
 3d2:	f0 e0       	ldi	r31, 0x00	; 0
 3d4:	ea 59       	subi	r30, 0x9A	; 154
 3d6:	ff 4f       	sbci	r31, 0xFF	; 255
 3d8:	80 81       	ld	r24, Z
 3da:	0e 94 3c 04 	call	0x878	; 0x878 <SPI_Send>
 3de:	80 91 a1 00 	lds	r24, 0x00A1	; 0x8000a1 <data_send_Index>
 3e2:	8f 5f       	subi	r24, 0xFF	; 255
 3e4:	8a 31       	cpi	r24, 0x1A	; 26
 3e6:	18 f4       	brcc	.+6      	; 0x3ee <SPI_recieveInterrupt+0x6c>
 3e8:	80 93 a1 00 	sts	0x00A1, r24	; 0x8000a1 <data_send_Index>
 3ec:	02 c0       	rjmp	.+4      	; 0x3f2 <SPI_recieveInterrupt+0x70>
 3ee:	10 92 a1 00 	sts	0x00A1, r1	; 0x8000a1 <data_send_Index>
 3f2:	df 91       	pop	r29
 3f4:	cf 91       	pop	r28
 3f6:	08 95       	ret

000003f8 <main>:
 3f8:	0e 94 62 02 	call	0x4c4	; 0x4c4 <DIO_Init>
 3fc:	80 e0       	ldi	r24, 0x00	; 0
 3fe:	90 e0       	ldi	r25, 0x00	; 0
 400:	0e 94 37 04 	call	0x86e	; 0x86e <SPI_InitSlave>
 404:	0e 94 fd 00 	call	0x1fa	; 0x1fa <LCD_Init>
 408:	0e 94 3a 04 	call	0x874	; 0x874 <SPI_Enable>
 40c:	81 ec       	ldi	r24, 0xC1	; 193
 40e:	91 e0       	ldi	r25, 0x01	; 1
 410:	0e 94 42 04 	call	0x884	; 0x884 <SPI_InterruptSet>
 414:	0e 94 40 04 	call	0x880	; 0x880 <SPI_InterruptEnable>
 418:	78 94       	sei
 41a:	80 e6       	ldi	r24, 0x60	; 96
 41c:	90 e0       	ldi	r25, 0x00	; 0
 41e:	0e 94 44 01 	call	0x288	; 0x288 <LCD_WriteString>
 422:	e0 91 a1 00 	lds	r30, 0x00A1	; 0x8000a1 <data_send_Index>
 426:	f0 e0       	ldi	r31, 0x00	; 0
 428:	ea 59       	subi	r30, 0x9A	; 154
 42a:	ff 4f       	sbci	r31, 0xFF	; 255
 42c:	80 81       	ld	r24, Z
 42e:	0e 94 3c 04 	call	0x878	; 0x878 <SPI_Send>
 432:	c0 e0       	ldi	r28, 0x00	; 0
 434:	60 e0       	ldi	r22, 0x00	; 0
 436:	81 e0       	ldi	r24, 0x01	; 1
 438:	0e 94 38 01 	call	0x270	; 0x270 <LCD_GoTo>
 43c:	83 ea       	ldi	r24, 0xA3	; 163
 43e:	90 e0       	ldi	r25, 0x00	; 0
 440:	0e 94 44 01 	call	0x288	; 0x288 <LCD_WriteString>
 444:	6b e0       	ldi	r22, 0x0B	; 11
 446:	80 e0       	ldi	r24, 0x00	; 0
 448:	0e 94 38 01 	call	0x270	; 0x270 <LCD_GoTo>
 44c:	6c 2f       	mov	r22, r28
 44e:	70 e0       	ldi	r23, 0x00	; 0
 450:	80 e0       	ldi	r24, 0x00	; 0
 452:	90 e0       	ldi	r25, 0x00	; 0
 454:	0e 94 57 01 	call	0x2ae	; 0x2ae <LCD_WriteNumber>
 458:	2f ef       	ldi	r18, 0xFF	; 255
 45a:	85 ea       	ldi	r24, 0xA5	; 165
 45c:	9e e0       	ldi	r25, 0x0E	; 14
 45e:	21 50       	subi	r18, 0x01	; 1
 460:	80 40       	sbci	r24, 0x00	; 0
 462:	90 40       	sbci	r25, 0x00	; 0
 464:	e1 f7       	brne	.-8      	; 0x45e <__EEPROM_REGION_LENGTH__+0x5e>
 466:	00 c0       	rjmp	.+0      	; 0x468 <__EEPROM_REGION_LENGTH__+0x68>
 468:	00 00       	nop
 46a:	cf 5f       	subi	r28, 0xFF	; 255
 46c:	ca 30       	cpi	r28, 0x0A	; 10
 46e:	11 f7       	brne	.-60     	; 0x434 <__EEPROM_REGION_LENGTH__+0x34>
 470:	e0 cf       	rjmp	.-64     	; 0x432 <__EEPROM_REGION_LENGTH__+0x32>

00000472 <__vector_16>:
 472:	1f 92       	push	r1
 474:	0f 92       	push	r0
 476:	0f b6       	in	r0, 0x3f	; 63
 478:	0f 92       	push	r0
 47a:	11 24       	eor	r1, r1
 47c:	2f 93       	push	r18
 47e:	3f 93       	push	r19
 480:	4f 93       	push	r20
 482:	5f 93       	push	r21
 484:	6f 93       	push	r22
 486:	7f 93       	push	r23
 488:	8f 93       	push	r24
 48a:	9f 93       	push	r25
 48c:	af 93       	push	r26
 48e:	bf 93       	push	r27
 490:	ef 93       	push	r30
 492:	ff 93       	push	r31
 494:	e0 91 bd 00 	lds	r30, 0x00BD	; 0x8000bd <funcptr>
 498:	f0 91 be 00 	lds	r31, 0x00BE	; 0x8000be <funcptr+0x1>
 49c:	30 97       	sbiw	r30, 0x00	; 0
 49e:	09 f0       	breq	.+2      	; 0x4a2 <__vector_16+0x30>
 4a0:	09 95       	icall
 4a2:	ff 91       	pop	r31
 4a4:	ef 91       	pop	r30
 4a6:	bf 91       	pop	r27
 4a8:	af 91       	pop	r26
 4aa:	9f 91       	pop	r25
 4ac:	8f 91       	pop	r24
 4ae:	7f 91       	pop	r23
 4b0:	6f 91       	pop	r22
 4b2:	5f 91       	pop	r21
 4b4:	4f 91       	pop	r20
 4b6:	3f 91       	pop	r19
 4b8:	2f 91       	pop	r18
 4ba:	0f 90       	pop	r0
 4bc:	0f be       	out	0x3f, r0	; 63
 4be:	0f 90       	pop	r0
 4c0:	1f 90       	pop	r1
 4c2:	18 95       	reti

000004c4 <DIO_Init>:
 4c4:	cf 93       	push	r28
 4c6:	df 93       	push	r29
 4c8:	e0 e8       	ldi	r30, 0x80	; 128
 4ca:	f0 e0       	ldi	r31, 0x00	; 0
 4cc:	20 ef       	ldi	r18, 0xF0	; 240
 4ce:	a8 ee       	ldi	r26, 0xE8	; 232
 4d0:	38 ef       	ldi	r19, 0xF8	; 248
 4d2:	40 e0       	ldi	r20, 0x00	; 0
 4d4:	50 e0       	ldi	r21, 0x00	; 0
 4d6:	81 e0       	ldi	r24, 0x01	; 1
 4d8:	90 e0       	ldi	r25, 0x00	; 0
 4da:	71 91       	ld	r23, Z+
 4dc:	71 11       	cpse	r23, r1
 4de:	3c c0       	rjmp	.+120    	; 0x558 <DIO_Init+0x94>
 4e0:	48 30       	cpi	r20, 0x08	; 8
 4e2:	78 f4       	brcc	.+30     	; 0x502 <DIO_Init+0x3e>
 4e4:	ba b3       	in	r27, 0x1a	; 26
 4e6:	ec 01       	movw	r28, r24
 4e8:	04 2e       	mov	r0, r20
 4ea:	02 c0       	rjmp	.+4      	; 0x4f0 <DIO_Init+0x2c>
 4ec:	cc 0f       	add	r28, r28
 4ee:	dd 1f       	adc	r29, r29
 4f0:	0a 94       	dec	r0
 4f2:	e2 f7       	brpl	.-8      	; 0x4ec <DIO_Init+0x28>
 4f4:	be 01       	movw	r22, r28
 4f6:	7b 2f       	mov	r23, r27
 4f8:	76 2b       	or	r23, r22
 4fa:	7a bb       	out	0x1a, r23	; 26
 4fc:	7b b3       	in	r23, 0x1b	; 27
 4fe:	60 95       	com	r22
 500:	3e c0       	rjmp	.+124    	; 0x57e <DIO_Init+0xba>
 502:	38 30       	cpi	r19, 0x08	; 8
 504:	68 f4       	brcc	.+26     	; 0x520 <DIO_Init+0x5c>
 506:	b7 b3       	in	r27, 0x17	; 23
 508:	bc 01       	movw	r22, r24
 50a:	03 2e       	mov	r0, r19
 50c:	01 c0       	rjmp	.+2      	; 0x510 <DIO_Init+0x4c>
 50e:	66 0f       	add	r22, r22
 510:	0a 94       	dec	r0
 512:	ea f7       	brpl	.-6      	; 0x50e <DIO_Init+0x4a>
 514:	7b 2f       	mov	r23, r27
 516:	76 2b       	or	r23, r22
 518:	77 bb       	out	0x17, r23	; 23
 51a:	78 b3       	in	r23, 0x18	; 24
 51c:	60 95       	com	r22
 51e:	3f c0       	rjmp	.+126    	; 0x59e <DIO_Init+0xda>
 520:	28 30       	cpi	r18, 0x08	; 8
 522:	68 f4       	brcc	.+26     	; 0x53e <DIO_Init+0x7a>
 524:	b4 b3       	in	r27, 0x14	; 20
 526:	bc 01       	movw	r22, r24
 528:	02 2e       	mov	r0, r18
 52a:	01 c0       	rjmp	.+2      	; 0x52e <DIO_Init+0x6a>
 52c:	66 0f       	add	r22, r22
 52e:	0a 94       	dec	r0
 530:	ea f7       	brpl	.-6      	; 0x52c <DIO_Init+0x68>
 532:	7b 2f       	mov	r23, r27
 534:	76 2b       	or	r23, r22
 536:	74 bb       	out	0x14, r23	; 20
 538:	75 b3       	in	r23, 0x15	; 21
 53a:	60 95       	com	r22
 53c:	40 c0       	rjmp	.+128    	; 0x5be <DIO_Init+0xfa>
 53e:	b1 b3       	in	r27, 0x11	; 17
 540:	bc 01       	movw	r22, r24
 542:	0a 2e       	mov	r0, r26
 544:	01 c0       	rjmp	.+2      	; 0x548 <DIO_Init+0x84>
 546:	66 0f       	add	r22, r22
 548:	0a 94       	dec	r0
 54a:	ea f7       	brpl	.-6      	; 0x546 <DIO_Init+0x82>
 54c:	7b 2f       	mov	r23, r27
 54e:	76 2b       	or	r23, r22
 550:	71 bb       	out	0x11, r23	; 17
 552:	72 b3       	in	r23, 0x12	; 18
 554:	60 95       	com	r22
 556:	41 c0       	rjmp	.+130    	; 0x5da <DIO_Init+0x116>
 558:	71 30       	cpi	r23, 0x01	; 1
 55a:	09 f0       	breq	.+2      	; 0x55e <DIO_Init+0x9a>
 55c:	40 c0       	rjmp	.+128    	; 0x5de <DIO_Init+0x11a>
 55e:	48 30       	cpi	r20, 0x08	; 8
 560:	80 f4       	brcc	.+32     	; 0x582 <DIO_Init+0xbe>
 562:	ba b3       	in	r27, 0x1a	; 26
 564:	ec 01       	movw	r28, r24
 566:	04 2e       	mov	r0, r20
 568:	02 c0       	rjmp	.+4      	; 0x56e <DIO_Init+0xaa>
 56a:	cc 0f       	add	r28, r28
 56c:	dd 1f       	adc	r29, r29
 56e:	0a 94       	dec	r0
 570:	e2 f7       	brpl	.-8      	; 0x56a <DIO_Init+0xa6>
 572:	be 01       	movw	r22, r28
 574:	60 95       	com	r22
 576:	7b 2f       	mov	r23, r27
 578:	76 23       	and	r23, r22
 57a:	7a bb       	out	0x1a, r23	; 26
 57c:	7b b3       	in	r23, 0x1b	; 27
 57e:	67 23       	and	r22, r23
 580:	42 c0       	rjmp	.+132    	; 0x606 <DIO_Init+0x142>
 582:	38 30       	cpi	r19, 0x08	; 8
 584:	70 f4       	brcc	.+28     	; 0x5a2 <DIO_Init+0xde>
 586:	b7 b3       	in	r27, 0x17	; 23
 588:	bc 01       	movw	r22, r24
 58a:	03 2e       	mov	r0, r19
 58c:	01 c0       	rjmp	.+2      	; 0x590 <DIO_Init+0xcc>
 58e:	66 0f       	add	r22, r22
 590:	0a 94       	dec	r0
 592:	ea f7       	brpl	.-6      	; 0x58e <DIO_Init+0xca>
 594:	60 95       	com	r22
 596:	7b 2f       	mov	r23, r27
 598:	76 23       	and	r23, r22
 59a:	77 bb       	out	0x17, r23	; 23
 59c:	78 b3       	in	r23, 0x18	; 24
 59e:	67 23       	and	r22, r23
 5a0:	43 c0       	rjmp	.+134    	; 0x628 <DIO_Init+0x164>
 5a2:	28 30       	cpi	r18, 0x08	; 8
 5a4:	70 f4       	brcc	.+28     	; 0x5c2 <DIO_Init+0xfe>
 5a6:	b4 b3       	in	r27, 0x14	; 20
 5a8:	bc 01       	movw	r22, r24
 5aa:	02 2e       	mov	r0, r18
 5ac:	01 c0       	rjmp	.+2      	; 0x5b0 <DIO_Init+0xec>
 5ae:	66 0f       	add	r22, r22
 5b0:	0a 94       	dec	r0
 5b2:	ea f7       	brpl	.-6      	; 0x5ae <DIO_Init+0xea>
 5b4:	60 95       	com	r22
 5b6:	7b 2f       	mov	r23, r27
 5b8:	76 23       	and	r23, r22
 5ba:	74 bb       	out	0x14, r23	; 20
 5bc:	75 b3       	in	r23, 0x15	; 21
 5be:	67 23       	and	r22, r23
 5c0:	44 c0       	rjmp	.+136    	; 0x64a <DIO_Init+0x186>
 5c2:	b1 b3       	in	r27, 0x11	; 17
 5c4:	bc 01       	movw	r22, r24
 5c6:	0a 2e       	mov	r0, r26
 5c8:	01 c0       	rjmp	.+2      	; 0x5cc <DIO_Init+0x108>
 5ca:	66 0f       	add	r22, r22
 5cc:	0a 94       	dec	r0
 5ce:	ea f7       	brpl	.-6      	; 0x5ca <DIO_Init+0x106>
 5d0:	60 95       	com	r22
 5d2:	7b 2f       	mov	r23, r27
 5d4:	76 23       	and	r23, r22
 5d6:	71 bb       	out	0x11, r23	; 17
 5d8:	72 b3       	in	r23, 0x12	; 18
 5da:	67 23       	and	r22, r23
 5dc:	45 c0       	rjmp	.+138    	; 0x668 <DIO_Init+0x1a4>
 5de:	72 30       	cpi	r23, 0x02	; 2
 5e0:	09 f0       	breq	.+2      	; 0x5e4 <DIO_Init+0x120>
 5e2:	43 c0       	rjmp	.+134    	; 0x66a <DIO_Init+0x1a6>
 5e4:	48 30       	cpi	r20, 0x08	; 8
 5e6:	88 f4       	brcc	.+34     	; 0x60a <DIO_Init+0x146>
 5e8:	ba b3       	in	r27, 0x1a	; 26
 5ea:	ec 01       	movw	r28, r24
 5ec:	04 2e       	mov	r0, r20
 5ee:	02 c0       	rjmp	.+4      	; 0x5f4 <DIO_Init+0x130>
 5f0:	cc 0f       	add	r28, r28
 5f2:	dd 1f       	adc	r29, r29
 5f4:	0a 94       	dec	r0
 5f6:	e2 f7       	brpl	.-8      	; 0x5f0 <DIO_Init+0x12c>
 5f8:	be 01       	movw	r22, r28
 5fa:	7c 2f       	mov	r23, r28
 5fc:	70 95       	com	r23
 5fe:	7b 23       	and	r23, r27
 600:	7a bb       	out	0x1a, r23	; 26
 602:	7b b3       	in	r23, 0x1b	; 27
 604:	67 2b       	or	r22, r23
 606:	6b bb       	out	0x1b, r22	; 27
 608:	30 c0       	rjmp	.+96     	; 0x66a <DIO_Init+0x1a6>
 60a:	38 30       	cpi	r19, 0x08	; 8
 60c:	78 f4       	brcc	.+30     	; 0x62c <DIO_Init+0x168>
 60e:	b7 b3       	in	r27, 0x17	; 23
 610:	bc 01       	movw	r22, r24
 612:	03 2e       	mov	r0, r19
 614:	01 c0       	rjmp	.+2      	; 0x618 <DIO_Init+0x154>
 616:	66 0f       	add	r22, r22
 618:	0a 94       	dec	r0
 61a:	ea f7       	brpl	.-6      	; 0x616 <DIO_Init+0x152>
 61c:	76 2f       	mov	r23, r22
 61e:	70 95       	com	r23
 620:	7b 23       	and	r23, r27
 622:	77 bb       	out	0x17, r23	; 23
 624:	78 b3       	in	r23, 0x18	; 24
 626:	67 2b       	or	r22, r23
 628:	68 bb       	out	0x18, r22	; 24
 62a:	1f c0       	rjmp	.+62     	; 0x66a <DIO_Init+0x1a6>
 62c:	28 30       	cpi	r18, 0x08	; 8
 62e:	78 f4       	brcc	.+30     	; 0x64e <DIO_Init+0x18a>
 630:	b4 b3       	in	r27, 0x14	; 20
 632:	bc 01       	movw	r22, r24
 634:	02 2e       	mov	r0, r18
 636:	01 c0       	rjmp	.+2      	; 0x63a <DIO_Init+0x176>
 638:	66 0f       	add	r22, r22
 63a:	0a 94       	dec	r0
 63c:	ea f7       	brpl	.-6      	; 0x638 <DIO_Init+0x174>
 63e:	76 2f       	mov	r23, r22
 640:	70 95       	com	r23
 642:	7b 23       	and	r23, r27
 644:	74 bb       	out	0x14, r23	; 20
 646:	75 b3       	in	r23, 0x15	; 21
 648:	67 2b       	or	r22, r23
 64a:	65 bb       	out	0x15, r22	; 21
 64c:	0e c0       	rjmp	.+28     	; 0x66a <DIO_Init+0x1a6>
 64e:	b1 b3       	in	r27, 0x11	; 17
 650:	bc 01       	movw	r22, r24
 652:	0a 2e       	mov	r0, r26
 654:	01 c0       	rjmp	.+2      	; 0x658 <DIO_Init+0x194>
 656:	66 0f       	add	r22, r22
 658:	0a 94       	dec	r0
 65a:	ea f7       	brpl	.-6      	; 0x656 <DIO_Init+0x192>
 65c:	76 2f       	mov	r23, r22
 65e:	70 95       	com	r23
 660:	7b 23       	and	r23, r27
 662:	71 bb       	out	0x11, r23	; 17
 664:	72 b3       	in	r23, 0x12	; 18
 666:	67 2b       	or	r22, r23
 668:	62 bb       	out	0x12, r22	; 18
 66a:	4f 5f       	subi	r20, 0xFF	; 255
 66c:	5f 4f       	sbci	r21, 0xFF	; 255
 66e:	3f 5f       	subi	r19, 0xFF	; 255
 670:	af 5f       	subi	r26, 0xFF	; 255
 672:	2f 5f       	subi	r18, 0xFF	; 255
 674:	40 32       	cpi	r20, 0x20	; 32
 676:	51 05       	cpc	r21, r1
 678:	09 f0       	breq	.+2      	; 0x67c <DIO_Init+0x1b8>
 67a:	2f cf       	rjmp	.-418    	; 0x4da <DIO_Init+0x16>
 67c:	df 91       	pop	r29
 67e:	cf 91       	pop	r28
 680:	08 95       	ret

00000682 <DIO_WritePin>:
 682:	61 11       	cpse	r22, r1
 684:	3c c0       	rjmp	.+120    	; 0x6fe <DIO_WritePin+0x7c>
 686:	88 30       	cpi	r24, 0x08	; 8
 688:	68 f4       	brcc	.+26     	; 0x6a4 <DIO_WritePin+0x22>
 68a:	4b b3       	in	r20, 0x1b	; 27
 68c:	21 e0       	ldi	r18, 0x01	; 1
 68e:	30 e0       	ldi	r19, 0x00	; 0
 690:	b9 01       	movw	r22, r18
 692:	02 c0       	rjmp	.+4      	; 0x698 <DIO_WritePin+0x16>
 694:	66 0f       	add	r22, r22
 696:	77 1f       	adc	r23, r23
 698:	8a 95       	dec	r24
 69a:	e2 f7       	brpl	.-8      	; 0x694 <DIO_WritePin+0x12>
 69c:	cb 01       	movw	r24, r22
 69e:	80 95       	com	r24
 6a0:	84 23       	and	r24, r20
 6a2:	3c c0       	rjmp	.+120    	; 0x71c <DIO_WritePin+0x9a>
 6a4:	38 ef       	ldi	r19, 0xF8	; 248
 6a6:	38 0f       	add	r19, r24
 6a8:	38 30       	cpi	r19, 0x08	; 8
 6aa:	50 f4       	brcc	.+20     	; 0x6c0 <DIO_WritePin+0x3e>
 6ac:	28 b3       	in	r18, 0x18	; 24
 6ae:	81 e0       	ldi	r24, 0x01	; 1
 6b0:	90 e0       	ldi	r25, 0x00	; 0
 6b2:	01 c0       	rjmp	.+2      	; 0x6b6 <DIO_WritePin+0x34>
 6b4:	88 0f       	add	r24, r24
 6b6:	3a 95       	dec	r19
 6b8:	ea f7       	brpl	.-6      	; 0x6b4 <DIO_WritePin+0x32>
 6ba:	80 95       	com	r24
 6bc:	82 23       	and	r24, r18
 6be:	3c c0       	rjmp	.+120    	; 0x738 <DIO_WritePin+0xb6>
 6c0:	30 ef       	ldi	r19, 0xF0	; 240
 6c2:	38 0f       	add	r19, r24
 6c4:	38 30       	cpi	r19, 0x08	; 8
 6c6:	50 f4       	brcc	.+20     	; 0x6dc <DIO_WritePin+0x5a>
 6c8:	25 b3       	in	r18, 0x15	; 21
 6ca:	81 e0       	ldi	r24, 0x01	; 1
 6cc:	90 e0       	ldi	r25, 0x00	; 0
 6ce:	01 c0       	rjmp	.+2      	; 0x6d2 <DIO_WritePin+0x50>
 6d0:	88 0f       	add	r24, r24
 6d2:	3a 95       	dec	r19
 6d4:	ea f7       	brpl	.-6      	; 0x6d0 <DIO_WritePin+0x4e>
 6d6:	80 95       	com	r24
 6d8:	82 23       	and	r24, r18
 6da:	3c c0       	rjmp	.+120    	; 0x754 <DIO_WritePin+0xd2>
 6dc:	88 51       	subi	r24, 0x18	; 24
 6de:	88 30       	cpi	r24, 0x08	; 8
 6e0:	08 f0       	brcs	.+2      	; 0x6e4 <DIO_WritePin+0x62>
 6e2:	49 c0       	rjmp	.+146    	; 0x776 <DIO_WritePin+0xf4>
 6e4:	42 b3       	in	r20, 0x12	; 18
 6e6:	21 e0       	ldi	r18, 0x01	; 1
 6e8:	30 e0       	ldi	r19, 0x00	; 0
 6ea:	b9 01       	movw	r22, r18
 6ec:	02 c0       	rjmp	.+4      	; 0x6f2 <DIO_WritePin+0x70>
 6ee:	66 0f       	add	r22, r22
 6f0:	77 1f       	adc	r23, r23
 6f2:	8a 95       	dec	r24
 6f4:	e2 f7       	brpl	.-8      	; 0x6ee <DIO_WritePin+0x6c>
 6f6:	cb 01       	movw	r24, r22
 6f8:	80 95       	com	r24
 6fa:	84 23       	and	r24, r20
 6fc:	3b c0       	rjmp	.+118    	; 0x774 <DIO_WritePin+0xf2>
 6fe:	61 30       	cpi	r22, 0x01	; 1
 700:	d1 f5       	brne	.+116    	; 0x776 <DIO_WritePin+0xf4>
 702:	88 30       	cpi	r24, 0x08	; 8
 704:	68 f4       	brcc	.+26     	; 0x720 <DIO_WritePin+0x9e>
 706:	4b b3       	in	r20, 0x1b	; 27
 708:	21 e0       	ldi	r18, 0x01	; 1
 70a:	30 e0       	ldi	r19, 0x00	; 0
 70c:	b9 01       	movw	r22, r18
 70e:	02 c0       	rjmp	.+4      	; 0x714 <DIO_WritePin+0x92>
 710:	66 0f       	add	r22, r22
 712:	77 1f       	adc	r23, r23
 714:	8a 95       	dec	r24
 716:	e2 f7       	brpl	.-8      	; 0x710 <DIO_WritePin+0x8e>
 718:	cb 01       	movw	r24, r22
 71a:	84 2b       	or	r24, r20
 71c:	8b bb       	out	0x1b, r24	; 27
 71e:	08 95       	ret
 720:	28 ef       	ldi	r18, 0xF8	; 248
 722:	28 0f       	add	r18, r24
 724:	28 30       	cpi	r18, 0x08	; 8
 726:	50 f4       	brcc	.+20     	; 0x73c <DIO_WritePin+0xba>
 728:	38 b3       	in	r19, 0x18	; 24
 72a:	81 e0       	ldi	r24, 0x01	; 1
 72c:	90 e0       	ldi	r25, 0x00	; 0
 72e:	01 c0       	rjmp	.+2      	; 0x732 <DIO_WritePin+0xb0>
 730:	88 0f       	add	r24, r24
 732:	2a 95       	dec	r18
 734:	ea f7       	brpl	.-6      	; 0x730 <DIO_WritePin+0xae>
 736:	83 2b       	or	r24, r19
 738:	88 bb       	out	0x18, r24	; 24
 73a:	08 95       	ret
 73c:	20 ef       	ldi	r18, 0xF0	; 240
 73e:	28 0f       	add	r18, r24
 740:	28 30       	cpi	r18, 0x08	; 8
 742:	50 f4       	brcc	.+20     	; 0x758 <DIO_WritePin+0xd6>
 744:	35 b3       	in	r19, 0x15	; 21
 746:	81 e0       	ldi	r24, 0x01	; 1
 748:	90 e0       	ldi	r25, 0x00	; 0
 74a:	01 c0       	rjmp	.+2      	; 0x74e <DIO_WritePin+0xcc>
 74c:	88 0f       	add	r24, r24
 74e:	2a 95       	dec	r18
 750:	ea f7       	brpl	.-6      	; 0x74c <DIO_WritePin+0xca>
 752:	83 2b       	or	r24, r19
 754:	85 bb       	out	0x15, r24	; 21
 756:	08 95       	ret
 758:	88 51       	subi	r24, 0x18	; 24
 75a:	88 30       	cpi	r24, 0x08	; 8
 75c:	60 f4       	brcc	.+24     	; 0x776 <DIO_WritePin+0xf4>
 75e:	42 b3       	in	r20, 0x12	; 18
 760:	21 e0       	ldi	r18, 0x01	; 1
 762:	30 e0       	ldi	r19, 0x00	; 0
 764:	b9 01       	movw	r22, r18
 766:	02 c0       	rjmp	.+4      	; 0x76c <DIO_WritePin+0xea>
 768:	66 0f       	add	r22, r22
 76a:	77 1f       	adc	r23, r23
 76c:	8a 95       	dec	r24
 76e:	e2 f7       	brpl	.-8      	; 0x768 <DIO_WritePin+0xe6>
 770:	cb 01       	movw	r24, r22
 772:	84 2b       	or	r24, r20
 774:	82 bb       	out	0x12, r24	; 18
 776:	08 95       	ret

00000778 <__vector_1>:
 778:	1f 92       	push	r1
 77a:	0f 92       	push	r0
 77c:	0f b6       	in	r0, 0x3f	; 63
 77e:	0f 92       	push	r0
 780:	11 24       	eor	r1, r1
 782:	2f 93       	push	r18
 784:	3f 93       	push	r19
 786:	4f 93       	push	r20
 788:	5f 93       	push	r21
 78a:	6f 93       	push	r22
 78c:	7f 93       	push	r23
 78e:	8f 93       	push	r24
 790:	9f 93       	push	r25
 792:	af 93       	push	r26
 794:	bf 93       	push	r27
 796:	ef 93       	push	r30
 798:	ff 93       	push	r31
 79a:	e0 91 c3 00 	lds	r30, 0x00C3	; 0x8000c3 <FUNC_PTR0>
 79e:	f0 91 c4 00 	lds	r31, 0x00C4	; 0x8000c4 <FUNC_PTR0+0x1>
 7a2:	30 97       	sbiw	r30, 0x00	; 0
 7a4:	09 f0       	breq	.+2      	; 0x7a8 <__vector_1+0x30>
 7a6:	09 95       	icall
 7a8:	ff 91       	pop	r31
 7aa:	ef 91       	pop	r30
 7ac:	bf 91       	pop	r27
 7ae:	af 91       	pop	r26
 7b0:	9f 91       	pop	r25
 7b2:	8f 91       	pop	r24
 7b4:	7f 91       	pop	r23
 7b6:	6f 91       	pop	r22
 7b8:	5f 91       	pop	r21
 7ba:	4f 91       	pop	r20
 7bc:	3f 91       	pop	r19
 7be:	2f 91       	pop	r18
 7c0:	0f 90       	pop	r0
 7c2:	0f be       	out	0x3f, r0	; 63
 7c4:	0f 90       	pop	r0
 7c6:	1f 90       	pop	r1
 7c8:	18 95       	reti

000007ca <__vector_2>:
 7ca:	1f 92       	push	r1
 7cc:	0f 92       	push	r0
 7ce:	0f b6       	in	r0, 0x3f	; 63
 7d0:	0f 92       	push	r0
 7d2:	11 24       	eor	r1, r1
 7d4:	2f 93       	push	r18
 7d6:	3f 93       	push	r19
 7d8:	4f 93       	push	r20
 7da:	5f 93       	push	r21
 7dc:	6f 93       	push	r22
 7de:	7f 93       	push	r23
 7e0:	8f 93       	push	r24
 7e2:	9f 93       	push	r25
 7e4:	af 93       	push	r26
 7e6:	bf 93       	push	r27
 7e8:	ef 93       	push	r30
 7ea:	ff 93       	push	r31
 7ec:	e0 91 c1 00 	lds	r30, 0x00C1	; 0x8000c1 <FUNC_PTR1>
 7f0:	f0 91 c2 00 	lds	r31, 0x00C2	; 0x8000c2 <FUNC_PTR1+0x1>
 7f4:	30 97       	sbiw	r30, 0x00	; 0
 7f6:	09 f0       	breq	.+2      	; 0x7fa <__vector_2+0x30>
 7f8:	09 95       	icall
 7fa:	ff 91       	pop	r31
 7fc:	ef 91       	pop	r30
 7fe:	bf 91       	pop	r27
 800:	af 91       	pop	r26
 802:	9f 91       	pop	r25
 804:	8f 91       	pop	r24
 806:	7f 91       	pop	r23
 808:	6f 91       	pop	r22
 80a:	5f 91       	pop	r21
 80c:	4f 91       	pop	r20
 80e:	3f 91       	pop	r19
 810:	2f 91       	pop	r18
 812:	0f 90       	pop	r0
 814:	0f be       	out	0x3f, r0	; 63
 816:	0f 90       	pop	r0
 818:	1f 90       	pop	r1
 81a:	18 95       	reti

0000081c <__vector_3>:
 81c:	1f 92       	push	r1
 81e:	0f 92       	push	r0
 820:	0f b6       	in	r0, 0x3f	; 63
 822:	0f 92       	push	r0
 824:	11 24       	eor	r1, r1
 826:	2f 93       	push	r18
 828:	3f 93       	push	r19
 82a:	4f 93       	push	r20
 82c:	5f 93       	push	r21
 82e:	6f 93       	push	r22
 830:	7f 93       	push	r23
 832:	8f 93       	push	r24
 834:	9f 93       	push	r25
 836:	af 93       	push	r26
 838:	bf 93       	push	r27
 83a:	ef 93       	push	r30
 83c:	ff 93       	push	r31
 83e:	e0 91 bf 00 	lds	r30, 0x00BF	; 0x8000bf <FUNC_PTR2>
 842:	f0 91 c0 00 	lds	r31, 0x00C0	; 0x8000c0 <FUNC_PTR2+0x1>
 846:	30 97       	sbiw	r30, 0x00	; 0
 848:	09 f0       	breq	.+2      	; 0x84c <__vector_3+0x30>
 84a:	09 95       	icall
 84c:	ff 91       	pop	r31
 84e:	ef 91       	pop	r30
 850:	bf 91       	pop	r27
 852:	af 91       	pop	r26
 854:	9f 91       	pop	r25
 856:	8f 91       	pop	r24
 858:	7f 91       	pop	r23
 85a:	6f 91       	pop	r22
 85c:	5f 91       	pop	r21
 85e:	4f 91       	pop	r20
 860:	3f 91       	pop	r19
 862:	2f 91       	pop	r18
 864:	0f 90       	pop	r0
 866:	0f be       	out	0x3f, r0	; 63
 868:	0f 90       	pop	r0
 86a:	1f 90       	pop	r1
 86c:	18 95       	reti

0000086e <SPI_InitSlave>:
 86e:	6c 98       	cbi	0x0d, 4	; 13
 870:	6d 98       	cbi	0x0d, 5	; 13
 872:	08 95       	ret

00000874 <SPI_Enable>:
 874:	6e 9a       	sbi	0x0d, 6	; 13
 876:	08 95       	ret

00000878 <SPI_Send>:
 878:	8f b9       	out	0x0f, r24	; 15
 87a:	08 95       	ret

0000087c <SPI_Recieve>:
 87c:	8f b1       	in	r24, 0x0f	; 15
 87e:	08 95       	ret

00000880 <SPI_InterruptEnable>:
 880:	6f 9a       	sbi	0x0d, 7	; 13
 882:	08 95       	ret

00000884 <SPI_InterruptSet>:
 884:	90 93 c6 00 	sts	0x00C6, r25	; 0x8000c6 <SPI_INTERRUP_PTR+0x1>
 888:	80 93 c5 00 	sts	0x00C5, r24	; 0x8000c5 <SPI_INTERRUP_PTR>
 88c:	08 95       	ret

0000088e <__vector_12>:
 88e:	1f 92       	push	r1
 890:	0f 92       	push	r0
 892:	0f b6       	in	r0, 0x3f	; 63
 894:	0f 92       	push	r0
 896:	11 24       	eor	r1, r1
 898:	2f 93       	push	r18
 89a:	3f 93       	push	r19
 89c:	4f 93       	push	r20
 89e:	5f 93       	push	r21
 8a0:	6f 93       	push	r22
 8a2:	7f 93       	push	r23
 8a4:	8f 93       	push	r24
 8a6:	9f 93       	push	r25
 8a8:	af 93       	push	r26
 8aa:	bf 93       	push	r27
 8ac:	ef 93       	push	r30
 8ae:	ff 93       	push	r31
 8b0:	e0 91 c5 00 	lds	r30, 0x00C5	; 0x8000c5 <SPI_INTERRUP_PTR>
 8b4:	f0 91 c6 00 	lds	r31, 0x00C6	; 0x8000c6 <SPI_INTERRUP_PTR+0x1>
 8b8:	30 97       	sbiw	r30, 0x00	; 0
 8ba:	09 f0       	breq	.+2      	; 0x8be <__vector_12+0x30>
 8bc:	09 95       	icall
 8be:	ff 91       	pop	r31
 8c0:	ef 91       	pop	r30
 8c2:	bf 91       	pop	r27
 8c4:	af 91       	pop	r26
 8c6:	9f 91       	pop	r25
 8c8:	8f 91       	pop	r24
 8ca:	7f 91       	pop	r23
 8cc:	6f 91       	pop	r22
 8ce:	5f 91       	pop	r21
 8d0:	4f 91       	pop	r20
 8d2:	3f 91       	pop	r19
 8d4:	2f 91       	pop	r18
 8d6:	0f 90       	pop	r0
 8d8:	0f be       	out	0x3f, r0	; 63
 8da:	0f 90       	pop	r0
 8dc:	1f 90       	pop	r1
 8de:	18 95       	reti

000008e0 <__vector_10>:
 8e0:	1f 92       	push	r1
 8e2:	0f 92       	push	r0
 8e4:	0f b6       	in	r0, 0x3f	; 63
 8e6:	0f 92       	push	r0
 8e8:	11 24       	eor	r1, r1
 8ea:	2f 93       	push	r18
 8ec:	3f 93       	push	r19
 8ee:	4f 93       	push	r20
 8f0:	5f 93       	push	r21
 8f2:	6f 93       	push	r22
 8f4:	7f 93       	push	r23
 8f6:	8f 93       	push	r24
 8f8:	9f 93       	push	r25
 8fa:	af 93       	push	r26
 8fc:	bf 93       	push	r27
 8fe:	ef 93       	push	r30
 900:	ff 93       	push	r31
 902:	e0 91 c9 00 	lds	r30, 0x00C9	; 0x8000c9 <funcPtrCompareMatch>
 906:	f0 91 ca 00 	lds	r31, 0x00CA	; 0x8000ca <funcPtrCompareMatch+0x1>
 90a:	30 97       	sbiw	r30, 0x00	; 0
 90c:	09 f0       	breq	.+2      	; 0x910 <__vector_10+0x30>
 90e:	09 95       	icall
 910:	ff 91       	pop	r31
 912:	ef 91       	pop	r30
 914:	bf 91       	pop	r27
 916:	af 91       	pop	r26
 918:	9f 91       	pop	r25
 91a:	8f 91       	pop	r24
 91c:	7f 91       	pop	r23
 91e:	6f 91       	pop	r22
 920:	5f 91       	pop	r21
 922:	4f 91       	pop	r20
 924:	3f 91       	pop	r19
 926:	2f 91       	pop	r18
 928:	0f 90       	pop	r0
 92a:	0f be       	out	0x3f, r0	; 63
 92c:	0f 90       	pop	r0
 92e:	1f 90       	pop	r1
 930:	18 95       	reti

00000932 <__vector_11>:
 932:	1f 92       	push	r1
 934:	0f 92       	push	r0
 936:	0f b6       	in	r0, 0x3f	; 63
 938:	0f 92       	push	r0
 93a:	11 24       	eor	r1, r1
 93c:	2f 93       	push	r18
 93e:	3f 93       	push	r19
 940:	4f 93       	push	r20
 942:	5f 93       	push	r21
 944:	6f 93       	push	r22
 946:	7f 93       	push	r23
 948:	8f 93       	push	r24
 94a:	9f 93       	push	r25
 94c:	af 93       	push	r26
 94e:	bf 93       	push	r27
 950:	ef 93       	push	r30
 952:	ff 93       	push	r31
 954:	e0 91 c7 00 	lds	r30, 0x00C7	; 0x8000c7 <funcPtrOverflow>
 958:	f0 91 c8 00 	lds	r31, 0x00C8	; 0x8000c8 <funcPtrOverflow+0x1>
 95c:	30 97       	sbiw	r30, 0x00	; 0
 95e:	09 f0       	breq	.+2      	; 0x962 <__vector_11+0x30>
 960:	09 95       	icall
 962:	ff 91       	pop	r31
 964:	ef 91       	pop	r30
 966:	bf 91       	pop	r27
 968:	af 91       	pop	r26
 96a:	9f 91       	pop	r25
 96c:	8f 91       	pop	r24
 96e:	7f 91       	pop	r23
 970:	6f 91       	pop	r22
 972:	5f 91       	pop	r21
 974:	4f 91       	pop	r20
 976:	3f 91       	pop	r19
 978:	2f 91       	pop	r18
 97a:	0f 90       	pop	r0
 97c:	0f be       	out	0x3f, r0	; 63
 97e:	0f 90       	pop	r0
 980:	1f 90       	pop	r1
 982:	18 95       	reti

00000984 <__vector_7>:
 984:	1f 92       	push	r1
 986:	0f 92       	push	r0
 988:	0f b6       	in	r0, 0x3f	; 63
 98a:	0f 92       	push	r0
 98c:	11 24       	eor	r1, r1
 98e:	2f 93       	push	r18
 990:	3f 93       	push	r19
 992:	4f 93       	push	r20
 994:	5f 93       	push	r21
 996:	6f 93       	push	r22
 998:	7f 93       	push	r23
 99a:	8f 93       	push	r24
 99c:	9f 93       	push	r25
 99e:	af 93       	push	r26
 9a0:	bf 93       	push	r27
 9a2:	ef 93       	push	r30
 9a4:	ff 93       	push	r31
 9a6:	e0 91 d1 00 	lds	r30, 0x00D1	; 0x8000d1 <funcPtrCompareMatch1A>
 9aa:	f0 91 d2 00 	lds	r31, 0x00D2	; 0x8000d2 <funcPtrCompareMatch1A+0x1>
 9ae:	30 97       	sbiw	r30, 0x00	; 0
 9b0:	09 f0       	breq	.+2      	; 0x9b4 <__vector_7+0x30>
 9b2:	09 95       	icall
 9b4:	ff 91       	pop	r31
 9b6:	ef 91       	pop	r30
 9b8:	bf 91       	pop	r27
 9ba:	af 91       	pop	r26
 9bc:	9f 91       	pop	r25
 9be:	8f 91       	pop	r24
 9c0:	7f 91       	pop	r23
 9c2:	6f 91       	pop	r22
 9c4:	5f 91       	pop	r21
 9c6:	4f 91       	pop	r20
 9c8:	3f 91       	pop	r19
 9ca:	2f 91       	pop	r18
 9cc:	0f 90       	pop	r0
 9ce:	0f be       	out	0x3f, r0	; 63
 9d0:	0f 90       	pop	r0
 9d2:	1f 90       	pop	r1
 9d4:	18 95       	reti

000009d6 <__vector_8>:
 9d6:	1f 92       	push	r1
 9d8:	0f 92       	push	r0
 9da:	0f b6       	in	r0, 0x3f	; 63
 9dc:	0f 92       	push	r0
 9de:	11 24       	eor	r1, r1
 9e0:	2f 93       	push	r18
 9e2:	3f 93       	push	r19
 9e4:	4f 93       	push	r20
 9e6:	5f 93       	push	r21
 9e8:	6f 93       	push	r22
 9ea:	7f 93       	push	r23
 9ec:	8f 93       	push	r24
 9ee:	9f 93       	push	r25
 9f0:	af 93       	push	r26
 9f2:	bf 93       	push	r27
 9f4:	ef 93       	push	r30
 9f6:	ff 93       	push	r31
 9f8:	e0 91 cf 00 	lds	r30, 0x00CF	; 0x8000cf <funcPtrCompareMatch1B>
 9fc:	f0 91 d0 00 	lds	r31, 0x00D0	; 0x8000d0 <funcPtrCompareMatch1B+0x1>
 a00:	30 97       	sbiw	r30, 0x00	; 0
 a02:	09 f0       	breq	.+2      	; 0xa06 <__vector_8+0x30>
 a04:	09 95       	icall
 a06:	ff 91       	pop	r31
 a08:	ef 91       	pop	r30
 a0a:	bf 91       	pop	r27
 a0c:	af 91       	pop	r26
 a0e:	9f 91       	pop	r25
 a10:	8f 91       	pop	r24
 a12:	7f 91       	pop	r23
 a14:	6f 91       	pop	r22
 a16:	5f 91       	pop	r21
 a18:	4f 91       	pop	r20
 a1a:	3f 91       	pop	r19
 a1c:	2f 91       	pop	r18
 a1e:	0f 90       	pop	r0
 a20:	0f be       	out	0x3f, r0	; 63
 a22:	0f 90       	pop	r0
 a24:	1f 90       	pop	r1
 a26:	18 95       	reti

00000a28 <__vector_9>:
 a28:	1f 92       	push	r1
 a2a:	0f 92       	push	r0
 a2c:	0f b6       	in	r0, 0x3f	; 63
 a2e:	0f 92       	push	r0
 a30:	11 24       	eor	r1, r1
 a32:	2f 93       	push	r18
 a34:	3f 93       	push	r19
 a36:	4f 93       	push	r20
 a38:	5f 93       	push	r21
 a3a:	6f 93       	push	r22
 a3c:	7f 93       	push	r23
 a3e:	8f 93       	push	r24
 a40:	9f 93       	push	r25
 a42:	af 93       	push	r26
 a44:	bf 93       	push	r27
 a46:	ef 93       	push	r30
 a48:	ff 93       	push	r31
 a4a:	e0 91 cd 00 	lds	r30, 0x00CD	; 0x8000cd <funcPtrOverflow>
 a4e:	f0 91 ce 00 	lds	r31, 0x00CE	; 0x8000ce <funcPtrOverflow+0x1>
 a52:	30 97       	sbiw	r30, 0x00	; 0
 a54:	09 f0       	breq	.+2      	; 0xa58 <__vector_9+0x30>
 a56:	09 95       	icall
 a58:	ff 91       	pop	r31
 a5a:	ef 91       	pop	r30
 a5c:	bf 91       	pop	r27
 a5e:	af 91       	pop	r26
 a60:	9f 91       	pop	r25
 a62:	8f 91       	pop	r24
 a64:	7f 91       	pop	r23
 a66:	6f 91       	pop	r22
 a68:	5f 91       	pop	r21
 a6a:	4f 91       	pop	r20
 a6c:	3f 91       	pop	r19
 a6e:	2f 91       	pop	r18
 a70:	0f 90       	pop	r0
 a72:	0f be       	out	0x3f, r0	; 63
 a74:	0f 90       	pop	r0
 a76:	1f 90       	pop	r1
 a78:	18 95       	reti

00000a7a <__vector_6>:
 a7a:	1f 92       	push	r1
 a7c:	0f 92       	push	r0
 a7e:	0f b6       	in	r0, 0x3f	; 63
 a80:	0f 92       	push	r0
 a82:	11 24       	eor	r1, r1
 a84:	2f 93       	push	r18
 a86:	3f 93       	push	r19
 a88:	4f 93       	push	r20
 a8a:	5f 93       	push	r21
 a8c:	6f 93       	push	r22
 a8e:	7f 93       	push	r23
 a90:	8f 93       	push	r24
 a92:	9f 93       	push	r25
 a94:	af 93       	push	r26
 a96:	bf 93       	push	r27
 a98:	ef 93       	push	r30
 a9a:	ff 93       	push	r31
 a9c:	e0 91 cb 00 	lds	r30, 0x00CB	; 0x8000cb <funcPtrTimeStamp>
 aa0:	f0 91 cc 00 	lds	r31, 0x00CC	; 0x8000cc <funcPtrTimeStamp+0x1>
 aa4:	30 97       	sbiw	r30, 0x00	; 0
 aa6:	09 f0       	breq	.+2      	; 0xaaa <__vector_6+0x30>
 aa8:	09 95       	icall
 aaa:	ff 91       	pop	r31
 aac:	ef 91       	pop	r30
 aae:	bf 91       	pop	r27
 ab0:	af 91       	pop	r26
 ab2:	9f 91       	pop	r25
 ab4:	8f 91       	pop	r24
 ab6:	7f 91       	pop	r23
 ab8:	6f 91       	pop	r22
 aba:	5f 91       	pop	r21
 abc:	4f 91       	pop	r20
 abe:	3f 91       	pop	r19
 ac0:	2f 91       	pop	r18
 ac2:	0f 90       	pop	r0
 ac4:	0f be       	out	0x3f, r0	; 63
 ac6:	0f 90       	pop	r0
 ac8:	1f 90       	pop	r1
 aca:	18 95       	reti

00000acc <__vector_13>:
 acc:	1f 92       	push	r1
 ace:	0f 92       	push	r0
 ad0:	0f b6       	in	r0, 0x3f	; 63
 ad2:	0f 92       	push	r0
 ad4:	11 24       	eor	r1, r1
 ad6:	2f 93       	push	r18
 ad8:	3f 93       	push	r19
 ada:	4f 93       	push	r20
 adc:	5f 93       	push	r21
 ade:	6f 93       	push	r22
 ae0:	7f 93       	push	r23
 ae2:	8f 93       	push	r24
 ae4:	9f 93       	push	r25
 ae6:	af 93       	push	r26
 ae8:	bf 93       	push	r27
 aea:	ef 93       	push	r30
 aec:	ff 93       	push	r31
 aee:	e0 91 d7 00 	lds	r30, 0x00D7	; 0x8000d7 <RXcomplateInterruptPTR>
 af2:	f0 91 d8 00 	lds	r31, 0x00D8	; 0x8000d8 <RXcomplateInterruptPTR+0x1>
 af6:	30 97       	sbiw	r30, 0x00	; 0
 af8:	09 f0       	breq	.+2      	; 0xafc <__vector_13+0x30>
 afa:	09 95       	icall
 afc:	ff 91       	pop	r31
 afe:	ef 91       	pop	r30
 b00:	bf 91       	pop	r27
 b02:	af 91       	pop	r26
 b04:	9f 91       	pop	r25
 b06:	8f 91       	pop	r24
 b08:	7f 91       	pop	r23
 b0a:	6f 91       	pop	r22
 b0c:	5f 91       	pop	r21
 b0e:	4f 91       	pop	r20
 b10:	3f 91       	pop	r19
 b12:	2f 91       	pop	r18
 b14:	0f 90       	pop	r0
 b16:	0f be       	out	0x3f, r0	; 63
 b18:	0f 90       	pop	r0
 b1a:	1f 90       	pop	r1
 b1c:	18 95       	reti

00000b1e <__vector_15>:
 b1e:	1f 92       	push	r1
 b20:	0f 92       	push	r0
 b22:	0f b6       	in	r0, 0x3f	; 63
 b24:	0f 92       	push	r0
 b26:	11 24       	eor	r1, r1
 b28:	2f 93       	push	r18
 b2a:	3f 93       	push	r19
 b2c:	4f 93       	push	r20
 b2e:	5f 93       	push	r21
 b30:	6f 93       	push	r22
 b32:	7f 93       	push	r23
 b34:	8f 93       	push	r24
 b36:	9f 93       	push	r25
 b38:	af 93       	push	r26
 b3a:	bf 93       	push	r27
 b3c:	ef 93       	push	r30
 b3e:	ff 93       	push	r31
 b40:	e0 91 d5 00 	lds	r30, 0x00D5	; 0x8000d5 <TXcomplateInterruptPTR>
 b44:	f0 91 d6 00 	lds	r31, 0x00D6	; 0x8000d6 <TXcomplateInterruptPTR+0x1>
 b48:	30 97       	sbiw	r30, 0x00	; 0
 b4a:	09 f0       	breq	.+2      	; 0xb4e <__vector_15+0x30>
 b4c:	09 95       	icall
 b4e:	ff 91       	pop	r31
 b50:	ef 91       	pop	r30
 b52:	bf 91       	pop	r27
 b54:	af 91       	pop	r26
 b56:	9f 91       	pop	r25
 b58:	8f 91       	pop	r24
 b5a:	7f 91       	pop	r23
 b5c:	6f 91       	pop	r22
 b5e:	5f 91       	pop	r21
 b60:	4f 91       	pop	r20
 b62:	3f 91       	pop	r19
 b64:	2f 91       	pop	r18
 b66:	0f 90       	pop	r0
 b68:	0f be       	out	0x3f, r0	; 63
 b6a:	0f 90       	pop	r0
 b6c:	1f 90       	pop	r1
 b6e:	18 95       	reti

00000b70 <__vector_14>:
 b70:	1f 92       	push	r1
 b72:	0f 92       	push	r0
 b74:	0f b6       	in	r0, 0x3f	; 63
 b76:	0f 92       	push	r0
 b78:	11 24       	eor	r1, r1
 b7a:	2f 93       	push	r18
 b7c:	3f 93       	push	r19
 b7e:	4f 93       	push	r20
 b80:	5f 93       	push	r21
 b82:	6f 93       	push	r22
 b84:	7f 93       	push	r23
 b86:	8f 93       	push	r24
 b88:	9f 93       	push	r25
 b8a:	af 93       	push	r26
 b8c:	bf 93       	push	r27
 b8e:	ef 93       	push	r30
 b90:	ff 93       	push	r31
 b92:	e0 91 d3 00 	lds	r30, 0x00D3	; 0x8000d3 <UDRemptyInterruptPTR>
 b96:	f0 91 d4 00 	lds	r31, 0x00D4	; 0x8000d4 <UDRemptyInterruptPTR+0x1>
 b9a:	30 97       	sbiw	r30, 0x00	; 0
 b9c:	09 f0       	breq	.+2      	; 0xba0 <__vector_14+0x30>
 b9e:	09 95       	icall
 ba0:	ff 91       	pop	r31
 ba2:	ef 91       	pop	r30
 ba4:	bf 91       	pop	r27
 ba6:	af 91       	pop	r26
 ba8:	9f 91       	pop	r25
 baa:	8f 91       	pop	r24
 bac:	7f 91       	pop	r23
 bae:	6f 91       	pop	r22
 bb0:	5f 91       	pop	r21
 bb2:	4f 91       	pop	r20
 bb4:	3f 91       	pop	r19
 bb6:	2f 91       	pop	r18
 bb8:	0f 90       	pop	r0
 bba:	0f be       	out	0x3f, r0	; 63
 bbc:	0f 90       	pop	r0
 bbe:	1f 90       	pop	r1
 bc0:	18 95       	reti

00000bc2 <__divsf3>:
 bc2:	0e 94 f5 05 	call	0xbea	; 0xbea <__divsf3x>
 bc6:	0c 94 fa 06 	jmp	0xdf4	; 0xdf4 <__fp_round>
 bca:	0e 94 f3 06 	call	0xde6	; 0xde6 <__fp_pscB>
 bce:	58 f0       	brcs	.+22     	; 0xbe6 <__divsf3+0x24>
 bd0:	0e 94 ec 06 	call	0xdd8	; 0xdd8 <__fp_pscA>
 bd4:	40 f0       	brcs	.+16     	; 0xbe6 <__divsf3+0x24>
 bd6:	29 f4       	brne	.+10     	; 0xbe2 <__divsf3+0x20>
 bd8:	5f 3f       	cpi	r21, 0xFF	; 255
 bda:	29 f0       	breq	.+10     	; 0xbe6 <__divsf3+0x24>
 bdc:	0c 94 e3 06 	jmp	0xdc6	; 0xdc6 <__fp_inf>
 be0:	51 11       	cpse	r21, r1
 be2:	0c 94 2e 07 	jmp	0xe5c	; 0xe5c <__fp_szero>
 be6:	0c 94 e9 06 	jmp	0xdd2	; 0xdd2 <__fp_nan>

00000bea <__divsf3x>:
 bea:	0e 94 0b 07 	call	0xe16	; 0xe16 <__fp_split3>
 bee:	68 f3       	brcs	.-38     	; 0xbca <__divsf3+0x8>

00000bf0 <__divsf3_pse>:
 bf0:	99 23       	and	r25, r25
 bf2:	b1 f3       	breq	.-20     	; 0xbe0 <__divsf3+0x1e>
 bf4:	55 23       	and	r21, r21
 bf6:	91 f3       	breq	.-28     	; 0xbdc <__divsf3+0x1a>
 bf8:	95 1b       	sub	r25, r21
 bfa:	55 0b       	sbc	r21, r21
 bfc:	bb 27       	eor	r27, r27
 bfe:	aa 27       	eor	r26, r26
 c00:	62 17       	cp	r22, r18
 c02:	73 07       	cpc	r23, r19
 c04:	84 07       	cpc	r24, r20
 c06:	38 f0       	brcs	.+14     	; 0xc16 <__divsf3_pse+0x26>
 c08:	9f 5f       	subi	r25, 0xFF	; 255
 c0a:	5f 4f       	sbci	r21, 0xFF	; 255
 c0c:	22 0f       	add	r18, r18
 c0e:	33 1f       	adc	r19, r19
 c10:	44 1f       	adc	r20, r20
 c12:	aa 1f       	adc	r26, r26
 c14:	a9 f3       	breq	.-22     	; 0xc00 <__divsf3_pse+0x10>
 c16:	35 d0       	rcall	.+106    	; 0xc82 <__divsf3_pse+0x92>
 c18:	0e 2e       	mov	r0, r30
 c1a:	3a f0       	brmi	.+14     	; 0xc2a <__divsf3_pse+0x3a>
 c1c:	e0 e8       	ldi	r30, 0x80	; 128
 c1e:	32 d0       	rcall	.+100    	; 0xc84 <__divsf3_pse+0x94>
 c20:	91 50       	subi	r25, 0x01	; 1
 c22:	50 40       	sbci	r21, 0x00	; 0
 c24:	e6 95       	lsr	r30
 c26:	00 1c       	adc	r0, r0
 c28:	ca f7       	brpl	.-14     	; 0xc1c <__divsf3_pse+0x2c>
 c2a:	2b d0       	rcall	.+86     	; 0xc82 <__divsf3_pse+0x92>
 c2c:	fe 2f       	mov	r31, r30
 c2e:	29 d0       	rcall	.+82     	; 0xc82 <__divsf3_pse+0x92>
 c30:	66 0f       	add	r22, r22
 c32:	77 1f       	adc	r23, r23
 c34:	88 1f       	adc	r24, r24
 c36:	bb 1f       	adc	r27, r27
 c38:	26 17       	cp	r18, r22
 c3a:	37 07       	cpc	r19, r23
 c3c:	48 07       	cpc	r20, r24
 c3e:	ab 07       	cpc	r26, r27
 c40:	b0 e8       	ldi	r27, 0x80	; 128
 c42:	09 f0       	breq	.+2      	; 0xc46 <__divsf3_pse+0x56>
 c44:	bb 0b       	sbc	r27, r27
 c46:	80 2d       	mov	r24, r0
 c48:	bf 01       	movw	r22, r30
 c4a:	ff 27       	eor	r31, r31
 c4c:	93 58       	subi	r25, 0x83	; 131
 c4e:	5f 4f       	sbci	r21, 0xFF	; 255
 c50:	3a f0       	brmi	.+14     	; 0xc60 <__divsf3_pse+0x70>
 c52:	9e 3f       	cpi	r25, 0xFE	; 254
 c54:	51 05       	cpc	r21, r1
 c56:	78 f0       	brcs	.+30     	; 0xc76 <__divsf3_pse+0x86>
 c58:	0c 94 e3 06 	jmp	0xdc6	; 0xdc6 <__fp_inf>
 c5c:	0c 94 2e 07 	jmp	0xe5c	; 0xe5c <__fp_szero>
 c60:	5f 3f       	cpi	r21, 0xFF	; 255
 c62:	e4 f3       	brlt	.-8      	; 0xc5c <__divsf3_pse+0x6c>
 c64:	98 3e       	cpi	r25, 0xE8	; 232
 c66:	d4 f3       	brlt	.-12     	; 0xc5c <__divsf3_pse+0x6c>
 c68:	86 95       	lsr	r24
 c6a:	77 95       	ror	r23
 c6c:	67 95       	ror	r22
 c6e:	b7 95       	ror	r27
 c70:	f7 95       	ror	r31
 c72:	9f 5f       	subi	r25, 0xFF	; 255
 c74:	c9 f7       	brne	.-14     	; 0xc68 <__divsf3_pse+0x78>
 c76:	88 0f       	add	r24, r24
 c78:	91 1d       	adc	r25, r1
 c7a:	96 95       	lsr	r25
 c7c:	87 95       	ror	r24
 c7e:	97 f9       	bld	r25, 7
 c80:	08 95       	ret
 c82:	e1 e0       	ldi	r30, 0x01	; 1
 c84:	66 0f       	add	r22, r22
 c86:	77 1f       	adc	r23, r23
 c88:	88 1f       	adc	r24, r24
 c8a:	bb 1f       	adc	r27, r27
 c8c:	62 17       	cp	r22, r18
 c8e:	73 07       	cpc	r23, r19
 c90:	84 07       	cpc	r24, r20
 c92:	ba 07       	cpc	r27, r26
 c94:	20 f0       	brcs	.+8      	; 0xc9e <__divsf3_pse+0xae>
 c96:	62 1b       	sub	r22, r18
 c98:	73 0b       	sbc	r23, r19
 c9a:	84 0b       	sbc	r24, r20
 c9c:	ba 0b       	sbc	r27, r26
 c9e:	ee 1f       	adc	r30, r30
 ca0:	88 f7       	brcc	.-30     	; 0xc84 <__divsf3_pse+0x94>
 ca2:	e0 95       	com	r30
 ca4:	08 95       	ret

00000ca6 <__fixunssfsi>:
 ca6:	0e 94 13 07 	call	0xe26	; 0xe26 <__fp_splitA>
 caa:	88 f0       	brcs	.+34     	; 0xcce <__fixunssfsi+0x28>
 cac:	9f 57       	subi	r25, 0x7F	; 127
 cae:	98 f0       	brcs	.+38     	; 0xcd6 <__fixunssfsi+0x30>
 cb0:	b9 2f       	mov	r27, r25
 cb2:	99 27       	eor	r25, r25
 cb4:	b7 51       	subi	r27, 0x17	; 23
 cb6:	b0 f0       	brcs	.+44     	; 0xce4 <__fixunssfsi+0x3e>
 cb8:	e1 f0       	breq	.+56     	; 0xcf2 <__fixunssfsi+0x4c>
 cba:	66 0f       	add	r22, r22
 cbc:	77 1f       	adc	r23, r23
 cbe:	88 1f       	adc	r24, r24
 cc0:	99 1f       	adc	r25, r25
 cc2:	1a f0       	brmi	.+6      	; 0xcca <__fixunssfsi+0x24>
 cc4:	ba 95       	dec	r27
 cc6:	c9 f7       	brne	.-14     	; 0xcba <__fixunssfsi+0x14>
 cc8:	14 c0       	rjmp	.+40     	; 0xcf2 <__fixunssfsi+0x4c>
 cca:	b1 30       	cpi	r27, 0x01	; 1
 ccc:	91 f0       	breq	.+36     	; 0xcf2 <__fixunssfsi+0x4c>
 cce:	0e 94 2d 07 	call	0xe5a	; 0xe5a <__fp_zero>
 cd2:	b1 e0       	ldi	r27, 0x01	; 1
 cd4:	08 95       	ret
 cd6:	0c 94 2d 07 	jmp	0xe5a	; 0xe5a <__fp_zero>
 cda:	67 2f       	mov	r22, r23
 cdc:	78 2f       	mov	r23, r24
 cde:	88 27       	eor	r24, r24
 ce0:	b8 5f       	subi	r27, 0xF8	; 248
 ce2:	39 f0       	breq	.+14     	; 0xcf2 <__fixunssfsi+0x4c>
 ce4:	b9 3f       	cpi	r27, 0xF9	; 249
 ce6:	cc f3       	brlt	.-14     	; 0xcda <__fixunssfsi+0x34>
 ce8:	86 95       	lsr	r24
 cea:	77 95       	ror	r23
 cec:	67 95       	ror	r22
 cee:	b3 95       	inc	r27
 cf0:	d9 f7       	brne	.-10     	; 0xce8 <__fixunssfsi+0x42>
 cf2:	3e f4       	brtc	.+14     	; 0xd02 <__fixunssfsi+0x5c>
 cf4:	90 95       	com	r25
 cf6:	80 95       	com	r24
 cf8:	70 95       	com	r23
 cfa:	61 95       	neg	r22
 cfc:	7f 4f       	sbci	r23, 0xFF	; 255
 cfe:	8f 4f       	sbci	r24, 0xFF	; 255
 d00:	9f 4f       	sbci	r25, 0xFF	; 255
 d02:	08 95       	ret

00000d04 <__floatunsisf>:
 d04:	e8 94       	clt
 d06:	09 c0       	rjmp	.+18     	; 0xd1a <__floatsisf+0x12>

00000d08 <__floatsisf>:
 d08:	97 fb       	bst	r25, 7
 d0a:	3e f4       	brtc	.+14     	; 0xd1a <__floatsisf+0x12>
 d0c:	90 95       	com	r25
 d0e:	80 95       	com	r24
 d10:	70 95       	com	r23
 d12:	61 95       	neg	r22
 d14:	7f 4f       	sbci	r23, 0xFF	; 255
 d16:	8f 4f       	sbci	r24, 0xFF	; 255
 d18:	9f 4f       	sbci	r25, 0xFF	; 255
 d1a:	99 23       	and	r25, r25
 d1c:	a9 f0       	breq	.+42     	; 0xd48 <__floatsisf+0x40>
 d1e:	f9 2f       	mov	r31, r25
 d20:	96 e9       	ldi	r25, 0x96	; 150
 d22:	bb 27       	eor	r27, r27
 d24:	93 95       	inc	r25
 d26:	f6 95       	lsr	r31
 d28:	87 95       	ror	r24
 d2a:	77 95       	ror	r23
 d2c:	67 95       	ror	r22
 d2e:	b7 95       	ror	r27
 d30:	f1 11       	cpse	r31, r1
 d32:	f8 cf       	rjmp	.-16     	; 0xd24 <__floatsisf+0x1c>
 d34:	fa f4       	brpl	.+62     	; 0xd74 <__floatsisf+0x6c>
 d36:	bb 0f       	add	r27, r27
 d38:	11 f4       	brne	.+4      	; 0xd3e <__floatsisf+0x36>
 d3a:	60 ff       	sbrs	r22, 0
 d3c:	1b c0       	rjmp	.+54     	; 0xd74 <__floatsisf+0x6c>
 d3e:	6f 5f       	subi	r22, 0xFF	; 255
 d40:	7f 4f       	sbci	r23, 0xFF	; 255
 d42:	8f 4f       	sbci	r24, 0xFF	; 255
 d44:	9f 4f       	sbci	r25, 0xFF	; 255
 d46:	16 c0       	rjmp	.+44     	; 0xd74 <__floatsisf+0x6c>
 d48:	88 23       	and	r24, r24
 d4a:	11 f0       	breq	.+4      	; 0xd50 <__floatsisf+0x48>
 d4c:	96 e9       	ldi	r25, 0x96	; 150
 d4e:	11 c0       	rjmp	.+34     	; 0xd72 <__floatsisf+0x6a>
 d50:	77 23       	and	r23, r23
 d52:	21 f0       	breq	.+8      	; 0xd5c <__floatsisf+0x54>
 d54:	9e e8       	ldi	r25, 0x8E	; 142
 d56:	87 2f       	mov	r24, r23
 d58:	76 2f       	mov	r23, r22
 d5a:	05 c0       	rjmp	.+10     	; 0xd66 <__floatsisf+0x5e>
 d5c:	66 23       	and	r22, r22
 d5e:	71 f0       	breq	.+28     	; 0xd7c <__floatsisf+0x74>
 d60:	96 e8       	ldi	r25, 0x86	; 134
 d62:	86 2f       	mov	r24, r22
 d64:	70 e0       	ldi	r23, 0x00	; 0
 d66:	60 e0       	ldi	r22, 0x00	; 0
 d68:	2a f0       	brmi	.+10     	; 0xd74 <__floatsisf+0x6c>
 d6a:	9a 95       	dec	r25
 d6c:	66 0f       	add	r22, r22
 d6e:	77 1f       	adc	r23, r23
 d70:	88 1f       	adc	r24, r24
 d72:	da f7       	brpl	.-10     	; 0xd6a <__floatsisf+0x62>
 d74:	88 0f       	add	r24, r24
 d76:	96 95       	lsr	r25
 d78:	87 95       	ror	r24
 d7a:	97 f9       	bld	r25, 7
 d7c:	08 95       	ret

00000d7e <__fp_cmp>:
 d7e:	99 0f       	add	r25, r25
 d80:	00 08       	sbc	r0, r0
 d82:	55 0f       	add	r21, r21
 d84:	aa 0b       	sbc	r26, r26
 d86:	e0 e8       	ldi	r30, 0x80	; 128
 d88:	fe ef       	ldi	r31, 0xFE	; 254
 d8a:	16 16       	cp	r1, r22
 d8c:	17 06       	cpc	r1, r23
 d8e:	e8 07       	cpc	r30, r24
 d90:	f9 07       	cpc	r31, r25
 d92:	c0 f0       	brcs	.+48     	; 0xdc4 <__fp_cmp+0x46>
 d94:	12 16       	cp	r1, r18
 d96:	13 06       	cpc	r1, r19
 d98:	e4 07       	cpc	r30, r20
 d9a:	f5 07       	cpc	r31, r21
 d9c:	98 f0       	brcs	.+38     	; 0xdc4 <__fp_cmp+0x46>
 d9e:	62 1b       	sub	r22, r18
 da0:	73 0b       	sbc	r23, r19
 da2:	84 0b       	sbc	r24, r20
 da4:	95 0b       	sbc	r25, r21
 da6:	39 f4       	brne	.+14     	; 0xdb6 <__fp_cmp+0x38>
 da8:	0a 26       	eor	r0, r26
 daa:	61 f0       	breq	.+24     	; 0xdc4 <__fp_cmp+0x46>
 dac:	23 2b       	or	r18, r19
 dae:	24 2b       	or	r18, r20
 db0:	25 2b       	or	r18, r21
 db2:	21 f4       	brne	.+8      	; 0xdbc <__fp_cmp+0x3e>
 db4:	08 95       	ret
 db6:	0a 26       	eor	r0, r26
 db8:	09 f4       	brne	.+2      	; 0xdbc <__fp_cmp+0x3e>
 dba:	a1 40       	sbci	r26, 0x01	; 1
 dbc:	a6 95       	lsr	r26
 dbe:	8f ef       	ldi	r24, 0xFF	; 255
 dc0:	81 1d       	adc	r24, r1
 dc2:	81 1d       	adc	r24, r1
 dc4:	08 95       	ret

00000dc6 <__fp_inf>:
 dc6:	97 f9       	bld	r25, 7
 dc8:	9f 67       	ori	r25, 0x7F	; 127
 dca:	80 e8       	ldi	r24, 0x80	; 128
 dcc:	70 e0       	ldi	r23, 0x00	; 0
 dce:	60 e0       	ldi	r22, 0x00	; 0
 dd0:	08 95       	ret

00000dd2 <__fp_nan>:
 dd2:	9f ef       	ldi	r25, 0xFF	; 255
 dd4:	80 ec       	ldi	r24, 0xC0	; 192
 dd6:	08 95       	ret

00000dd8 <__fp_pscA>:
 dd8:	00 24       	eor	r0, r0
 dda:	0a 94       	dec	r0
 ddc:	16 16       	cp	r1, r22
 dde:	17 06       	cpc	r1, r23
 de0:	18 06       	cpc	r1, r24
 de2:	09 06       	cpc	r0, r25
 de4:	08 95       	ret

00000de6 <__fp_pscB>:
 de6:	00 24       	eor	r0, r0
 de8:	0a 94       	dec	r0
 dea:	12 16       	cp	r1, r18
 dec:	13 06       	cpc	r1, r19
 dee:	14 06       	cpc	r1, r20
 df0:	05 06       	cpc	r0, r21
 df2:	08 95       	ret

00000df4 <__fp_round>:
 df4:	09 2e       	mov	r0, r25
 df6:	03 94       	inc	r0
 df8:	00 0c       	add	r0, r0
 dfa:	11 f4       	brne	.+4      	; 0xe00 <__fp_round+0xc>
 dfc:	88 23       	and	r24, r24
 dfe:	52 f0       	brmi	.+20     	; 0xe14 <__fp_round+0x20>
 e00:	bb 0f       	add	r27, r27
 e02:	40 f4       	brcc	.+16     	; 0xe14 <__fp_round+0x20>
 e04:	bf 2b       	or	r27, r31
 e06:	11 f4       	brne	.+4      	; 0xe0c <__fp_round+0x18>
 e08:	60 ff       	sbrs	r22, 0
 e0a:	04 c0       	rjmp	.+8      	; 0xe14 <__fp_round+0x20>
 e0c:	6f 5f       	subi	r22, 0xFF	; 255
 e0e:	7f 4f       	sbci	r23, 0xFF	; 255
 e10:	8f 4f       	sbci	r24, 0xFF	; 255
 e12:	9f 4f       	sbci	r25, 0xFF	; 255
 e14:	08 95       	ret

00000e16 <__fp_split3>:
 e16:	57 fd       	sbrc	r21, 7
 e18:	90 58       	subi	r25, 0x80	; 128
 e1a:	44 0f       	add	r20, r20
 e1c:	55 1f       	adc	r21, r21
 e1e:	59 f0       	breq	.+22     	; 0xe36 <__fp_splitA+0x10>
 e20:	5f 3f       	cpi	r21, 0xFF	; 255
 e22:	71 f0       	breq	.+28     	; 0xe40 <__fp_splitA+0x1a>
 e24:	47 95       	ror	r20

00000e26 <__fp_splitA>:
 e26:	88 0f       	add	r24, r24
 e28:	97 fb       	bst	r25, 7
 e2a:	99 1f       	adc	r25, r25
 e2c:	61 f0       	breq	.+24     	; 0xe46 <__fp_splitA+0x20>
 e2e:	9f 3f       	cpi	r25, 0xFF	; 255
 e30:	79 f0       	breq	.+30     	; 0xe50 <__fp_splitA+0x2a>
 e32:	87 95       	ror	r24
 e34:	08 95       	ret
 e36:	12 16       	cp	r1, r18
 e38:	13 06       	cpc	r1, r19
 e3a:	14 06       	cpc	r1, r20
 e3c:	55 1f       	adc	r21, r21
 e3e:	f2 cf       	rjmp	.-28     	; 0xe24 <__fp_split3+0xe>
 e40:	46 95       	lsr	r20
 e42:	f1 df       	rcall	.-30     	; 0xe26 <__fp_splitA>
 e44:	08 c0       	rjmp	.+16     	; 0xe56 <__fp_splitA+0x30>
 e46:	16 16       	cp	r1, r22
 e48:	17 06       	cpc	r1, r23
 e4a:	18 06       	cpc	r1, r24
 e4c:	99 1f       	adc	r25, r25
 e4e:	f1 cf       	rjmp	.-30     	; 0xe32 <__fp_splitA+0xc>
 e50:	86 95       	lsr	r24
 e52:	71 05       	cpc	r23, r1
 e54:	61 05       	cpc	r22, r1
 e56:	08 94       	sec
 e58:	08 95       	ret

00000e5a <__fp_zero>:
 e5a:	e8 94       	clt

00000e5c <__fp_szero>:
 e5c:	bb 27       	eor	r27, r27
 e5e:	66 27       	eor	r22, r22
 e60:	77 27       	eor	r23, r23
 e62:	cb 01       	movw	r24, r22
 e64:	97 f9       	bld	r25, 7
 e66:	08 95       	ret

00000e68 <__gesf2>:
 e68:	0e 94 bf 06 	call	0xd7e	; 0xd7e <__fp_cmp>
 e6c:	08 f4       	brcc	.+2      	; 0xe70 <__gesf2+0x8>
 e6e:	8f ef       	ldi	r24, 0xFF	; 255
 e70:	08 95       	ret

00000e72 <__mulsf3>:
 e72:	0e 94 4c 07 	call	0xe98	; 0xe98 <__mulsf3x>
 e76:	0c 94 fa 06 	jmp	0xdf4	; 0xdf4 <__fp_round>
 e7a:	0e 94 ec 06 	call	0xdd8	; 0xdd8 <__fp_pscA>
 e7e:	38 f0       	brcs	.+14     	; 0xe8e <__mulsf3+0x1c>
 e80:	0e 94 f3 06 	call	0xde6	; 0xde6 <__fp_pscB>
 e84:	20 f0       	brcs	.+8      	; 0xe8e <__mulsf3+0x1c>
 e86:	95 23       	and	r25, r21
 e88:	11 f0       	breq	.+4      	; 0xe8e <__mulsf3+0x1c>
 e8a:	0c 94 e3 06 	jmp	0xdc6	; 0xdc6 <__fp_inf>
 e8e:	0c 94 e9 06 	jmp	0xdd2	; 0xdd2 <__fp_nan>
 e92:	11 24       	eor	r1, r1
 e94:	0c 94 2e 07 	jmp	0xe5c	; 0xe5c <__fp_szero>

00000e98 <__mulsf3x>:
 e98:	0e 94 0b 07 	call	0xe16	; 0xe16 <__fp_split3>
 e9c:	70 f3       	brcs	.-36     	; 0xe7a <__mulsf3+0x8>

00000e9e <__mulsf3_pse>:
 e9e:	95 9f       	mul	r25, r21
 ea0:	c1 f3       	breq	.-16     	; 0xe92 <__mulsf3+0x20>
 ea2:	95 0f       	add	r25, r21
 ea4:	50 e0       	ldi	r21, 0x00	; 0
 ea6:	55 1f       	adc	r21, r21
 ea8:	62 9f       	mul	r22, r18
 eaa:	f0 01       	movw	r30, r0
 eac:	72 9f       	mul	r23, r18
 eae:	bb 27       	eor	r27, r27
 eb0:	f0 0d       	add	r31, r0
 eb2:	b1 1d       	adc	r27, r1
 eb4:	63 9f       	mul	r22, r19
 eb6:	aa 27       	eor	r26, r26
 eb8:	f0 0d       	add	r31, r0
 eba:	b1 1d       	adc	r27, r1
 ebc:	aa 1f       	adc	r26, r26
 ebe:	64 9f       	mul	r22, r20
 ec0:	66 27       	eor	r22, r22
 ec2:	b0 0d       	add	r27, r0
 ec4:	a1 1d       	adc	r26, r1
 ec6:	66 1f       	adc	r22, r22
 ec8:	82 9f       	mul	r24, r18
 eca:	22 27       	eor	r18, r18
 ecc:	b0 0d       	add	r27, r0
 ece:	a1 1d       	adc	r26, r1
 ed0:	62 1f       	adc	r22, r18
 ed2:	73 9f       	mul	r23, r19
 ed4:	b0 0d       	add	r27, r0
 ed6:	a1 1d       	adc	r26, r1
 ed8:	62 1f       	adc	r22, r18
 eda:	83 9f       	mul	r24, r19
 edc:	a0 0d       	add	r26, r0
 ede:	61 1d       	adc	r22, r1
 ee0:	22 1f       	adc	r18, r18
 ee2:	74 9f       	mul	r23, r20
 ee4:	33 27       	eor	r19, r19
 ee6:	a0 0d       	add	r26, r0
 ee8:	61 1d       	adc	r22, r1
 eea:	23 1f       	adc	r18, r19
 eec:	84 9f       	mul	r24, r20
 eee:	60 0d       	add	r22, r0
 ef0:	21 1d       	adc	r18, r1
 ef2:	82 2f       	mov	r24, r18
 ef4:	76 2f       	mov	r23, r22
 ef6:	6a 2f       	mov	r22, r26
 ef8:	11 24       	eor	r1, r1
 efa:	9f 57       	subi	r25, 0x7F	; 127
 efc:	50 40       	sbci	r21, 0x00	; 0
 efe:	9a f0       	brmi	.+38     	; 0xf26 <__mulsf3_pse+0x88>
 f00:	f1 f0       	breq	.+60     	; 0xf3e <__mulsf3_pse+0xa0>
 f02:	88 23       	and	r24, r24
 f04:	4a f0       	brmi	.+18     	; 0xf18 <__mulsf3_pse+0x7a>
 f06:	ee 0f       	add	r30, r30
 f08:	ff 1f       	adc	r31, r31
 f0a:	bb 1f       	adc	r27, r27
 f0c:	66 1f       	adc	r22, r22
 f0e:	77 1f       	adc	r23, r23
 f10:	88 1f       	adc	r24, r24
 f12:	91 50       	subi	r25, 0x01	; 1
 f14:	50 40       	sbci	r21, 0x00	; 0
 f16:	a9 f7       	brne	.-22     	; 0xf02 <__mulsf3_pse+0x64>
 f18:	9e 3f       	cpi	r25, 0xFE	; 254
 f1a:	51 05       	cpc	r21, r1
 f1c:	80 f0       	brcs	.+32     	; 0xf3e <__mulsf3_pse+0xa0>
 f1e:	0c 94 e3 06 	jmp	0xdc6	; 0xdc6 <__fp_inf>
 f22:	0c 94 2e 07 	jmp	0xe5c	; 0xe5c <__fp_szero>
 f26:	5f 3f       	cpi	r21, 0xFF	; 255
 f28:	e4 f3       	brlt	.-8      	; 0xf22 <__mulsf3_pse+0x84>
 f2a:	98 3e       	cpi	r25, 0xE8	; 232
 f2c:	d4 f3       	brlt	.-12     	; 0xf22 <__mulsf3_pse+0x84>
 f2e:	86 95       	lsr	r24
 f30:	77 95       	ror	r23
 f32:	67 95       	ror	r22
 f34:	b7 95       	ror	r27
 f36:	f7 95       	ror	r31
 f38:	e7 95       	ror	r30
 f3a:	9f 5f       	subi	r25, 0xFF	; 255
 f3c:	c1 f7       	brne	.-16     	; 0xf2e <__mulsf3_pse+0x90>
 f3e:	fe 2b       	or	r31, r30
 f40:	88 0f       	add	r24, r24
 f42:	91 1d       	adc	r25, r1
 f44:	96 95       	lsr	r25
 f46:	87 95       	ror	r24
 f48:	97 f9       	bld	r25, 7
 f4a:	08 95       	ret

00000f4c <__udivmodsi4>:
 f4c:	a1 e2       	ldi	r26, 0x21	; 33
 f4e:	1a 2e       	mov	r1, r26
 f50:	aa 1b       	sub	r26, r26
 f52:	bb 1b       	sub	r27, r27
 f54:	fd 01       	movw	r30, r26
 f56:	0d c0       	rjmp	.+26     	; 0xf72 <__udivmodsi4_ep>

00000f58 <__udivmodsi4_loop>:
 f58:	aa 1f       	adc	r26, r26
 f5a:	bb 1f       	adc	r27, r27
 f5c:	ee 1f       	adc	r30, r30
 f5e:	ff 1f       	adc	r31, r31
 f60:	a2 17       	cp	r26, r18
 f62:	b3 07       	cpc	r27, r19
 f64:	e4 07       	cpc	r30, r20
 f66:	f5 07       	cpc	r31, r21
 f68:	20 f0       	brcs	.+8      	; 0xf72 <__udivmodsi4_ep>
 f6a:	a2 1b       	sub	r26, r18
 f6c:	b3 0b       	sbc	r27, r19
 f6e:	e4 0b       	sbc	r30, r20
 f70:	f5 0b       	sbc	r31, r21

00000f72 <__udivmodsi4_ep>:
 f72:	66 1f       	adc	r22, r22
 f74:	77 1f       	adc	r23, r23
 f76:	88 1f       	adc	r24, r24
 f78:	99 1f       	adc	r25, r25
 f7a:	1a 94       	dec	r1
 f7c:	69 f7       	brne	.-38     	; 0xf58 <__udivmodsi4_loop>
 f7e:	60 95       	com	r22
 f80:	70 95       	com	r23
 f82:	80 95       	com	r24
 f84:	90 95       	com	r25
 f86:	9b 01       	movw	r18, r22
 f88:	ac 01       	movw	r20, r24
 f8a:	bd 01       	movw	r22, r26
 f8c:	cf 01       	movw	r24, r30
 f8e:	08 95       	ret

00000f90 <_exit>:
 f90:	f8 94       	cli

00000f92 <__stop_program>:
 f92:	ff cf       	rjmp	.-2      	; 0xf92 <__stop_program>
