
atmega32_ECU.elf:     file format elf32-avr

Sections:
Idx Name          Size      VMA       LMA       File off  Algn
  0 .text         00000f50  00000000  00000000  00000094  2**1
                  CONTENTS, ALLOC, LOAD, READONLY, CODE
  1 .data         00000020  00800060  00000f50  00000fe4  2**0
                  CONTENTS, ALLOC, LOAD, DATA
  2 .bss          00000020  00800080  00800080  00001004  2**0
                  ALLOC
  3 .comment      00000030  00000000  00000000  00001004  2**0
                  CONTENTS, READONLY
  4 .note.gnu.avr.deviceinfo 0000003c  00000000  00000000  00001034  2**2
                  CONTENTS, READONLY
  5 .debug_info   000004e6  00000000  00000000  00001070  2**0
                  CONTENTS, READONLY, DEBUGGING
  6 .debug_abbrev 000004a3  00000000  00000000  00001556  2**0
                  CONTENTS, READONLY, DEBUGGING
  7 .debug_line   00000116  00000000  00000000  000019f9  2**0
                  CONTENTS, READONLY, DEBUGGING
  8 .debug_str    00000196  00000000  00000000  00001b0f  2**0
                  CONTENTS, READONLY, DEBUGGING

Disassembly of section .text:

00000000 <__vectors>:
   0:	0c 94 2a 00 	jmp	0x54	; 0x54 <__ctors_end>
   4:	0c 94 91 05 	jmp	0xb22	; 0xb22 <__vector_1>
   8:	0c 94 ba 05 	jmp	0xb74	; 0xb74 <__vector_2>
   c:	0c 94 e3 05 	jmp	0xbc6	; 0xbc6 <__vector_3>
  10:	0c 94 47 00 	jmp	0x8e	; 0x8e <__bad_interrupt>
  14:	0c 94 47 00 	jmp	0x8e	; 0x8e <__bad_interrupt>
  18:	0c 94 02 07 	jmp	0xe04	; 0xe04 <__vector_6>
  1c:	0c 94 87 06 	jmp	0xd0e	; 0xd0e <__vector_7>
  20:	0c 94 b0 06 	jmp	0xd60	; 0xd60 <__vector_8>
  24:	0c 94 d9 06 	jmp	0xdb2	; 0xdb2 <__vector_9>
  28:	0c 94 35 06 	jmp	0xc6a	; 0xc6a <__vector_10>
  2c:	0c 94 5e 06 	jmp	0xcbc	; 0xcbc <__vector_11>
  30:	0c 94 0c 06 	jmp	0xc18	; 0xc18 <__vector_12>
  34:	0c 94 2b 07 	jmp	0xe56	; 0xe56 <__vector_13>
  38:	0c 94 7d 07 	jmp	0xefa	; 0xefa <__vector_14>
  3c:	0c 94 54 07 	jmp	0xea8	; 0xea8 <__vector_15>
  40:	0c 94 0e 04 	jmp	0x81c	; 0x81c <__vector_16>
  44:	0c 94 47 00 	jmp	0x8e	; 0x8e <__bad_interrupt>
  48:	0c 94 47 00 	jmp	0x8e	; 0x8e <__bad_interrupt>
  4c:	0c 94 47 00 	jmp	0x8e	; 0x8e <__bad_interrupt>
  50:	0c 94 47 00 	jmp	0x8e	; 0x8e <__bad_interrupt>

00000054 <__ctors_end>:
  54:	11 24       	eor	r1, r1
  56:	1f be       	out	0x3f, r1	; 63
  58:	cf e5       	ldi	r28, 0x5F	; 95
  5a:	d8 e0       	ldi	r29, 0x08	; 8
  5c:	de bf       	out	0x3e, r29	; 62
  5e:	cd bf       	out	0x3d, r28	; 61

00000060 <__do_copy_data>:
  60:	10 e0       	ldi	r17, 0x00	; 0
  62:	a0 e6       	ldi	r26, 0x60	; 96
  64:	b0 e0       	ldi	r27, 0x00	; 0
  66:	e0 e5       	ldi	r30, 0x50	; 80
  68:	ff e0       	ldi	r31, 0x0F	; 15
  6a:	02 c0       	rjmp	.+4      	; 0x70 <__do_copy_data+0x10>
  6c:	05 90       	lpm	r0, Z+
  6e:	0d 92       	st	X+, r0
  70:	a0 38       	cpi	r26, 0x80	; 128
  72:	b1 07       	cpc	r27, r17
  74:	d9 f7       	brne	.-10     	; 0x6c <__do_copy_data+0xc>

00000076 <__do_clear_bss>:
  76:	20 e0       	ldi	r18, 0x00	; 0
  78:	a0 e8       	ldi	r26, 0x80	; 128
  7a:	b0 e0       	ldi	r27, 0x00	; 0
  7c:	01 c0       	rjmp	.+2      	; 0x80 <.do_clear_bss_start>

0000007e <.do_clear_bss_loop>:
  7e:	1d 92       	st	X+, r1

00000080 <.do_clear_bss_start>:
  80:	a0 3a       	cpi	r26, 0xA0	; 160
  82:	b2 07       	cpc	r27, r18
  84:	e1 f7       	brne	.-8      	; 0x7e <.do_clear_bss_loop>
  86:	0e 94 c7 03 	call	0x78e	; 0x78e <main>
  8a:	0c 94 a6 07 	jmp	0xf4c	; 0xf4c <_exit>

0000008e <__bad_interrupt>:
  8e:	0c 94 00 00 	jmp	0	; 0x0 <__vectors>

00000092 <STEPPER3>:
  92:	9f 92       	push	r9
  94:	af 92       	push	r10
  96:	bf 92       	push	r11
  98:	cf 92       	push	r12
  9a:	df 92       	push	r13
  9c:	ef 92       	push	r14
  9e:	ff 92       	push	r15
  a0:	0f 93       	push	r16
  a2:	1f 93       	push	r17
  a4:	cf 93       	push	r28
  a6:	df 93       	push	r29
  a8:	6b 01       	movw	r12, r22
  aa:	7c 01       	movw	r14, r24
  ac:	80 91 82 00 	lds	r24, 0x0082	; 0x800082 <startFlag>
  b0:	f7 fc       	sbrc	r15, 7
  b2:	b4 c1       	rjmp	.+872    	; 0x41c <__EEPROM_REGION_LENGTH__+0x1c>
  b4:	81 11       	cpse	r24, r1
  b6:	0a c0       	rjmp	.+20     	; 0xcc <STEPPER3+0x3a>
  b8:	81 e0       	ldi	r24, 0x01	; 1
  ba:	80 93 81 00 	sts	0x0081, r24	; 0x800081 <presentState>
  be:	80 93 80 00 	sts	0x0080, r24	; 0x800080 <__data_end>
  c2:	80 93 82 00 	sts	0x0082, r24	; 0x800082 <startFlag>
  c6:	80 93 83 00 	sts	0x0083, r24	; 0x800083 <phaseFlag>
  ca:	07 c0       	rjmp	.+14     	; 0xda <STEPPER3+0x48>
  cc:	80 91 81 00 	lds	r24, 0x0081	; 0x800081 <presentState>
  d0:	80 93 80 00 	sts	0x0080, r24	; 0x800080 <__data_end>
  d4:	81 e0       	ldi	r24, 0x01	; 1
  d6:	80 93 81 00 	sts	0x0081, r24	; 0x800081 <presentState>
  da:	80 91 80 00 	lds	r24, 0x0080	; 0x800080 <__data_end>
  de:	81 11       	cpse	r24, r1
  e0:	0f c0       	rjmp	.+30     	; 0x100 <STEPPER3+0x6e>
  e2:	80 91 83 00 	lds	r24, 0x0083	; 0x800083 <phaseFlag>
  e6:	86 30       	cpi	r24, 0x06	; 6
  e8:	11 f4       	brne	.+4      	; 0xee <STEPPER3+0x5c>
  ea:	88 e0       	ldi	r24, 0x08	; 8
  ec:	07 c0       	rjmp	.+14     	; 0xfc <STEPPER3+0x6a>
  ee:	85 30       	cpi	r24, 0x05	; 5
  f0:	11 f4       	brne	.+4      	; 0xf6 <STEPPER3+0x64>
  f2:	87 e0       	ldi	r24, 0x07	; 7
  f4:	03 c0       	rjmp	.+6      	; 0xfc <STEPPER3+0x6a>
  f6:	84 30       	cpi	r24, 0x04	; 4
  f8:	71 f4       	brne	.+28     	; 0x116 <STEPPER3+0x84>
  fa:	86 e0       	ldi	r24, 0x06	; 6
  fc:	80 93 83 00 	sts	0x0083, r24	; 0x800083 <phaseFlag>
 100:	c8 e0       	ldi	r28, 0x08	; 8
 102:	d2 e0       	ldi	r29, 0x02	; 2
 104:	13 e0       	ldi	r17, 0x03	; 3
 106:	04 e0       	ldi	r16, 0x04	; 4
 108:	35 e0       	ldi	r19, 0x05	; 5
 10a:	b3 2e       	mov	r11, r19
 10c:	46 e0       	ldi	r20, 0x06	; 6
 10e:	a4 2e       	mov	r10, r20
 110:	57 e0       	ldi	r21, 0x07	; 7
 112:	95 2e       	mov	r9, r21
 114:	3b c0       	rjmp	.+118    	; 0x18c <STEPPER3+0xfa>
 116:	83 30       	cpi	r24, 0x03	; 3
 118:	11 f4       	brne	.+4      	; 0x11e <STEPPER3+0x8c>
 11a:	85 e0       	ldi	r24, 0x05	; 5
 11c:	ef cf       	rjmp	.-34     	; 0xfc <STEPPER3+0x6a>
 11e:	82 30       	cpi	r24, 0x02	; 2
 120:	11 f4       	brne	.+4      	; 0x126 <STEPPER3+0x94>
 122:	84 e0       	ldi	r24, 0x04	; 4
 124:	eb cf       	rjmp	.-42     	; 0xfc <STEPPER3+0x6a>
 126:	81 30       	cpi	r24, 0x01	; 1
 128:	11 f4       	brne	.+4      	; 0x12e <STEPPER3+0x9c>
 12a:	83 e0       	ldi	r24, 0x03	; 3
 12c:	e7 cf       	rjmp	.-50     	; 0xfc <STEPPER3+0x6a>
 12e:	88 30       	cpi	r24, 0x08	; 8
 130:	11 f4       	brne	.+4      	; 0x136 <STEPPER3+0xa4>
 132:	82 e0       	ldi	r24, 0x02	; 2
 134:	e3 cf       	rjmp	.-58     	; 0xfc <STEPPER3+0x6a>
 136:	87 30       	cpi	r24, 0x07	; 7
 138:	19 f7       	brne	.-58     	; 0x100 <STEPPER3+0x6e>
 13a:	81 e0       	ldi	r24, 0x01	; 1
 13c:	df cf       	rjmp	.-66     	; 0xfc <STEPPER3+0x6a>
 13e:	80 91 83 00 	lds	r24, 0x0083	; 0x800083 <phaseFlag>
 142:	81 30       	cpi	r24, 0x01	; 1
 144:	51 f1       	breq	.+84     	; 0x19a <STEPPER3+0x108>
 146:	80 91 83 00 	lds	r24, 0x0083	; 0x800083 <phaseFlag>
 14a:	82 30       	cpi	r24, 0x02	; 2
 14c:	09 f4       	brne	.+2      	; 0x150 <STEPPER3+0xbe>
 14e:	4d c0       	rjmp	.+154    	; 0x1ea <STEPPER3+0x158>
 150:	80 91 83 00 	lds	r24, 0x0083	; 0x800083 <phaseFlag>
 154:	83 30       	cpi	r24, 0x03	; 3
 156:	09 f4       	brne	.+2      	; 0x15a <STEPPER3+0xc8>
 158:	70 c0       	rjmp	.+224    	; 0x23a <STEPPER3+0x1a8>
 15a:	80 91 83 00 	lds	r24, 0x0083	; 0x800083 <phaseFlag>
 15e:	84 30       	cpi	r24, 0x04	; 4
 160:	09 f4       	brne	.+2      	; 0x164 <STEPPER3+0xd2>
 162:	93 c0       	rjmp	.+294    	; 0x28a <STEPPER3+0x1f8>
 164:	80 91 83 00 	lds	r24, 0x0083	; 0x800083 <phaseFlag>
 168:	85 30       	cpi	r24, 0x05	; 5
 16a:	09 f4       	brne	.+2      	; 0x16e <STEPPER3+0xdc>
 16c:	b6 c0       	rjmp	.+364    	; 0x2da <STEPPER3+0x248>
 16e:	80 91 83 00 	lds	r24, 0x0083	; 0x800083 <phaseFlag>
 172:	86 30       	cpi	r24, 0x06	; 6
 174:	09 f4       	brne	.+2      	; 0x178 <STEPPER3+0xe6>
 176:	d9 c0       	rjmp	.+434    	; 0x32a <STEPPER3+0x298>
 178:	80 91 83 00 	lds	r24, 0x0083	; 0x800083 <phaseFlag>
 17c:	87 30       	cpi	r24, 0x07	; 7
 17e:	09 f4       	brne	.+2      	; 0x182 <STEPPER3+0xf0>
 180:	fc c0       	rjmp	.+504    	; 0x37a <STEPPER3+0x2e8>
 182:	80 91 83 00 	lds	r24, 0x0083	; 0x800083 <phaseFlag>
 186:	88 30       	cpi	r24, 0x08	; 8
 188:	09 f4       	brne	.+2      	; 0x18c <STEPPER3+0xfa>
 18a:	1f c1       	rjmp	.+574    	; 0x3ca <STEPPER3+0x338>
 18c:	85 e0       	ldi	r24, 0x05	; 5
 18e:	c8 16       	cp	r12, r24
 190:	d1 04       	cpc	r13, r1
 192:	e1 04       	cpc	r14, r1
 194:	f1 04       	cpc	r15, r1
 196:	9c f6       	brge	.-90     	; 0x13e <STEPPER3+0xac>
 198:	ee c2       	rjmp	.+1500   	; 0x776 <__EEPROM_REGION_LENGTH__+0x376>
 19a:	60 e0       	ldi	r22, 0x00	; 0
 19c:	80 e1       	ldi	r24, 0x10	; 16
 19e:	0e 94 16 05 	call	0xa2c	; 0xa2c <DIO_WritePin>
 1a2:	60 e0       	ldi	r22, 0x00	; 0
 1a4:	81 e1       	ldi	r24, 0x11	; 17
 1a6:	0e 94 16 05 	call	0xa2c	; 0xa2c <DIO_WritePin>
 1aa:	60 e0       	ldi	r22, 0x00	; 0
 1ac:	82 e1       	ldi	r24, 0x12	; 18
 1ae:	0e 94 16 05 	call	0xa2c	; 0xa2c <DIO_WritePin>
 1b2:	61 e0       	ldi	r22, 0x01	; 1
 1b4:	83 e1       	ldi	r24, 0x13	; 19
 1b6:	0e 94 16 05 	call	0xa2c	; 0xa2c <DIO_WritePin>
 1ba:	2f e7       	ldi	r18, 0x7F	; 127
 1bc:	88 e3       	ldi	r24, 0x38	; 56
 1be:	91 e0       	ldi	r25, 0x01	; 1
 1c0:	21 50       	subi	r18, 0x01	; 1
 1c2:	80 40       	sbci	r24, 0x00	; 0
 1c4:	90 40       	sbci	r25, 0x00	; 0
 1c6:	e1 f7       	brne	.-8      	; 0x1c0 <STEPPER3+0x12e>
 1c8:	00 c0       	rjmp	.+0      	; 0x1ca <STEPPER3+0x138>
 1ca:	00 00       	nop
 1cc:	d0 93 83 00 	sts	0x0083, r29	; 0x800083 <phaseFlag>
 1d0:	25 e0       	ldi	r18, 0x05	; 5
 1d2:	c2 1a       	sub	r12, r18
 1d4:	d1 08       	sbc	r13, r1
 1d6:	e1 08       	sbc	r14, r1
 1d8:	f1 08       	sbc	r15, r1
 1da:	85 e0       	ldi	r24, 0x05	; 5
 1dc:	c8 16       	cp	r12, r24
 1de:	d1 04       	cpc	r13, r1
 1e0:	e1 04       	cpc	r14, r1
 1e2:	f1 04       	cpc	r15, r1
 1e4:	0c f0       	brlt	.+2      	; 0x1e8 <STEPPER3+0x156>
 1e6:	af cf       	rjmp	.-162    	; 0x146 <STEPPER3+0xb4>
 1e8:	c6 c2       	rjmp	.+1420   	; 0x776 <__EEPROM_REGION_LENGTH__+0x376>
 1ea:	60 e0       	ldi	r22, 0x00	; 0
 1ec:	80 e1       	ldi	r24, 0x10	; 16
 1ee:	0e 94 16 05 	call	0xa2c	; 0xa2c <DIO_WritePin>
 1f2:	60 e0       	ldi	r22, 0x00	; 0
 1f4:	81 e1       	ldi	r24, 0x11	; 17
 1f6:	0e 94 16 05 	call	0xa2c	; 0xa2c <DIO_WritePin>
 1fa:	61 e0       	ldi	r22, 0x01	; 1
 1fc:	82 e1       	ldi	r24, 0x12	; 18
 1fe:	0e 94 16 05 	call	0xa2c	; 0xa2c <DIO_WritePin>
 202:	61 e0       	ldi	r22, 0x01	; 1
 204:	83 e1       	ldi	r24, 0x13	; 19
 206:	0e 94 16 05 	call	0xa2c	; 0xa2c <DIO_WritePin>
 20a:	9f e7       	ldi	r25, 0x7F	; 127
 20c:	28 e3       	ldi	r18, 0x38	; 56
 20e:	81 e0       	ldi	r24, 0x01	; 1
 210:	91 50       	subi	r25, 0x01	; 1
 212:	20 40       	sbci	r18, 0x00	; 0
 214:	80 40       	sbci	r24, 0x00	; 0
 216:	e1 f7       	brne	.-8      	; 0x210 <STEPPER3+0x17e>
 218:	00 c0       	rjmp	.+0      	; 0x21a <STEPPER3+0x188>
 21a:	00 00       	nop
 21c:	10 93 83 00 	sts	0x0083, r17	; 0x800083 <phaseFlag>
 220:	95 e0       	ldi	r25, 0x05	; 5
 222:	c9 1a       	sub	r12, r25
 224:	d1 08       	sbc	r13, r1
 226:	e1 08       	sbc	r14, r1
 228:	f1 08       	sbc	r15, r1
 22a:	25 e0       	ldi	r18, 0x05	; 5
 22c:	c2 16       	cp	r12, r18
 22e:	d1 04       	cpc	r13, r1
 230:	e1 04       	cpc	r14, r1
 232:	f1 04       	cpc	r15, r1
 234:	0c f0       	brlt	.+2      	; 0x238 <STEPPER3+0x1a6>
 236:	8c cf       	rjmp	.-232    	; 0x150 <STEPPER3+0xbe>
 238:	9e c2       	rjmp	.+1340   	; 0x776 <__EEPROM_REGION_LENGTH__+0x376>
 23a:	60 e0       	ldi	r22, 0x00	; 0
 23c:	80 e1       	ldi	r24, 0x10	; 16
 23e:	0e 94 16 05 	call	0xa2c	; 0xa2c <DIO_WritePin>
 242:	60 e0       	ldi	r22, 0x00	; 0
 244:	81 e1       	ldi	r24, 0x11	; 17
 246:	0e 94 16 05 	call	0xa2c	; 0xa2c <DIO_WritePin>
 24a:	61 e0       	ldi	r22, 0x01	; 1
 24c:	82 e1       	ldi	r24, 0x12	; 18
 24e:	0e 94 16 05 	call	0xa2c	; 0xa2c <DIO_WritePin>
 252:	60 e0       	ldi	r22, 0x00	; 0
 254:	83 e1       	ldi	r24, 0x13	; 19
 256:	0e 94 16 05 	call	0xa2c	; 0xa2c <DIO_WritePin>
 25a:	8f e7       	ldi	r24, 0x7F	; 127
 25c:	98 e3       	ldi	r25, 0x38	; 56
 25e:	21 e0       	ldi	r18, 0x01	; 1
 260:	81 50       	subi	r24, 0x01	; 1
 262:	90 40       	sbci	r25, 0x00	; 0
 264:	20 40       	sbci	r18, 0x00	; 0
 266:	e1 f7       	brne	.-8      	; 0x260 <STEPPER3+0x1ce>
 268:	00 c0       	rjmp	.+0      	; 0x26a <STEPPER3+0x1d8>
 26a:	00 00       	nop
 26c:	00 93 83 00 	sts	0x0083, r16	; 0x800083 <phaseFlag>
 270:	85 e0       	ldi	r24, 0x05	; 5
 272:	c8 1a       	sub	r12, r24
 274:	d1 08       	sbc	r13, r1
 276:	e1 08       	sbc	r14, r1
 278:	f1 08       	sbc	r15, r1
 27a:	95 e0       	ldi	r25, 0x05	; 5
 27c:	c9 16       	cp	r12, r25
 27e:	d1 04       	cpc	r13, r1
 280:	e1 04       	cpc	r14, r1
 282:	f1 04       	cpc	r15, r1
 284:	0c f0       	brlt	.+2      	; 0x288 <STEPPER3+0x1f6>
 286:	69 cf       	rjmp	.-302    	; 0x15a <STEPPER3+0xc8>
 288:	76 c2       	rjmp	.+1260   	; 0x776 <__EEPROM_REGION_LENGTH__+0x376>
 28a:	60 e0       	ldi	r22, 0x00	; 0
 28c:	80 e1       	ldi	r24, 0x10	; 16
 28e:	0e 94 16 05 	call	0xa2c	; 0xa2c <DIO_WritePin>
 292:	61 e0       	ldi	r22, 0x01	; 1
 294:	81 e1       	ldi	r24, 0x11	; 17
 296:	0e 94 16 05 	call	0xa2c	; 0xa2c <DIO_WritePin>
 29a:	61 e0       	ldi	r22, 0x01	; 1
 29c:	82 e1       	ldi	r24, 0x12	; 18
 29e:	0e 94 16 05 	call	0xa2c	; 0xa2c <DIO_WritePin>
 2a2:	60 e0       	ldi	r22, 0x00	; 0
 2a4:	83 e1       	ldi	r24, 0x13	; 19
 2a6:	0e 94 16 05 	call	0xa2c	; 0xa2c <DIO_WritePin>
 2aa:	2f e7       	ldi	r18, 0x7F	; 127
 2ac:	88 e3       	ldi	r24, 0x38	; 56
 2ae:	91 e0       	ldi	r25, 0x01	; 1
 2b0:	21 50       	subi	r18, 0x01	; 1
 2b2:	80 40       	sbci	r24, 0x00	; 0
 2b4:	90 40       	sbci	r25, 0x00	; 0
 2b6:	e1 f7       	brne	.-8      	; 0x2b0 <STEPPER3+0x21e>
 2b8:	00 c0       	rjmp	.+0      	; 0x2ba <STEPPER3+0x228>
 2ba:	00 00       	nop
 2bc:	b0 92 83 00 	sts	0x0083, r11	; 0x800083 <phaseFlag>
 2c0:	25 e0       	ldi	r18, 0x05	; 5
 2c2:	c2 1a       	sub	r12, r18
 2c4:	d1 08       	sbc	r13, r1
 2c6:	e1 08       	sbc	r14, r1
 2c8:	f1 08       	sbc	r15, r1
 2ca:	85 e0       	ldi	r24, 0x05	; 5
 2cc:	c8 16       	cp	r12, r24
 2ce:	d1 04       	cpc	r13, r1
 2d0:	e1 04       	cpc	r14, r1
 2d2:	f1 04       	cpc	r15, r1
 2d4:	0c f0       	brlt	.+2      	; 0x2d8 <STEPPER3+0x246>
 2d6:	46 cf       	rjmp	.-372    	; 0x164 <STEPPER3+0xd2>
 2d8:	4e c2       	rjmp	.+1180   	; 0x776 <__EEPROM_REGION_LENGTH__+0x376>
 2da:	60 e0       	ldi	r22, 0x00	; 0
 2dc:	80 e1       	ldi	r24, 0x10	; 16
 2de:	0e 94 16 05 	call	0xa2c	; 0xa2c <DIO_WritePin>
 2e2:	61 e0       	ldi	r22, 0x01	; 1
 2e4:	81 e1       	ldi	r24, 0x11	; 17
 2e6:	0e 94 16 05 	call	0xa2c	; 0xa2c <DIO_WritePin>
 2ea:	60 e0       	ldi	r22, 0x00	; 0
 2ec:	82 e1       	ldi	r24, 0x12	; 18
 2ee:	0e 94 16 05 	call	0xa2c	; 0xa2c <DIO_WritePin>
 2f2:	60 e0       	ldi	r22, 0x00	; 0
 2f4:	83 e1       	ldi	r24, 0x13	; 19
 2f6:	0e 94 16 05 	call	0xa2c	; 0xa2c <DIO_WritePin>
 2fa:	9f e7       	ldi	r25, 0x7F	; 127
 2fc:	28 e3       	ldi	r18, 0x38	; 56
 2fe:	81 e0       	ldi	r24, 0x01	; 1
 300:	91 50       	subi	r25, 0x01	; 1
 302:	20 40       	sbci	r18, 0x00	; 0
 304:	80 40       	sbci	r24, 0x00	; 0
 306:	e1 f7       	brne	.-8      	; 0x300 <STEPPER3+0x26e>
 308:	00 c0       	rjmp	.+0      	; 0x30a <STEPPER3+0x278>
 30a:	00 00       	nop
 30c:	a0 92 83 00 	sts	0x0083, r10	; 0x800083 <phaseFlag>
 310:	95 e0       	ldi	r25, 0x05	; 5
 312:	c9 1a       	sub	r12, r25
 314:	d1 08       	sbc	r13, r1
 316:	e1 08       	sbc	r14, r1
 318:	f1 08       	sbc	r15, r1
 31a:	25 e0       	ldi	r18, 0x05	; 5
 31c:	c2 16       	cp	r12, r18
 31e:	d1 04       	cpc	r13, r1
 320:	e1 04       	cpc	r14, r1
 322:	f1 04       	cpc	r15, r1
 324:	0c f0       	brlt	.+2      	; 0x328 <STEPPER3+0x296>
 326:	23 cf       	rjmp	.-442    	; 0x16e <STEPPER3+0xdc>
 328:	26 c2       	rjmp	.+1100   	; 0x776 <__EEPROM_REGION_LENGTH__+0x376>
 32a:	61 e0       	ldi	r22, 0x01	; 1
 32c:	80 e1       	ldi	r24, 0x10	; 16
 32e:	0e 94 16 05 	call	0xa2c	; 0xa2c <DIO_WritePin>
 332:	61 e0       	ldi	r22, 0x01	; 1
 334:	81 e1       	ldi	r24, 0x11	; 17
 336:	0e 94 16 05 	call	0xa2c	; 0xa2c <DIO_WritePin>
 33a:	60 e0       	ldi	r22, 0x00	; 0
 33c:	82 e1       	ldi	r24, 0x12	; 18
 33e:	0e 94 16 05 	call	0xa2c	; 0xa2c <DIO_WritePin>
 342:	60 e0       	ldi	r22, 0x00	; 0
 344:	83 e1       	ldi	r24, 0x13	; 19
 346:	0e 94 16 05 	call	0xa2c	; 0xa2c <DIO_WritePin>
 34a:	8f e7       	ldi	r24, 0x7F	; 127
 34c:	98 e3       	ldi	r25, 0x38	; 56
 34e:	21 e0       	ldi	r18, 0x01	; 1
 350:	81 50       	subi	r24, 0x01	; 1
 352:	90 40       	sbci	r25, 0x00	; 0
 354:	20 40       	sbci	r18, 0x00	; 0
 356:	e1 f7       	brne	.-8      	; 0x350 <STEPPER3+0x2be>
 358:	00 c0       	rjmp	.+0      	; 0x35a <STEPPER3+0x2c8>
 35a:	00 00       	nop
 35c:	90 92 83 00 	sts	0x0083, r9	; 0x800083 <phaseFlag>
 360:	85 e0       	ldi	r24, 0x05	; 5
 362:	c8 1a       	sub	r12, r24
 364:	d1 08       	sbc	r13, r1
 366:	e1 08       	sbc	r14, r1
 368:	f1 08       	sbc	r15, r1
 36a:	95 e0       	ldi	r25, 0x05	; 5
 36c:	c9 16       	cp	r12, r25
 36e:	d1 04       	cpc	r13, r1
 370:	e1 04       	cpc	r14, r1
 372:	f1 04       	cpc	r15, r1
 374:	0c f0       	brlt	.+2      	; 0x378 <STEPPER3+0x2e6>
 376:	00 cf       	rjmp	.-512    	; 0x178 <STEPPER3+0xe6>
 378:	fe c1       	rjmp	.+1020   	; 0x776 <__EEPROM_REGION_LENGTH__+0x376>
 37a:	61 e0       	ldi	r22, 0x01	; 1
 37c:	80 e1       	ldi	r24, 0x10	; 16
 37e:	0e 94 16 05 	call	0xa2c	; 0xa2c <DIO_WritePin>
 382:	60 e0       	ldi	r22, 0x00	; 0
 384:	81 e1       	ldi	r24, 0x11	; 17
 386:	0e 94 16 05 	call	0xa2c	; 0xa2c <DIO_WritePin>
 38a:	60 e0       	ldi	r22, 0x00	; 0
 38c:	82 e1       	ldi	r24, 0x12	; 18
 38e:	0e 94 16 05 	call	0xa2c	; 0xa2c <DIO_WritePin>
 392:	60 e0       	ldi	r22, 0x00	; 0
 394:	83 e1       	ldi	r24, 0x13	; 19
 396:	0e 94 16 05 	call	0xa2c	; 0xa2c <DIO_WritePin>
 39a:	2f e7       	ldi	r18, 0x7F	; 127
 39c:	88 e3       	ldi	r24, 0x38	; 56
 39e:	91 e0       	ldi	r25, 0x01	; 1
 3a0:	21 50       	subi	r18, 0x01	; 1
 3a2:	80 40       	sbci	r24, 0x00	; 0
 3a4:	90 40       	sbci	r25, 0x00	; 0
 3a6:	e1 f7       	brne	.-8      	; 0x3a0 <STEPPER3+0x30e>
 3a8:	00 c0       	rjmp	.+0      	; 0x3aa <STEPPER3+0x318>
 3aa:	00 00       	nop
 3ac:	c0 93 83 00 	sts	0x0083, r28	; 0x800083 <phaseFlag>
 3b0:	25 e0       	ldi	r18, 0x05	; 5
 3b2:	c2 1a       	sub	r12, r18
 3b4:	d1 08       	sbc	r13, r1
 3b6:	e1 08       	sbc	r14, r1
 3b8:	f1 08       	sbc	r15, r1
 3ba:	85 e0       	ldi	r24, 0x05	; 5
 3bc:	c8 16       	cp	r12, r24
 3be:	d1 04       	cpc	r13, r1
 3c0:	e1 04       	cpc	r14, r1
 3c2:	f1 04       	cpc	r15, r1
 3c4:	0c f0       	brlt	.+2      	; 0x3c8 <STEPPER3+0x336>
 3c6:	dd ce       	rjmp	.-582    	; 0x182 <STEPPER3+0xf0>
 3c8:	d6 c1       	rjmp	.+940    	; 0x776 <__EEPROM_REGION_LENGTH__+0x376>
 3ca:	61 e0       	ldi	r22, 0x01	; 1
 3cc:	80 e1       	ldi	r24, 0x10	; 16
 3ce:	0e 94 16 05 	call	0xa2c	; 0xa2c <DIO_WritePin>
 3d2:	60 e0       	ldi	r22, 0x00	; 0
 3d4:	81 e1       	ldi	r24, 0x11	; 17
 3d6:	0e 94 16 05 	call	0xa2c	; 0xa2c <DIO_WritePin>
 3da:	60 e0       	ldi	r22, 0x00	; 0
 3dc:	82 e1       	ldi	r24, 0x12	; 18
 3de:	0e 94 16 05 	call	0xa2c	; 0xa2c <DIO_WritePin>
 3e2:	61 e0       	ldi	r22, 0x01	; 1
 3e4:	83 e1       	ldi	r24, 0x13	; 19
 3e6:	0e 94 16 05 	call	0xa2c	; 0xa2c <DIO_WritePin>
 3ea:	9f e7       	ldi	r25, 0x7F	; 127
 3ec:	28 e3       	ldi	r18, 0x38	; 56
 3ee:	81 e0       	ldi	r24, 0x01	; 1
 3f0:	91 50       	subi	r25, 0x01	; 1
 3f2:	20 40       	sbci	r18, 0x00	; 0
 3f4:	80 40       	sbci	r24, 0x00	; 0
 3f6:	e1 f7       	brne	.-8      	; 0x3f0 <STEPPER3+0x35e>
 3f8:	00 c0       	rjmp	.+0      	; 0x3fa <STEPPER3+0x368>
 3fa:	00 00       	nop
 3fc:	81 e0       	ldi	r24, 0x01	; 1
 3fe:	80 93 83 00 	sts	0x0083, r24	; 0x800083 <phaseFlag>
 402:	95 e0       	ldi	r25, 0x05	; 5
 404:	c9 1a       	sub	r12, r25
 406:	d1 08       	sbc	r13, r1
 408:	e1 08       	sbc	r14, r1
 40a:	f1 08       	sbc	r15, r1
 40c:	25 e0       	ldi	r18, 0x05	; 5
 40e:	c2 16       	cp	r12, r18
 410:	d1 04       	cpc	r13, r1
 412:	e1 04       	cpc	r14, r1
 414:	f1 04       	cpc	r15, r1
 416:	0c f0       	brlt	.+2      	; 0x41a <__EEPROM_REGION_LENGTH__+0x1a>
 418:	b9 ce       	rjmp	.-654    	; 0x18c <STEPPER3+0xfa>
 41a:	ad c1       	rjmp	.+858    	; 0x776 <__EEPROM_REGION_LENGTH__+0x376>
 41c:	81 11       	cpse	r24, r1
 41e:	0b c0       	rjmp	.+22     	; 0x436 <__EEPROM_REGION_LENGTH__+0x36>
 420:	10 92 81 00 	sts	0x0081, r1	; 0x800081 <presentState>
 424:	10 92 80 00 	sts	0x0080, r1	; 0x800080 <__data_end>
 428:	81 e0       	ldi	r24, 0x01	; 1
 42a:	80 93 82 00 	sts	0x0082, r24	; 0x800082 <startFlag>
 42e:	87 e0       	ldi	r24, 0x07	; 7
 430:	80 93 83 00 	sts	0x0083, r24	; 0x800083 <phaseFlag>
 434:	06 c0       	rjmp	.+12     	; 0x442 <__EEPROM_REGION_LENGTH__+0x42>
 436:	80 91 81 00 	lds	r24, 0x0081	; 0x800081 <presentState>
 43a:	80 93 80 00 	sts	0x0080, r24	; 0x800080 <__data_end>
 43e:	10 92 81 00 	sts	0x0081, r1	; 0x800081 <presentState>
 442:	90 91 80 00 	lds	r25, 0x0080	; 0x800080 <__data_end>
 446:	91 30       	cpi	r25, 0x01	; 1
 448:	21 f5       	brne	.+72     	; 0x492 <__EEPROM_REGION_LENGTH__+0x92>
 44a:	80 91 83 00 	lds	r24, 0x0083	; 0x800083 <phaseFlag>
 44e:	82 30       	cpi	r24, 0x02	; 2
 450:	11 f4       	brne	.+4      	; 0x456 <__EEPROM_REGION_LENGTH__+0x56>
 452:	88 e0       	ldi	r24, 0x08	; 8
 454:	1c c0       	rjmp	.+56     	; 0x48e <__EEPROM_REGION_LENGTH__+0x8e>
 456:	83 30       	cpi	r24, 0x03	; 3
 458:	19 f4       	brne	.+6      	; 0x460 <__EEPROM_REGION_LENGTH__+0x60>
 45a:	90 93 83 00 	sts	0x0083, r25	; 0x800083 <phaseFlag>
 45e:	19 c0       	rjmp	.+50     	; 0x492 <__EEPROM_REGION_LENGTH__+0x92>
 460:	84 30       	cpi	r24, 0x04	; 4
 462:	11 f4       	brne	.+4      	; 0x468 <__EEPROM_REGION_LENGTH__+0x68>
 464:	82 e0       	ldi	r24, 0x02	; 2
 466:	13 c0       	rjmp	.+38     	; 0x48e <__EEPROM_REGION_LENGTH__+0x8e>
 468:	85 30       	cpi	r24, 0x05	; 5
 46a:	11 f4       	brne	.+4      	; 0x470 <__EEPROM_REGION_LENGTH__+0x70>
 46c:	83 e0       	ldi	r24, 0x03	; 3
 46e:	0f c0       	rjmp	.+30     	; 0x48e <__EEPROM_REGION_LENGTH__+0x8e>
 470:	86 30       	cpi	r24, 0x06	; 6
 472:	11 f4       	brne	.+4      	; 0x478 <__EEPROM_REGION_LENGTH__+0x78>
 474:	84 e0       	ldi	r24, 0x04	; 4
 476:	0b c0       	rjmp	.+22     	; 0x48e <__EEPROM_REGION_LENGTH__+0x8e>
 478:	87 30       	cpi	r24, 0x07	; 7
 47a:	11 f4       	brne	.+4      	; 0x480 <__EEPROM_REGION_LENGTH__+0x80>
 47c:	85 e0       	ldi	r24, 0x05	; 5
 47e:	07 c0       	rjmp	.+14     	; 0x48e <__EEPROM_REGION_LENGTH__+0x8e>
 480:	88 30       	cpi	r24, 0x08	; 8
 482:	11 f4       	brne	.+4      	; 0x488 <__EEPROM_REGION_LENGTH__+0x88>
 484:	86 e0       	ldi	r24, 0x06	; 6
 486:	03 c0       	rjmp	.+6      	; 0x48e <__EEPROM_REGION_LENGTH__+0x8e>
 488:	81 30       	cpi	r24, 0x01	; 1
 48a:	19 f4       	brne	.+6      	; 0x492 <__EEPROM_REGION_LENGTH__+0x92>
 48c:	87 e0       	ldi	r24, 0x07	; 7
 48e:	80 93 83 00 	sts	0x0083, r24	; 0x800083 <phaseFlag>
 492:	f0 94       	com	r15
 494:	e0 94       	com	r14
 496:	d0 94       	com	r13
 498:	c0 94       	com	r12
 49a:	c1 1c       	adc	r12, r1
 49c:	d1 1c       	adc	r13, r1
 49e:	e1 1c       	adc	r14, r1
 4a0:	f1 1c       	adc	r15, r1
 4a2:	c6 e0       	ldi	r28, 0x06	; 6
 4a4:	d5 e0       	ldi	r29, 0x05	; 5
 4a6:	14 e0       	ldi	r17, 0x04	; 4
 4a8:	03 e0       	ldi	r16, 0x03	; 3
 4aa:	82 e0       	ldi	r24, 0x02	; 2
 4ac:	b8 2e       	mov	r11, r24
 4ae:	98 e0       	ldi	r25, 0x08	; 8
 4b0:	a9 2e       	mov	r10, r25
 4b2:	27 e0       	ldi	r18, 0x07	; 7
 4b4:	92 2e       	mov	r9, r18
 4b6:	25 e0       	ldi	r18, 0x05	; 5
 4b8:	c2 16       	cp	r12, r18
 4ba:	d1 04       	cpc	r13, r1
 4bc:	e1 04       	cpc	r14, r1
 4be:	f1 04       	cpc	r15, r1
 4c0:	0c f4       	brge	.+2      	; 0x4c4 <__EEPROM_REGION_LENGTH__+0xc4>
 4c2:	59 c1       	rjmp	.+690    	; 0x776 <__EEPROM_REGION_LENGTH__+0x376>
 4c4:	80 91 83 00 	lds	r24, 0x0083	; 0x800083 <phaseFlag>
 4c8:	87 30       	cpi	r24, 0x07	; 7
 4ca:	39 f5       	brne	.+78     	; 0x51a <__EEPROM_REGION_LENGTH__+0x11a>
 4cc:	61 e0       	ldi	r22, 0x01	; 1
 4ce:	80 e1       	ldi	r24, 0x10	; 16
 4d0:	0e 94 16 05 	call	0xa2c	; 0xa2c <DIO_WritePin>
 4d4:	60 e0       	ldi	r22, 0x00	; 0
 4d6:	81 e1       	ldi	r24, 0x11	; 17
 4d8:	0e 94 16 05 	call	0xa2c	; 0xa2c <DIO_WritePin>
 4dc:	60 e0       	ldi	r22, 0x00	; 0
 4de:	82 e1       	ldi	r24, 0x12	; 18
 4e0:	0e 94 16 05 	call	0xa2c	; 0xa2c <DIO_WritePin>
 4e4:	60 e0       	ldi	r22, 0x00	; 0
 4e6:	83 e1       	ldi	r24, 0x13	; 19
 4e8:	0e 94 16 05 	call	0xa2c	; 0xa2c <DIO_WritePin>
 4ec:	9f e7       	ldi	r25, 0x7F	; 127
 4ee:	28 e3       	ldi	r18, 0x38	; 56
 4f0:	81 e0       	ldi	r24, 0x01	; 1
 4f2:	91 50       	subi	r25, 0x01	; 1
 4f4:	20 40       	sbci	r18, 0x00	; 0
 4f6:	80 40       	sbci	r24, 0x00	; 0
 4f8:	e1 f7       	brne	.-8      	; 0x4f2 <__EEPROM_REGION_LENGTH__+0xf2>
 4fa:	00 c0       	rjmp	.+0      	; 0x4fc <__EEPROM_REGION_LENGTH__+0xfc>
 4fc:	00 00       	nop
 4fe:	c0 93 83 00 	sts	0x0083, r28	; 0x800083 <phaseFlag>
 502:	95 e0       	ldi	r25, 0x05	; 5
 504:	c9 1a       	sub	r12, r25
 506:	d1 08       	sbc	r13, r1
 508:	e1 08       	sbc	r14, r1
 50a:	f1 08       	sbc	r15, r1
 50c:	25 e0       	ldi	r18, 0x05	; 5
 50e:	c2 16       	cp	r12, r18
 510:	d1 04       	cpc	r13, r1
 512:	e1 04       	cpc	r14, r1
 514:	f1 04       	cpc	r15, r1
 516:	0c f4       	brge	.+2      	; 0x51a <__EEPROM_REGION_LENGTH__+0x11a>
 518:	2e c1       	rjmp	.+604    	; 0x776 <__EEPROM_REGION_LENGTH__+0x376>
 51a:	80 91 83 00 	lds	r24, 0x0083	; 0x800083 <phaseFlag>
 51e:	86 30       	cpi	r24, 0x06	; 6
 520:	39 f5       	brne	.+78     	; 0x570 <__EEPROM_REGION_LENGTH__+0x170>
 522:	61 e0       	ldi	r22, 0x01	; 1
 524:	80 e1       	ldi	r24, 0x10	; 16
 526:	0e 94 16 05 	call	0xa2c	; 0xa2c <DIO_WritePin>
 52a:	61 e0       	ldi	r22, 0x01	; 1
 52c:	81 e1       	ldi	r24, 0x11	; 17
 52e:	0e 94 16 05 	call	0xa2c	; 0xa2c <DIO_WritePin>
 532:	60 e0       	ldi	r22, 0x00	; 0
 534:	82 e1       	ldi	r24, 0x12	; 18
 536:	0e 94 16 05 	call	0xa2c	; 0xa2c <DIO_WritePin>
 53a:	60 e0       	ldi	r22, 0x00	; 0
 53c:	83 e1       	ldi	r24, 0x13	; 19
 53e:	0e 94 16 05 	call	0xa2c	; 0xa2c <DIO_WritePin>
 542:	8f e7       	ldi	r24, 0x7F	; 127
 544:	98 e3       	ldi	r25, 0x38	; 56
 546:	21 e0       	ldi	r18, 0x01	; 1
 548:	81 50       	subi	r24, 0x01	; 1
 54a:	90 40       	sbci	r25, 0x00	; 0
 54c:	20 40       	sbci	r18, 0x00	; 0
 54e:	e1 f7       	brne	.-8      	; 0x548 <__EEPROM_REGION_LENGTH__+0x148>
 550:	00 c0       	rjmp	.+0      	; 0x552 <__EEPROM_REGION_LENGTH__+0x152>
 552:	00 00       	nop
 554:	d0 93 83 00 	sts	0x0083, r29	; 0x800083 <phaseFlag>
 558:	85 e0       	ldi	r24, 0x05	; 5
 55a:	c8 1a       	sub	r12, r24
 55c:	d1 08       	sbc	r13, r1
 55e:	e1 08       	sbc	r14, r1
 560:	f1 08       	sbc	r15, r1
 562:	95 e0       	ldi	r25, 0x05	; 5
 564:	c9 16       	cp	r12, r25
 566:	d1 04       	cpc	r13, r1
 568:	e1 04       	cpc	r14, r1
 56a:	f1 04       	cpc	r15, r1
 56c:	0c f4       	brge	.+2      	; 0x570 <__EEPROM_REGION_LENGTH__+0x170>
 56e:	03 c1       	rjmp	.+518    	; 0x776 <__EEPROM_REGION_LENGTH__+0x376>
 570:	80 91 83 00 	lds	r24, 0x0083	; 0x800083 <phaseFlag>
 574:	85 30       	cpi	r24, 0x05	; 5
 576:	39 f5       	brne	.+78     	; 0x5c6 <__EEPROM_REGION_LENGTH__+0x1c6>
 578:	60 e0       	ldi	r22, 0x00	; 0
 57a:	80 e1       	ldi	r24, 0x10	; 16
 57c:	0e 94 16 05 	call	0xa2c	; 0xa2c <DIO_WritePin>
 580:	61 e0       	ldi	r22, 0x01	; 1
 582:	81 e1       	ldi	r24, 0x11	; 17
 584:	0e 94 16 05 	call	0xa2c	; 0xa2c <DIO_WritePin>
 588:	60 e0       	ldi	r22, 0x00	; 0
 58a:	82 e1       	ldi	r24, 0x12	; 18
 58c:	0e 94 16 05 	call	0xa2c	; 0xa2c <DIO_WritePin>
 590:	60 e0       	ldi	r22, 0x00	; 0
 592:	83 e1       	ldi	r24, 0x13	; 19
 594:	0e 94 16 05 	call	0xa2c	; 0xa2c <DIO_WritePin>
 598:	2f e7       	ldi	r18, 0x7F	; 127
 59a:	88 e3       	ldi	r24, 0x38	; 56
 59c:	91 e0       	ldi	r25, 0x01	; 1
 59e:	21 50       	subi	r18, 0x01	; 1
 5a0:	80 40       	sbci	r24, 0x00	; 0
 5a2:	90 40       	sbci	r25, 0x00	; 0
 5a4:	e1 f7       	brne	.-8      	; 0x59e <__EEPROM_REGION_LENGTH__+0x19e>
 5a6:	00 c0       	rjmp	.+0      	; 0x5a8 <__EEPROM_REGION_LENGTH__+0x1a8>
 5a8:	00 00       	nop
 5aa:	10 93 83 00 	sts	0x0083, r17	; 0x800083 <phaseFlag>
 5ae:	25 e0       	ldi	r18, 0x05	; 5
 5b0:	c2 1a       	sub	r12, r18
 5b2:	d1 08       	sbc	r13, r1
 5b4:	e1 08       	sbc	r14, r1
 5b6:	f1 08       	sbc	r15, r1
 5b8:	85 e0       	ldi	r24, 0x05	; 5
 5ba:	c8 16       	cp	r12, r24
 5bc:	d1 04       	cpc	r13, r1
 5be:	e1 04       	cpc	r14, r1
 5c0:	f1 04       	cpc	r15, r1
 5c2:	0c f4       	brge	.+2      	; 0x5c6 <__EEPROM_REGION_LENGTH__+0x1c6>
 5c4:	d8 c0       	rjmp	.+432    	; 0x776 <__EEPROM_REGION_LENGTH__+0x376>
 5c6:	80 91 83 00 	lds	r24, 0x0083	; 0x800083 <phaseFlag>
 5ca:	84 30       	cpi	r24, 0x04	; 4
 5cc:	39 f5       	brne	.+78     	; 0x61c <__EEPROM_REGION_LENGTH__+0x21c>
 5ce:	60 e0       	ldi	r22, 0x00	; 0
 5d0:	80 e1       	ldi	r24, 0x10	; 16
 5d2:	0e 94 16 05 	call	0xa2c	; 0xa2c <DIO_WritePin>
 5d6:	61 e0       	ldi	r22, 0x01	; 1
 5d8:	81 e1       	ldi	r24, 0x11	; 17
 5da:	0e 94 16 05 	call	0xa2c	; 0xa2c <DIO_WritePin>
 5de:	61 e0       	ldi	r22, 0x01	; 1
 5e0:	82 e1       	ldi	r24, 0x12	; 18
 5e2:	0e 94 16 05 	call	0xa2c	; 0xa2c <DIO_WritePin>
 5e6:	60 e0       	ldi	r22, 0x00	; 0
 5e8:	83 e1       	ldi	r24, 0x13	; 19
 5ea:	0e 94 16 05 	call	0xa2c	; 0xa2c <DIO_WritePin>
 5ee:	9f e7       	ldi	r25, 0x7F	; 127
 5f0:	28 e3       	ldi	r18, 0x38	; 56
 5f2:	81 e0       	ldi	r24, 0x01	; 1
 5f4:	91 50       	subi	r25, 0x01	; 1
 5f6:	20 40       	sbci	r18, 0x00	; 0
 5f8:	80 40       	sbci	r24, 0x00	; 0
 5fa:	e1 f7       	brne	.-8      	; 0x5f4 <__EEPROM_REGION_LENGTH__+0x1f4>
 5fc:	00 c0       	rjmp	.+0      	; 0x5fe <__EEPROM_REGION_LENGTH__+0x1fe>
 5fe:	00 00       	nop
 600:	00 93 83 00 	sts	0x0083, r16	; 0x800083 <phaseFlag>
 604:	95 e0       	ldi	r25, 0x05	; 5
 606:	c9 1a       	sub	r12, r25
 608:	d1 08       	sbc	r13, r1
 60a:	e1 08       	sbc	r14, r1
 60c:	f1 08       	sbc	r15, r1
 60e:	25 e0       	ldi	r18, 0x05	; 5
 610:	c2 16       	cp	r12, r18
 612:	d1 04       	cpc	r13, r1
 614:	e1 04       	cpc	r14, r1
 616:	f1 04       	cpc	r15, r1
 618:	0c f4       	brge	.+2      	; 0x61c <__EEPROM_REGION_LENGTH__+0x21c>
 61a:	ad c0       	rjmp	.+346    	; 0x776 <__EEPROM_REGION_LENGTH__+0x376>
 61c:	80 91 83 00 	lds	r24, 0x0083	; 0x800083 <phaseFlag>
 620:	83 30       	cpi	r24, 0x03	; 3
 622:	39 f5       	brne	.+78     	; 0x672 <__EEPROM_REGION_LENGTH__+0x272>
 624:	60 e0       	ldi	r22, 0x00	; 0
 626:	80 e1       	ldi	r24, 0x10	; 16
 628:	0e 94 16 05 	call	0xa2c	; 0xa2c <DIO_WritePin>
 62c:	60 e0       	ldi	r22, 0x00	; 0
 62e:	81 e1       	ldi	r24, 0x11	; 17
 630:	0e 94 16 05 	call	0xa2c	; 0xa2c <DIO_WritePin>
 634:	61 e0       	ldi	r22, 0x01	; 1
 636:	82 e1       	ldi	r24, 0x12	; 18
 638:	0e 94 16 05 	call	0xa2c	; 0xa2c <DIO_WritePin>
 63c:	60 e0       	ldi	r22, 0x00	; 0
 63e:	83 e1       	ldi	r24, 0x13	; 19
 640:	0e 94 16 05 	call	0xa2c	; 0xa2c <DIO_WritePin>
 644:	8f e7       	ldi	r24, 0x7F	; 127
 646:	98 e3       	ldi	r25, 0x38	; 56
 648:	21 e0       	ldi	r18, 0x01	; 1
 64a:	81 50       	subi	r24, 0x01	; 1
 64c:	90 40       	sbci	r25, 0x00	; 0
 64e:	20 40       	sbci	r18, 0x00	; 0
 650:	e1 f7       	brne	.-8      	; 0x64a <__EEPROM_REGION_LENGTH__+0x24a>
 652:	00 c0       	rjmp	.+0      	; 0x654 <__EEPROM_REGION_LENGTH__+0x254>
 654:	00 00       	nop
 656:	b0 92 83 00 	sts	0x0083, r11	; 0x800083 <phaseFlag>
 65a:	85 e0       	ldi	r24, 0x05	; 5
 65c:	c8 1a       	sub	r12, r24
 65e:	d1 08       	sbc	r13, r1
 660:	e1 08       	sbc	r14, r1
 662:	f1 08       	sbc	r15, r1
 664:	95 e0       	ldi	r25, 0x05	; 5
 666:	c9 16       	cp	r12, r25
 668:	d1 04       	cpc	r13, r1
 66a:	e1 04       	cpc	r14, r1
 66c:	f1 04       	cpc	r15, r1
 66e:	0c f4       	brge	.+2      	; 0x672 <__EEPROM_REGION_LENGTH__+0x272>
 670:	82 c0       	rjmp	.+260    	; 0x776 <__EEPROM_REGION_LENGTH__+0x376>
 672:	80 91 83 00 	lds	r24, 0x0083	; 0x800083 <phaseFlag>
 676:	82 30       	cpi	r24, 0x02	; 2
 678:	41 f5       	brne	.+80     	; 0x6ca <__EEPROM_REGION_LENGTH__+0x2ca>
 67a:	60 e0       	ldi	r22, 0x00	; 0
 67c:	80 e1       	ldi	r24, 0x10	; 16
 67e:	0e 94 16 05 	call	0xa2c	; 0xa2c <DIO_WritePin>
 682:	60 e0       	ldi	r22, 0x00	; 0
 684:	81 e1       	ldi	r24, 0x11	; 17
 686:	0e 94 16 05 	call	0xa2c	; 0xa2c <DIO_WritePin>
 68a:	61 e0       	ldi	r22, 0x01	; 1
 68c:	82 e1       	ldi	r24, 0x12	; 18
 68e:	0e 94 16 05 	call	0xa2c	; 0xa2c <DIO_WritePin>
 692:	61 e0       	ldi	r22, 0x01	; 1
 694:	83 e1       	ldi	r24, 0x13	; 19
 696:	0e 94 16 05 	call	0xa2c	; 0xa2c <DIO_WritePin>
 69a:	2f e7       	ldi	r18, 0x7F	; 127
 69c:	88 e3       	ldi	r24, 0x38	; 56
 69e:	91 e0       	ldi	r25, 0x01	; 1
 6a0:	21 50       	subi	r18, 0x01	; 1
 6a2:	80 40       	sbci	r24, 0x00	; 0
 6a4:	90 40       	sbci	r25, 0x00	; 0
 6a6:	e1 f7       	brne	.-8      	; 0x6a0 <__EEPROM_REGION_LENGTH__+0x2a0>
 6a8:	00 c0       	rjmp	.+0      	; 0x6aa <__EEPROM_REGION_LENGTH__+0x2aa>
 6aa:	00 00       	nop
 6ac:	81 e0       	ldi	r24, 0x01	; 1
 6ae:	80 93 83 00 	sts	0x0083, r24	; 0x800083 <phaseFlag>
 6b2:	25 e0       	ldi	r18, 0x05	; 5
 6b4:	c2 1a       	sub	r12, r18
 6b6:	d1 08       	sbc	r13, r1
 6b8:	e1 08       	sbc	r14, r1
 6ba:	f1 08       	sbc	r15, r1
 6bc:	85 e0       	ldi	r24, 0x05	; 5
 6be:	c8 16       	cp	r12, r24
 6c0:	d1 04       	cpc	r13, r1
 6c2:	e1 04       	cpc	r14, r1
 6c4:	f1 04       	cpc	r15, r1
 6c6:	0c f4       	brge	.+2      	; 0x6ca <__EEPROM_REGION_LENGTH__+0x2ca>
 6c8:	56 c0       	rjmp	.+172    	; 0x776 <__EEPROM_REGION_LENGTH__+0x376>
 6ca:	80 91 83 00 	lds	r24, 0x0083	; 0x800083 <phaseFlag>
 6ce:	81 30       	cpi	r24, 0x01	; 1
 6d0:	31 f5       	brne	.+76     	; 0x71e <__EEPROM_REGION_LENGTH__+0x31e>
 6d2:	60 e0       	ldi	r22, 0x00	; 0
 6d4:	80 e1       	ldi	r24, 0x10	; 16
 6d6:	0e 94 16 05 	call	0xa2c	; 0xa2c <DIO_WritePin>
 6da:	60 e0       	ldi	r22, 0x00	; 0
 6dc:	81 e1       	ldi	r24, 0x11	; 17
 6de:	0e 94 16 05 	call	0xa2c	; 0xa2c <DIO_WritePin>
 6e2:	60 e0       	ldi	r22, 0x00	; 0
 6e4:	82 e1       	ldi	r24, 0x12	; 18
 6e6:	0e 94 16 05 	call	0xa2c	; 0xa2c <DIO_WritePin>
 6ea:	61 e0       	ldi	r22, 0x01	; 1
 6ec:	83 e1       	ldi	r24, 0x13	; 19
 6ee:	0e 94 16 05 	call	0xa2c	; 0xa2c <DIO_WritePin>
 6f2:	9f e7       	ldi	r25, 0x7F	; 127
 6f4:	28 e3       	ldi	r18, 0x38	; 56
 6f6:	81 e0       	ldi	r24, 0x01	; 1
 6f8:	91 50       	subi	r25, 0x01	; 1
 6fa:	20 40       	sbci	r18, 0x00	; 0
 6fc:	80 40       	sbci	r24, 0x00	; 0
 6fe:	e1 f7       	brne	.-8      	; 0x6f8 <__EEPROM_REGION_LENGTH__+0x2f8>
 700:	00 c0       	rjmp	.+0      	; 0x702 <__EEPROM_REGION_LENGTH__+0x302>
 702:	00 00       	nop
 704:	a0 92 83 00 	sts	0x0083, r10	; 0x800083 <phaseFlag>
 708:	95 e0       	ldi	r25, 0x05	; 5
 70a:	c9 1a       	sub	r12, r25
 70c:	d1 08       	sbc	r13, r1
 70e:	e1 08       	sbc	r14, r1
 710:	f1 08       	sbc	r15, r1
 712:	25 e0       	ldi	r18, 0x05	; 5
 714:	c2 16       	cp	r12, r18
 716:	d1 04       	cpc	r13, r1
 718:	e1 04       	cpc	r14, r1
 71a:	f1 04       	cpc	r15, r1
 71c:	64 f1       	brlt	.+88     	; 0x776 <__EEPROM_REGION_LENGTH__+0x376>
 71e:	80 91 83 00 	lds	r24, 0x0083	; 0x800083 <phaseFlag>
 722:	88 30       	cpi	r24, 0x08	; 8
 724:	09 f0       	breq	.+2      	; 0x728 <__EEPROM_REGION_LENGTH__+0x328>
 726:	c7 ce       	rjmp	.-626    	; 0x4b6 <__EEPROM_REGION_LENGTH__+0xb6>
 728:	61 e0       	ldi	r22, 0x01	; 1
 72a:	80 e1       	ldi	r24, 0x10	; 16
 72c:	0e 94 16 05 	call	0xa2c	; 0xa2c <DIO_WritePin>
 730:	60 e0       	ldi	r22, 0x00	; 0
 732:	81 e1       	ldi	r24, 0x11	; 17
 734:	0e 94 16 05 	call	0xa2c	; 0xa2c <DIO_WritePin>
 738:	60 e0       	ldi	r22, 0x00	; 0
 73a:	82 e1       	ldi	r24, 0x12	; 18
 73c:	0e 94 16 05 	call	0xa2c	; 0xa2c <DIO_WritePin>
 740:	61 e0       	ldi	r22, 0x01	; 1
 742:	83 e1       	ldi	r24, 0x13	; 19
 744:	0e 94 16 05 	call	0xa2c	; 0xa2c <DIO_WritePin>
 748:	8f e7       	ldi	r24, 0x7F	; 127
 74a:	98 e3       	ldi	r25, 0x38	; 56
 74c:	21 e0       	ldi	r18, 0x01	; 1
 74e:	81 50       	subi	r24, 0x01	; 1
 750:	90 40       	sbci	r25, 0x00	; 0
 752:	20 40       	sbci	r18, 0x00	; 0
 754:	e1 f7       	brne	.-8      	; 0x74e <__EEPROM_REGION_LENGTH__+0x34e>
 756:	00 c0       	rjmp	.+0      	; 0x758 <__EEPROM_REGION_LENGTH__+0x358>
 758:	00 00       	nop
 75a:	90 92 83 00 	sts	0x0083, r9	; 0x800083 <phaseFlag>
 75e:	85 e0       	ldi	r24, 0x05	; 5
 760:	c8 1a       	sub	r12, r24
 762:	d1 08       	sbc	r13, r1
 764:	e1 08       	sbc	r14, r1
 766:	f1 08       	sbc	r15, r1
 768:	95 e0       	ldi	r25, 0x05	; 5
 76a:	c9 16       	cp	r12, r25
 76c:	d1 04       	cpc	r13, r1
 76e:	e1 04       	cpc	r14, r1
 770:	f1 04       	cpc	r15, r1
 772:	0c f0       	brlt	.+2      	; 0x776 <__EEPROM_REGION_LENGTH__+0x376>
 774:	a0 ce       	rjmp	.-704    	; 0x4b6 <__EEPROM_REGION_LENGTH__+0xb6>
 776:	df 91       	pop	r29
 778:	cf 91       	pop	r28
 77a:	1f 91       	pop	r17
 77c:	0f 91       	pop	r16
 77e:	ff 90       	pop	r15
 780:	ef 90       	pop	r14
 782:	df 90       	pop	r13
 784:	cf 90       	pop	r12
 786:	bf 90       	pop	r11
 788:	af 90       	pop	r10
 78a:	9f 90       	pop	r9
 78c:	08 95       	ret

0000078e <main>:
 78e:	0e 94 37 04 	call	0x86e	; 0x86e <DIO_Init>
 792:	62 e3       	ldi	r22, 0x32	; 50
 794:	70 e0       	ldi	r23, 0x00	; 0
 796:	80 e0       	ldi	r24, 0x00	; 0
 798:	90 e0       	ldi	r25, 0x00	; 0
 79a:	0e 94 49 00 	call	0x92	; 0x92 <STEPPER3>
 79e:	2f ef       	ldi	r18, 0xFF	; 255
 7a0:	89 e6       	ldi	r24, 0x69	; 105
 7a2:	98 e1       	ldi	r25, 0x18	; 24
 7a4:	21 50       	subi	r18, 0x01	; 1
 7a6:	80 40       	sbci	r24, 0x00	; 0
 7a8:	90 40       	sbci	r25, 0x00	; 0
 7aa:	e1 f7       	brne	.-8      	; 0x7a4 <main+0x16>
 7ac:	00 c0       	rjmp	.+0      	; 0x7ae <main+0x20>
 7ae:	00 00       	nop
 7b0:	62 e3       	ldi	r22, 0x32	; 50
 7b2:	70 e0       	ldi	r23, 0x00	; 0
 7b4:	80 e0       	ldi	r24, 0x00	; 0
 7b6:	90 e0       	ldi	r25, 0x00	; 0
 7b8:	0e 94 49 00 	call	0x92	; 0x92 <STEPPER3>
 7bc:	2f ef       	ldi	r18, 0xFF	; 255
 7be:	89 e6       	ldi	r24, 0x69	; 105
 7c0:	98 e1       	ldi	r25, 0x18	; 24
 7c2:	21 50       	subi	r18, 0x01	; 1
 7c4:	80 40       	sbci	r24, 0x00	; 0
 7c6:	90 40       	sbci	r25, 0x00	; 0
 7c8:	e1 f7       	brne	.-8      	; 0x7c2 <main+0x34>
 7ca:	00 c0       	rjmp	.+0      	; 0x7cc <main+0x3e>
 7cc:	00 00       	nop
 7ce:	62 e3       	ldi	r22, 0x32	; 50
 7d0:	70 e0       	ldi	r23, 0x00	; 0
 7d2:	80 e0       	ldi	r24, 0x00	; 0
 7d4:	90 e0       	ldi	r25, 0x00	; 0
 7d6:	0e 94 49 00 	call	0x92	; 0x92 <STEPPER3>
 7da:	2f ef       	ldi	r18, 0xFF	; 255
 7dc:	89 e6       	ldi	r24, 0x69	; 105
 7de:	98 e1       	ldi	r25, 0x18	; 24
 7e0:	21 50       	subi	r18, 0x01	; 1
 7e2:	80 40       	sbci	r24, 0x00	; 0
 7e4:	90 40       	sbci	r25, 0x00	; 0
 7e6:	e1 f7       	brne	.-8      	; 0x7e0 <main+0x52>
 7e8:	00 c0       	rjmp	.+0      	; 0x7ea <main+0x5c>
 7ea:	00 00       	nop
 7ec:	6e ec       	ldi	r22, 0xCE	; 206
 7ee:	7f ef       	ldi	r23, 0xFF	; 255
 7f0:	8f ef       	ldi	r24, 0xFF	; 255
 7f2:	9f ef       	ldi	r25, 0xFF	; 255
 7f4:	0e 94 49 00 	call	0x92	; 0x92 <STEPPER3>
 7f8:	2f ef       	ldi	r18, 0xFF	; 255
 7fa:	89 e6       	ldi	r24, 0x69	; 105
 7fc:	98 e1       	ldi	r25, 0x18	; 24
 7fe:	21 50       	subi	r18, 0x01	; 1
 800:	80 40       	sbci	r24, 0x00	; 0
 802:	90 40       	sbci	r25, 0x00	; 0
 804:	e1 f7       	brne	.-8      	; 0x7fe <main+0x70>
 806:	00 c0       	rjmp	.+0      	; 0x808 <__DATA_REGION_LENGTH__+0x8>
 808:	00 00       	nop
 80a:	6c ee       	ldi	r22, 0xEC	; 236
 80c:	7f ef       	ldi	r23, 0xFF	; 255
 80e:	8f ef       	ldi	r24, 0xFF	; 255
 810:	9f ef       	ldi	r25, 0xFF	; 255
 812:	0e 94 49 00 	call	0x92	; 0x92 <STEPPER3>
 816:	80 e0       	ldi	r24, 0x00	; 0
 818:	90 e0       	ldi	r25, 0x00	; 0
 81a:	08 95       	ret

0000081c <__vector_16>:
 81c:	1f 92       	push	r1
 81e:	0f 92       	push	r0
 820:	0f b6       	in	r0, 0x3f	; 63
 822:	0f 92       	push	r0
 824:	11 24       	eor	r1, r1
 826:	2f 93       	push	r18
 828:	3f 93       	push	r19
 82a:	4f 93       	push	r20
 82c:	5f 93       	push	r21
 82e:	6f 93       	push	r22
 830:	7f 93       	push	r23
 832:	8f 93       	push	r24
 834:	9f 93       	push	r25
 836:	af 93       	push	r26
 838:	bf 93       	push	r27
 83a:	ef 93       	push	r30
 83c:	ff 93       	push	r31
 83e:	e0 91 84 00 	lds	r30, 0x0084	; 0x800084 <funcptr>
 842:	f0 91 85 00 	lds	r31, 0x0085	; 0x800085 <funcptr+0x1>
 846:	30 97       	sbiw	r30, 0x00	; 0
 848:	09 f0       	breq	.+2      	; 0x84c <__vector_16+0x30>
 84a:	09 95       	icall
 84c:	ff 91       	pop	r31
 84e:	ef 91       	pop	r30
 850:	bf 91       	pop	r27
 852:	af 91       	pop	r26
 854:	9f 91       	pop	r25
 856:	8f 91       	pop	r24
 858:	7f 91       	pop	r23
 85a:	6f 91       	pop	r22
 85c:	5f 91       	pop	r21
 85e:	4f 91       	pop	r20
 860:	3f 91       	pop	r19
 862:	2f 91       	pop	r18
 864:	0f 90       	pop	r0
 866:	0f be       	out	0x3f, r0	; 63
 868:	0f 90       	pop	r0
 86a:	1f 90       	pop	r1
 86c:	18 95       	reti

0000086e <DIO_Init>:
 86e:	cf 93       	push	r28
 870:	df 93       	push	r29
 872:	e0 e6       	ldi	r30, 0x60	; 96
 874:	f0 e0       	ldi	r31, 0x00	; 0
 876:	20 ef       	ldi	r18, 0xF0	; 240
 878:	a8 ee       	ldi	r26, 0xE8	; 232
 87a:	38 ef       	ldi	r19, 0xF8	; 248
 87c:	40 e0       	ldi	r20, 0x00	; 0
 87e:	50 e0       	ldi	r21, 0x00	; 0
 880:	81 e0       	ldi	r24, 0x01	; 1
 882:	90 e0       	ldi	r25, 0x00	; 0
 884:	71 91       	ld	r23, Z+
 886:	71 11       	cpse	r23, r1
 888:	3c c0       	rjmp	.+120    	; 0x902 <DIO_Init+0x94>
 88a:	48 30       	cpi	r20, 0x08	; 8
 88c:	78 f4       	brcc	.+30     	; 0x8ac <DIO_Init+0x3e>
 88e:	ba b3       	in	r27, 0x1a	; 26
 890:	ec 01       	movw	r28, r24
 892:	04 2e       	mov	r0, r20
 894:	02 c0       	rjmp	.+4      	; 0x89a <DIO_Init+0x2c>
 896:	cc 0f       	add	r28, r28
 898:	dd 1f       	adc	r29, r29
 89a:	0a 94       	dec	r0
 89c:	e2 f7       	brpl	.-8      	; 0x896 <DIO_Init+0x28>
 89e:	be 01       	movw	r22, r28
 8a0:	7b 2f       	mov	r23, r27
 8a2:	76 2b       	or	r23, r22
 8a4:	7a bb       	out	0x1a, r23	; 26
 8a6:	7b b3       	in	r23, 0x1b	; 27
 8a8:	60 95       	com	r22
 8aa:	3e c0       	rjmp	.+124    	; 0x928 <DIO_Init+0xba>
 8ac:	38 30       	cpi	r19, 0x08	; 8
 8ae:	68 f4       	brcc	.+26     	; 0x8ca <DIO_Init+0x5c>
 8b0:	b7 b3       	in	r27, 0x17	; 23
 8b2:	bc 01       	movw	r22, r24
 8b4:	03 2e       	mov	r0, r19
 8b6:	01 c0       	rjmp	.+2      	; 0x8ba <DIO_Init+0x4c>
 8b8:	66 0f       	add	r22, r22
 8ba:	0a 94       	dec	r0
 8bc:	ea f7       	brpl	.-6      	; 0x8b8 <DIO_Init+0x4a>
 8be:	7b 2f       	mov	r23, r27
 8c0:	76 2b       	or	r23, r22
 8c2:	77 bb       	out	0x17, r23	; 23
 8c4:	78 b3       	in	r23, 0x18	; 24
 8c6:	60 95       	com	r22
 8c8:	3f c0       	rjmp	.+126    	; 0x948 <DIO_Init+0xda>
 8ca:	28 30       	cpi	r18, 0x08	; 8
 8cc:	68 f4       	brcc	.+26     	; 0x8e8 <DIO_Init+0x7a>
 8ce:	b4 b3       	in	r27, 0x14	; 20
 8d0:	bc 01       	movw	r22, r24
 8d2:	02 2e       	mov	r0, r18
 8d4:	01 c0       	rjmp	.+2      	; 0x8d8 <DIO_Init+0x6a>
 8d6:	66 0f       	add	r22, r22
 8d8:	0a 94       	dec	r0
 8da:	ea f7       	brpl	.-6      	; 0x8d6 <DIO_Init+0x68>
 8dc:	7b 2f       	mov	r23, r27
 8de:	76 2b       	or	r23, r22
 8e0:	74 bb       	out	0x14, r23	; 20
 8e2:	75 b3       	in	r23, 0x15	; 21
 8e4:	60 95       	com	r22
 8e6:	40 c0       	rjmp	.+128    	; 0x968 <DIO_Init+0xfa>
 8e8:	b1 b3       	in	r27, 0x11	; 17
 8ea:	bc 01       	movw	r22, r24
 8ec:	0a 2e       	mov	r0, r26
 8ee:	01 c0       	rjmp	.+2      	; 0x8f2 <DIO_Init+0x84>
 8f0:	66 0f       	add	r22, r22
 8f2:	0a 94       	dec	r0
 8f4:	ea f7       	brpl	.-6      	; 0x8f0 <DIO_Init+0x82>
 8f6:	7b 2f       	mov	r23, r27
 8f8:	76 2b       	or	r23, r22
 8fa:	71 bb       	out	0x11, r23	; 17
 8fc:	72 b3       	in	r23, 0x12	; 18
 8fe:	60 95       	com	r22
 900:	41 c0       	rjmp	.+130    	; 0x984 <DIO_Init+0x116>
 902:	71 30       	cpi	r23, 0x01	; 1
 904:	09 f0       	breq	.+2      	; 0x908 <DIO_Init+0x9a>
 906:	40 c0       	rjmp	.+128    	; 0x988 <DIO_Init+0x11a>
 908:	48 30       	cpi	r20, 0x08	; 8
 90a:	80 f4       	brcc	.+32     	; 0x92c <DIO_Init+0xbe>
 90c:	ba b3       	in	r27, 0x1a	; 26
 90e:	ec 01       	movw	r28, r24
 910:	04 2e       	mov	r0, r20
 912:	02 c0       	rjmp	.+4      	; 0x918 <DIO_Init+0xaa>
 914:	cc 0f       	add	r28, r28
 916:	dd 1f       	adc	r29, r29
 918:	0a 94       	dec	r0
 91a:	e2 f7       	brpl	.-8      	; 0x914 <DIO_Init+0xa6>
 91c:	be 01       	movw	r22, r28
 91e:	60 95       	com	r22
 920:	7b 2f       	mov	r23, r27
 922:	76 23       	and	r23, r22
 924:	7a bb       	out	0x1a, r23	; 26
 926:	7b b3       	in	r23, 0x1b	; 27
 928:	67 23       	and	r22, r23
 92a:	42 c0       	rjmp	.+132    	; 0x9b0 <DIO_Init+0x142>
 92c:	38 30       	cpi	r19, 0x08	; 8
 92e:	70 f4       	brcc	.+28     	; 0x94c <DIO_Init+0xde>
 930:	b7 b3       	in	r27, 0x17	; 23
 932:	bc 01       	movw	r22, r24
 934:	03 2e       	mov	r0, r19
 936:	01 c0       	rjmp	.+2      	; 0x93a <DIO_Init+0xcc>
 938:	66 0f       	add	r22, r22
 93a:	0a 94       	dec	r0
 93c:	ea f7       	brpl	.-6      	; 0x938 <DIO_Init+0xca>
 93e:	60 95       	com	r22
 940:	7b 2f       	mov	r23, r27
 942:	76 23       	and	r23, r22
 944:	77 bb       	out	0x17, r23	; 23
 946:	78 b3       	in	r23, 0x18	; 24
 948:	67 23       	and	r22, r23
 94a:	43 c0       	rjmp	.+134    	; 0x9d2 <DIO_Init+0x164>
 94c:	28 30       	cpi	r18, 0x08	; 8
 94e:	70 f4       	brcc	.+28     	; 0x96c <DIO_Init+0xfe>
 950:	b4 b3       	in	r27, 0x14	; 20
 952:	bc 01       	movw	r22, r24
 954:	02 2e       	mov	r0, r18
 956:	01 c0       	rjmp	.+2      	; 0x95a <DIO_Init+0xec>
 958:	66 0f       	add	r22, r22
 95a:	0a 94       	dec	r0
 95c:	ea f7       	brpl	.-6      	; 0x958 <DIO_Init+0xea>
 95e:	60 95       	com	r22
 960:	7b 2f       	mov	r23, r27
 962:	76 23       	and	r23, r22
 964:	74 bb       	out	0x14, r23	; 20
 966:	75 b3       	in	r23, 0x15	; 21
 968:	67 23       	and	r22, r23
 96a:	44 c0       	rjmp	.+136    	; 0x9f4 <DIO_Init+0x186>
 96c:	b1 b3       	in	r27, 0x11	; 17
 96e:	bc 01       	movw	r22, r24
 970:	0a 2e       	mov	r0, r26
 972:	01 c0       	rjmp	.+2      	; 0x976 <DIO_Init+0x108>
 974:	66 0f       	add	r22, r22
 976:	0a 94       	dec	r0
 978:	ea f7       	brpl	.-6      	; 0x974 <DIO_Init+0x106>
 97a:	60 95       	com	r22
 97c:	7b 2f       	mov	r23, r27
 97e:	76 23       	and	r23, r22
 980:	71 bb       	out	0x11, r23	; 17
 982:	72 b3       	in	r23, 0x12	; 18
 984:	67 23       	and	r22, r23
 986:	45 c0       	rjmp	.+138    	; 0xa12 <DIO_Init+0x1a4>
 988:	72 30       	cpi	r23, 0x02	; 2
 98a:	09 f0       	breq	.+2      	; 0x98e <DIO_Init+0x120>
 98c:	43 c0       	rjmp	.+134    	; 0xa14 <DIO_Init+0x1a6>
 98e:	48 30       	cpi	r20, 0x08	; 8
 990:	88 f4       	brcc	.+34     	; 0x9b4 <DIO_Init+0x146>
 992:	ba b3       	in	r27, 0x1a	; 26
 994:	ec 01       	movw	r28, r24
 996:	04 2e       	mov	r0, r20
 998:	02 c0       	rjmp	.+4      	; 0x99e <DIO_Init+0x130>
 99a:	cc 0f       	add	r28, r28
 99c:	dd 1f       	adc	r29, r29
 99e:	0a 94       	dec	r0
 9a0:	e2 f7       	brpl	.-8      	; 0x99a <DIO_Init+0x12c>
 9a2:	be 01       	movw	r22, r28
 9a4:	7c 2f       	mov	r23, r28
 9a6:	70 95       	com	r23
 9a8:	7b 23       	and	r23, r27
 9aa:	7a bb       	out	0x1a, r23	; 26
 9ac:	7b b3       	in	r23, 0x1b	; 27
 9ae:	67 2b       	or	r22, r23
 9b0:	6b bb       	out	0x1b, r22	; 27
 9b2:	30 c0       	rjmp	.+96     	; 0xa14 <DIO_Init+0x1a6>
 9b4:	38 30       	cpi	r19, 0x08	; 8
 9b6:	78 f4       	brcc	.+30     	; 0x9d6 <DIO_Init+0x168>
 9b8:	b7 b3       	in	r27, 0x17	; 23
 9ba:	bc 01       	movw	r22, r24
 9bc:	03 2e       	mov	r0, r19
 9be:	01 c0       	rjmp	.+2      	; 0x9c2 <DIO_Init+0x154>
 9c0:	66 0f       	add	r22, r22
 9c2:	0a 94       	dec	r0
 9c4:	ea f7       	brpl	.-6      	; 0x9c0 <DIO_Init+0x152>
 9c6:	76 2f       	mov	r23, r22
 9c8:	70 95       	com	r23
 9ca:	7b 23       	and	r23, r27
 9cc:	77 bb       	out	0x17, r23	; 23
 9ce:	78 b3       	in	r23, 0x18	; 24
 9d0:	67 2b       	or	r22, r23
 9d2:	68 bb       	out	0x18, r22	; 24
 9d4:	1f c0       	rjmp	.+62     	; 0xa14 <DIO_Init+0x1a6>
 9d6:	28 30       	cpi	r18, 0x08	; 8
 9d8:	78 f4       	brcc	.+30     	; 0x9f8 <DIO_Init+0x18a>
 9da:	b4 b3       	in	r27, 0x14	; 20
 9dc:	bc 01       	movw	r22, r24
 9de:	02 2e       	mov	r0, r18
 9e0:	01 c0       	rjmp	.+2      	; 0x9e4 <DIO_Init+0x176>
 9e2:	66 0f       	add	r22, r22
 9e4:	0a 94       	dec	r0
 9e6:	ea f7       	brpl	.-6      	; 0x9e2 <DIO_Init+0x174>
 9e8:	76 2f       	mov	r23, r22
 9ea:	70 95       	com	r23
 9ec:	7b 23       	and	r23, r27
 9ee:	74 bb       	out	0x14, r23	; 20
 9f0:	75 b3       	in	r23, 0x15	; 21
 9f2:	67 2b       	or	r22, r23
 9f4:	65 bb       	out	0x15, r22	; 21
 9f6:	0e c0       	rjmp	.+28     	; 0xa14 <DIO_Init+0x1a6>
 9f8:	b1 b3       	in	r27, 0x11	; 17
 9fa:	bc 01       	movw	r22, r24
 9fc:	0a 2e       	mov	r0, r26
 9fe:	01 c0       	rjmp	.+2      	; 0xa02 <DIO_Init+0x194>
 a00:	66 0f       	add	r22, r22
 a02:	0a 94       	dec	r0
 a04:	ea f7       	brpl	.-6      	; 0xa00 <DIO_Init+0x192>
 a06:	76 2f       	mov	r23, r22
 a08:	70 95       	com	r23
 a0a:	7b 23       	and	r23, r27
 a0c:	71 bb       	out	0x11, r23	; 17
 a0e:	72 b3       	in	r23, 0x12	; 18
 a10:	67 2b       	or	r22, r23
 a12:	62 bb       	out	0x12, r22	; 18
 a14:	4f 5f       	subi	r20, 0xFF	; 255
 a16:	5f 4f       	sbci	r21, 0xFF	; 255
 a18:	3f 5f       	subi	r19, 0xFF	; 255
 a1a:	af 5f       	subi	r26, 0xFF	; 255
 a1c:	2f 5f       	subi	r18, 0xFF	; 255
 a1e:	40 32       	cpi	r20, 0x20	; 32
 a20:	51 05       	cpc	r21, r1
 a22:	09 f0       	breq	.+2      	; 0xa26 <DIO_Init+0x1b8>
 a24:	2f cf       	rjmp	.-418    	; 0x884 <DIO_Init+0x16>
 a26:	df 91       	pop	r29
 a28:	cf 91       	pop	r28
 a2a:	08 95       	ret

00000a2c <DIO_WritePin>:
 a2c:	61 11       	cpse	r22, r1
 a2e:	3c c0       	rjmp	.+120    	; 0xaa8 <DIO_WritePin+0x7c>
 a30:	88 30       	cpi	r24, 0x08	; 8
 a32:	68 f4       	brcc	.+26     	; 0xa4e <DIO_WritePin+0x22>
 a34:	4b b3       	in	r20, 0x1b	; 27
 a36:	21 e0       	ldi	r18, 0x01	; 1
 a38:	30 e0       	ldi	r19, 0x00	; 0
 a3a:	b9 01       	movw	r22, r18
 a3c:	02 c0       	rjmp	.+4      	; 0xa42 <DIO_WritePin+0x16>
 a3e:	66 0f       	add	r22, r22
 a40:	77 1f       	adc	r23, r23
 a42:	8a 95       	dec	r24
 a44:	e2 f7       	brpl	.-8      	; 0xa3e <DIO_WritePin+0x12>
 a46:	cb 01       	movw	r24, r22
 a48:	80 95       	com	r24
 a4a:	84 23       	and	r24, r20
 a4c:	3c c0       	rjmp	.+120    	; 0xac6 <DIO_WritePin+0x9a>
 a4e:	38 ef       	ldi	r19, 0xF8	; 248
 a50:	38 0f       	add	r19, r24
 a52:	38 30       	cpi	r19, 0x08	; 8
 a54:	50 f4       	brcc	.+20     	; 0xa6a <DIO_WritePin+0x3e>
 a56:	28 b3       	in	r18, 0x18	; 24
 a58:	81 e0       	ldi	r24, 0x01	; 1
 a5a:	90 e0       	ldi	r25, 0x00	; 0
 a5c:	01 c0       	rjmp	.+2      	; 0xa60 <DIO_WritePin+0x34>
 a5e:	88 0f       	add	r24, r24
 a60:	3a 95       	dec	r19
 a62:	ea f7       	brpl	.-6      	; 0xa5e <DIO_WritePin+0x32>
 a64:	80 95       	com	r24
 a66:	82 23       	and	r24, r18
 a68:	3c c0       	rjmp	.+120    	; 0xae2 <DIO_WritePin+0xb6>
 a6a:	30 ef       	ldi	r19, 0xF0	; 240
 a6c:	38 0f       	add	r19, r24
 a6e:	38 30       	cpi	r19, 0x08	; 8
 a70:	50 f4       	brcc	.+20     	; 0xa86 <DIO_WritePin+0x5a>
 a72:	25 b3       	in	r18, 0x15	; 21
 a74:	81 e0       	ldi	r24, 0x01	; 1
 a76:	90 e0       	ldi	r25, 0x00	; 0
 a78:	01 c0       	rjmp	.+2      	; 0xa7c <DIO_WritePin+0x50>
 a7a:	88 0f       	add	r24, r24
 a7c:	3a 95       	dec	r19
 a7e:	ea f7       	brpl	.-6      	; 0xa7a <DIO_WritePin+0x4e>
 a80:	80 95       	com	r24
 a82:	82 23       	and	r24, r18
 a84:	3c c0       	rjmp	.+120    	; 0xafe <DIO_WritePin+0xd2>
 a86:	88 51       	subi	r24, 0x18	; 24
 a88:	88 30       	cpi	r24, 0x08	; 8
 a8a:	08 f0       	brcs	.+2      	; 0xa8e <DIO_WritePin+0x62>
 a8c:	49 c0       	rjmp	.+146    	; 0xb20 <DIO_WritePin+0xf4>
 a8e:	42 b3       	in	r20, 0x12	; 18
 a90:	21 e0       	ldi	r18, 0x01	; 1
 a92:	30 e0       	ldi	r19, 0x00	; 0
 a94:	b9 01       	movw	r22, r18
 a96:	02 c0       	rjmp	.+4      	; 0xa9c <DIO_WritePin+0x70>
 a98:	66 0f       	add	r22, r22
 a9a:	77 1f       	adc	r23, r23
 a9c:	8a 95       	dec	r24
 a9e:	e2 f7       	brpl	.-8      	; 0xa98 <DIO_WritePin+0x6c>
 aa0:	cb 01       	movw	r24, r22
 aa2:	80 95       	com	r24
 aa4:	84 23       	and	r24, r20
 aa6:	3b c0       	rjmp	.+118    	; 0xb1e <DIO_WritePin+0xf2>
 aa8:	61 30       	cpi	r22, 0x01	; 1
 aaa:	d1 f5       	brne	.+116    	; 0xb20 <DIO_WritePin+0xf4>
 aac:	88 30       	cpi	r24, 0x08	; 8
 aae:	68 f4       	brcc	.+26     	; 0xaca <DIO_WritePin+0x9e>
 ab0:	4b b3       	in	r20, 0x1b	; 27
 ab2:	21 e0       	ldi	r18, 0x01	; 1
 ab4:	30 e0       	ldi	r19, 0x00	; 0
 ab6:	b9 01       	movw	r22, r18
 ab8:	02 c0       	rjmp	.+4      	; 0xabe <DIO_WritePin+0x92>
 aba:	66 0f       	add	r22, r22
 abc:	77 1f       	adc	r23, r23
 abe:	8a 95       	dec	r24
 ac0:	e2 f7       	brpl	.-8      	; 0xaba <DIO_WritePin+0x8e>
 ac2:	cb 01       	movw	r24, r22
 ac4:	84 2b       	or	r24, r20
 ac6:	8b bb       	out	0x1b, r24	; 27
 ac8:	08 95       	ret
 aca:	28 ef       	ldi	r18, 0xF8	; 248
 acc:	28 0f       	add	r18, r24
 ace:	28 30       	cpi	r18, 0x08	; 8
 ad0:	50 f4       	brcc	.+20     	; 0xae6 <DIO_WritePin+0xba>
 ad2:	38 b3       	in	r19, 0x18	; 24
 ad4:	81 e0       	ldi	r24, 0x01	; 1
 ad6:	90 e0       	ldi	r25, 0x00	; 0
 ad8:	01 c0       	rjmp	.+2      	; 0xadc <DIO_WritePin+0xb0>
 ada:	88 0f       	add	r24, r24
 adc:	2a 95       	dec	r18
 ade:	ea f7       	brpl	.-6      	; 0xada <DIO_WritePin+0xae>
 ae0:	83 2b       	or	r24, r19
 ae2:	88 bb       	out	0x18, r24	; 24
 ae4:	08 95       	ret
 ae6:	20 ef       	ldi	r18, 0xF0	; 240
 ae8:	28 0f       	add	r18, r24
 aea:	28 30       	cpi	r18, 0x08	; 8
 aec:	50 f4       	brcc	.+20     	; 0xb02 <DIO_WritePin+0xd6>
 aee:	35 b3       	in	r19, 0x15	; 21
 af0:	81 e0       	ldi	r24, 0x01	; 1
 af2:	90 e0       	ldi	r25, 0x00	; 0
 af4:	01 c0       	rjmp	.+2      	; 0xaf8 <DIO_WritePin+0xcc>
 af6:	88 0f       	add	r24, r24
 af8:	2a 95       	dec	r18
 afa:	ea f7       	brpl	.-6      	; 0xaf6 <DIO_WritePin+0xca>
 afc:	83 2b       	or	r24, r19
 afe:	85 bb       	out	0x15, r24	; 21
 b00:	08 95       	ret
 b02:	88 51       	subi	r24, 0x18	; 24
 b04:	88 30       	cpi	r24, 0x08	; 8
 b06:	60 f4       	brcc	.+24     	; 0xb20 <DIO_WritePin+0xf4>
 b08:	42 b3       	in	r20, 0x12	; 18
 b0a:	21 e0       	ldi	r18, 0x01	; 1
 b0c:	30 e0       	ldi	r19, 0x00	; 0
 b0e:	b9 01       	movw	r22, r18
 b10:	02 c0       	rjmp	.+4      	; 0xb16 <DIO_WritePin+0xea>
 b12:	66 0f       	add	r22, r22
 b14:	77 1f       	adc	r23, r23
 b16:	8a 95       	dec	r24
 b18:	e2 f7       	brpl	.-8      	; 0xb12 <DIO_WritePin+0xe6>
 b1a:	cb 01       	movw	r24, r22
 b1c:	84 2b       	or	r24, r20
 b1e:	82 bb       	out	0x12, r24	; 18
 b20:	08 95       	ret

00000b22 <__vector_1>:
 b22:	1f 92       	push	r1
 b24:	0f 92       	push	r0
 b26:	0f b6       	in	r0, 0x3f	; 63
 b28:	0f 92       	push	r0
 b2a:	11 24       	eor	r1, r1
 b2c:	2f 93       	push	r18
 b2e:	3f 93       	push	r19
 b30:	4f 93       	push	r20
 b32:	5f 93       	push	r21
 b34:	6f 93       	push	r22
 b36:	7f 93       	push	r23
 b38:	8f 93       	push	r24
 b3a:	9f 93       	push	r25
 b3c:	af 93       	push	r26
 b3e:	bf 93       	push	r27
 b40:	ef 93       	push	r30
 b42:	ff 93       	push	r31
 b44:	e0 91 8a 00 	lds	r30, 0x008A	; 0x80008a <FUNC_PTR0>
 b48:	f0 91 8b 00 	lds	r31, 0x008B	; 0x80008b <FUNC_PTR0+0x1>
 b4c:	30 97       	sbiw	r30, 0x00	; 0
 b4e:	09 f0       	breq	.+2      	; 0xb52 <__vector_1+0x30>
 b50:	09 95       	icall
 b52:	ff 91       	pop	r31
 b54:	ef 91       	pop	r30
 b56:	bf 91       	pop	r27
 b58:	af 91       	pop	r26
 b5a:	9f 91       	pop	r25
 b5c:	8f 91       	pop	r24
 b5e:	7f 91       	pop	r23
 b60:	6f 91       	pop	r22
 b62:	5f 91       	pop	r21
 b64:	4f 91       	pop	r20
 b66:	3f 91       	pop	r19
 b68:	2f 91       	pop	r18
 b6a:	0f 90       	pop	r0
 b6c:	0f be       	out	0x3f, r0	; 63
 b6e:	0f 90       	pop	r0
 b70:	1f 90       	pop	r1
 b72:	18 95       	reti

00000b74 <__vector_2>:
 b74:	1f 92       	push	r1
 b76:	0f 92       	push	r0
 b78:	0f b6       	in	r0, 0x3f	; 63
 b7a:	0f 92       	push	r0
 b7c:	11 24       	eor	r1, r1
 b7e:	2f 93       	push	r18
 b80:	3f 93       	push	r19
 b82:	4f 93       	push	r20
 b84:	5f 93       	push	r21
 b86:	6f 93       	push	r22
 b88:	7f 93       	push	r23
 b8a:	8f 93       	push	r24
 b8c:	9f 93       	push	r25
 b8e:	af 93       	push	r26
 b90:	bf 93       	push	r27
 b92:	ef 93       	push	r30
 b94:	ff 93       	push	r31
 b96:	e0 91 88 00 	lds	r30, 0x0088	; 0x800088 <FUNC_PTR1>
 b9a:	f0 91 89 00 	lds	r31, 0x0089	; 0x800089 <FUNC_PTR1+0x1>
 b9e:	30 97       	sbiw	r30, 0x00	; 0
 ba0:	09 f0       	breq	.+2      	; 0xba4 <__vector_2+0x30>
 ba2:	09 95       	icall
 ba4:	ff 91       	pop	r31
 ba6:	ef 91       	pop	r30
 ba8:	bf 91       	pop	r27
 baa:	af 91       	pop	r26
 bac:	9f 91       	pop	r25
 bae:	8f 91       	pop	r24
 bb0:	7f 91       	pop	r23
 bb2:	6f 91       	pop	r22
 bb4:	5f 91       	pop	r21
 bb6:	4f 91       	pop	r20
 bb8:	3f 91       	pop	r19
 bba:	2f 91       	pop	r18
 bbc:	0f 90       	pop	r0
 bbe:	0f be       	out	0x3f, r0	; 63
 bc0:	0f 90       	pop	r0
 bc2:	1f 90       	pop	r1
 bc4:	18 95       	reti

00000bc6 <__vector_3>:
 bc6:	1f 92       	push	r1
 bc8:	0f 92       	push	r0
 bca:	0f b6       	in	r0, 0x3f	; 63
 bcc:	0f 92       	push	r0
 bce:	11 24       	eor	r1, r1
 bd0:	2f 93       	push	r18
 bd2:	3f 93       	push	r19
 bd4:	4f 93       	push	r20
 bd6:	5f 93       	push	r21
 bd8:	6f 93       	push	r22
 bda:	7f 93       	push	r23
 bdc:	8f 93       	push	r24
 bde:	9f 93       	push	r25
 be0:	af 93       	push	r26
 be2:	bf 93       	push	r27
 be4:	ef 93       	push	r30
 be6:	ff 93       	push	r31
 be8:	e0 91 86 00 	lds	r30, 0x0086	; 0x800086 <FUNC_PTR2>
 bec:	f0 91 87 00 	lds	r31, 0x0087	; 0x800087 <FUNC_PTR2+0x1>
 bf0:	30 97       	sbiw	r30, 0x00	; 0
 bf2:	09 f0       	breq	.+2      	; 0xbf6 <__vector_3+0x30>
 bf4:	09 95       	icall
 bf6:	ff 91       	pop	r31
 bf8:	ef 91       	pop	r30
 bfa:	bf 91       	pop	r27
 bfc:	af 91       	pop	r26
 bfe:	9f 91       	pop	r25
 c00:	8f 91       	pop	r24
 c02:	7f 91       	pop	r23
 c04:	6f 91       	pop	r22
 c06:	5f 91       	pop	r21
 c08:	4f 91       	pop	r20
 c0a:	3f 91       	pop	r19
 c0c:	2f 91       	pop	r18
 c0e:	0f 90       	pop	r0
 c10:	0f be       	out	0x3f, r0	; 63
 c12:	0f 90       	pop	r0
 c14:	1f 90       	pop	r1
 c16:	18 95       	reti

00000c18 <__vector_12>:
 c18:	1f 92       	push	r1
 c1a:	0f 92       	push	r0
 c1c:	0f b6       	in	r0, 0x3f	; 63
 c1e:	0f 92       	push	r0
 c20:	11 24       	eor	r1, r1
 c22:	2f 93       	push	r18
 c24:	3f 93       	push	r19
 c26:	4f 93       	push	r20
 c28:	5f 93       	push	r21
 c2a:	6f 93       	push	r22
 c2c:	7f 93       	push	r23
 c2e:	8f 93       	push	r24
 c30:	9f 93       	push	r25
 c32:	af 93       	push	r26
 c34:	bf 93       	push	r27
 c36:	ef 93       	push	r30
 c38:	ff 93       	push	r31
 c3a:	e0 91 8c 00 	lds	r30, 0x008C	; 0x80008c <SPI_INTERRUP_PTR>
 c3e:	f0 91 8d 00 	lds	r31, 0x008D	; 0x80008d <SPI_INTERRUP_PTR+0x1>
 c42:	30 97       	sbiw	r30, 0x00	; 0
 c44:	09 f0       	breq	.+2      	; 0xc48 <__vector_12+0x30>
 c46:	09 95       	icall
 c48:	ff 91       	pop	r31
 c4a:	ef 91       	pop	r30
 c4c:	bf 91       	pop	r27
 c4e:	af 91       	pop	r26
 c50:	9f 91       	pop	r25
 c52:	8f 91       	pop	r24
 c54:	7f 91       	pop	r23
 c56:	6f 91       	pop	r22
 c58:	5f 91       	pop	r21
 c5a:	4f 91       	pop	r20
 c5c:	3f 91       	pop	r19
 c5e:	2f 91       	pop	r18
 c60:	0f 90       	pop	r0
 c62:	0f be       	out	0x3f, r0	; 63
 c64:	0f 90       	pop	r0
 c66:	1f 90       	pop	r1
 c68:	18 95       	reti

00000c6a <__vector_10>:
 c6a:	1f 92       	push	r1
 c6c:	0f 92       	push	r0
 c6e:	0f b6       	in	r0, 0x3f	; 63
 c70:	0f 92       	push	r0
 c72:	11 24       	eor	r1, r1
 c74:	2f 93       	push	r18
 c76:	3f 93       	push	r19
 c78:	4f 93       	push	r20
 c7a:	5f 93       	push	r21
 c7c:	6f 93       	push	r22
 c7e:	7f 93       	push	r23
 c80:	8f 93       	push	r24
 c82:	9f 93       	push	r25
 c84:	af 93       	push	r26
 c86:	bf 93       	push	r27
 c88:	ef 93       	push	r30
 c8a:	ff 93       	push	r31
 c8c:	e0 91 90 00 	lds	r30, 0x0090	; 0x800090 <funcPtrCompareMatch>
 c90:	f0 91 91 00 	lds	r31, 0x0091	; 0x800091 <funcPtrCompareMatch+0x1>
 c94:	30 97       	sbiw	r30, 0x00	; 0
 c96:	09 f0       	breq	.+2      	; 0xc9a <__vector_10+0x30>
 c98:	09 95       	icall
 c9a:	ff 91       	pop	r31
 c9c:	ef 91       	pop	r30
 c9e:	bf 91       	pop	r27
 ca0:	af 91       	pop	r26
 ca2:	9f 91       	pop	r25
 ca4:	8f 91       	pop	r24
 ca6:	7f 91       	pop	r23
 ca8:	6f 91       	pop	r22
 caa:	5f 91       	pop	r21
 cac:	4f 91       	pop	r20
 cae:	3f 91       	pop	r19
 cb0:	2f 91       	pop	r18
 cb2:	0f 90       	pop	r0
 cb4:	0f be       	out	0x3f, r0	; 63
 cb6:	0f 90       	pop	r0
 cb8:	1f 90       	pop	r1
 cba:	18 95       	reti

00000cbc <__vector_11>:
 cbc:	1f 92       	push	r1
 cbe:	0f 92       	push	r0
 cc0:	0f b6       	in	r0, 0x3f	; 63
 cc2:	0f 92       	push	r0
 cc4:	11 24       	eor	r1, r1
 cc6:	2f 93       	push	r18
 cc8:	3f 93       	push	r19
 cca:	4f 93       	push	r20
 ccc:	5f 93       	push	r21
 cce:	6f 93       	push	r22
 cd0:	7f 93       	push	r23
 cd2:	8f 93       	push	r24
 cd4:	9f 93       	push	r25
 cd6:	af 93       	push	r26
 cd8:	bf 93       	push	r27
 cda:	ef 93       	push	r30
 cdc:	ff 93       	push	r31
 cde:	e0 91 8e 00 	lds	r30, 0x008E	; 0x80008e <funcPtrOverflow>
 ce2:	f0 91 8f 00 	lds	r31, 0x008F	; 0x80008f <funcPtrOverflow+0x1>
 ce6:	30 97       	sbiw	r30, 0x00	; 0
 ce8:	09 f0       	breq	.+2      	; 0xcec <__vector_11+0x30>
 cea:	09 95       	icall
 cec:	ff 91       	pop	r31
 cee:	ef 91       	pop	r30
 cf0:	bf 91       	pop	r27
 cf2:	af 91       	pop	r26
 cf4:	9f 91       	pop	r25
 cf6:	8f 91       	pop	r24
 cf8:	7f 91       	pop	r23
 cfa:	6f 91       	pop	r22
 cfc:	5f 91       	pop	r21
 cfe:	4f 91       	pop	r20
 d00:	3f 91       	pop	r19
 d02:	2f 91       	pop	r18
 d04:	0f 90       	pop	r0
 d06:	0f be       	out	0x3f, r0	; 63
 d08:	0f 90       	pop	r0
 d0a:	1f 90       	pop	r1
 d0c:	18 95       	reti

00000d0e <__vector_7>:
 d0e:	1f 92       	push	r1
 d10:	0f 92       	push	r0
 d12:	0f b6       	in	r0, 0x3f	; 63
 d14:	0f 92       	push	r0
 d16:	11 24       	eor	r1, r1
 d18:	2f 93       	push	r18
 d1a:	3f 93       	push	r19
 d1c:	4f 93       	push	r20
 d1e:	5f 93       	push	r21
 d20:	6f 93       	push	r22
 d22:	7f 93       	push	r23
 d24:	8f 93       	push	r24
 d26:	9f 93       	push	r25
 d28:	af 93       	push	r26
 d2a:	bf 93       	push	r27
 d2c:	ef 93       	push	r30
 d2e:	ff 93       	push	r31
 d30:	e0 91 98 00 	lds	r30, 0x0098	; 0x800098 <funcPtrCompareMatch1A>
 d34:	f0 91 99 00 	lds	r31, 0x0099	; 0x800099 <funcPtrCompareMatch1A+0x1>
 d38:	30 97       	sbiw	r30, 0x00	; 0
 d3a:	09 f0       	breq	.+2      	; 0xd3e <__vector_7+0x30>
 d3c:	09 95       	icall
 d3e:	ff 91       	pop	r31
 d40:	ef 91       	pop	r30
 d42:	bf 91       	pop	r27
 d44:	af 91       	pop	r26
 d46:	9f 91       	pop	r25
 d48:	8f 91       	pop	r24
 d4a:	7f 91       	pop	r23
 d4c:	6f 91       	pop	r22
 d4e:	5f 91       	pop	r21
 d50:	4f 91       	pop	r20
 d52:	3f 91       	pop	r19
 d54:	2f 91       	pop	r18
 d56:	0f 90       	pop	r0
 d58:	0f be       	out	0x3f, r0	; 63
 d5a:	0f 90       	pop	r0
 d5c:	1f 90       	pop	r1
 d5e:	18 95       	reti

00000d60 <__vector_8>:
 d60:	1f 92       	push	r1
 d62:	0f 92       	push	r0
 d64:	0f b6       	in	r0, 0x3f	; 63
 d66:	0f 92       	push	r0
 d68:	11 24       	eor	r1, r1
 d6a:	2f 93       	push	r18
 d6c:	3f 93       	push	r19
 d6e:	4f 93       	push	r20
 d70:	5f 93       	push	r21
 d72:	6f 93       	push	r22
 d74:	7f 93       	push	r23
 d76:	8f 93       	push	r24
 d78:	9f 93       	push	r25
 d7a:	af 93       	push	r26
 d7c:	bf 93       	push	r27
 d7e:	ef 93       	push	r30
 d80:	ff 93       	push	r31
 d82:	e0 91 96 00 	lds	r30, 0x0096	; 0x800096 <funcPtrCompareMatch1B>
 d86:	f0 91 97 00 	lds	r31, 0x0097	; 0x800097 <funcPtrCompareMatch1B+0x1>
 d8a:	30 97       	sbiw	r30, 0x00	; 0
 d8c:	09 f0       	breq	.+2      	; 0xd90 <__vector_8+0x30>
 d8e:	09 95       	icall
 d90:	ff 91       	pop	r31
 d92:	ef 91       	pop	r30
 d94:	bf 91       	pop	r27
 d96:	af 91       	pop	r26
 d98:	9f 91       	pop	r25
 d9a:	8f 91       	pop	r24
 d9c:	7f 91       	pop	r23
 d9e:	6f 91       	pop	r22
 da0:	5f 91       	pop	r21
 da2:	4f 91       	pop	r20
 da4:	3f 91       	pop	r19
 da6:	2f 91       	pop	r18
 da8:	0f 90       	pop	r0
 daa:	0f be       	out	0x3f, r0	; 63
 dac:	0f 90       	pop	r0
 dae:	1f 90       	pop	r1
 db0:	18 95       	reti

00000db2 <__vector_9>:
 db2:	1f 92       	push	r1
 db4:	0f 92       	push	r0
 db6:	0f b6       	in	r0, 0x3f	; 63
 db8:	0f 92       	push	r0
 dba:	11 24       	eor	r1, r1
 dbc:	2f 93       	push	r18
 dbe:	3f 93       	push	r19
 dc0:	4f 93       	push	r20
 dc2:	5f 93       	push	r21
 dc4:	6f 93       	push	r22
 dc6:	7f 93       	push	r23
 dc8:	8f 93       	push	r24
 dca:	9f 93       	push	r25
 dcc:	af 93       	push	r26
 dce:	bf 93       	push	r27
 dd0:	ef 93       	push	r30
 dd2:	ff 93       	push	r31
 dd4:	e0 91 94 00 	lds	r30, 0x0094	; 0x800094 <funcPtrOverflow>
 dd8:	f0 91 95 00 	lds	r31, 0x0095	; 0x800095 <funcPtrOverflow+0x1>
 ddc:	30 97       	sbiw	r30, 0x00	; 0
 dde:	09 f0       	breq	.+2      	; 0xde2 <__vector_9+0x30>
 de0:	09 95       	icall
 de2:	ff 91       	pop	r31
 de4:	ef 91       	pop	r30
 de6:	bf 91       	pop	r27
 de8:	af 91       	pop	r26
 dea:	9f 91       	pop	r25
 dec:	8f 91       	pop	r24
 dee:	7f 91       	pop	r23
 df0:	6f 91       	pop	r22
 df2:	5f 91       	pop	r21
 df4:	4f 91       	pop	r20
 df6:	3f 91       	pop	r19
 df8:	2f 91       	pop	r18
 dfa:	0f 90       	pop	r0
 dfc:	0f be       	out	0x3f, r0	; 63
 dfe:	0f 90       	pop	r0
 e00:	1f 90       	pop	r1
 e02:	18 95       	reti

00000e04 <__vector_6>:
 e04:	1f 92       	push	r1
 e06:	0f 92       	push	r0
 e08:	0f b6       	in	r0, 0x3f	; 63
 e0a:	0f 92       	push	r0
 e0c:	11 24       	eor	r1, r1
 e0e:	2f 93       	push	r18
 e10:	3f 93       	push	r19
 e12:	4f 93       	push	r20
 e14:	5f 93       	push	r21
 e16:	6f 93       	push	r22
 e18:	7f 93       	push	r23
 e1a:	8f 93       	push	r24
 e1c:	9f 93       	push	r25
 e1e:	af 93       	push	r26
 e20:	bf 93       	push	r27
 e22:	ef 93       	push	r30
 e24:	ff 93       	push	r31
 e26:	e0 91 92 00 	lds	r30, 0x0092	; 0x800092 <funcPtrTimeStamp>
 e2a:	f0 91 93 00 	lds	r31, 0x0093	; 0x800093 <funcPtrTimeStamp+0x1>
 e2e:	30 97       	sbiw	r30, 0x00	; 0
 e30:	09 f0       	breq	.+2      	; 0xe34 <__vector_6+0x30>
 e32:	09 95       	icall
 e34:	ff 91       	pop	r31
 e36:	ef 91       	pop	r30
 e38:	bf 91       	pop	r27
 e3a:	af 91       	pop	r26
 e3c:	9f 91       	pop	r25
 e3e:	8f 91       	pop	r24
 e40:	7f 91       	pop	r23
 e42:	6f 91       	pop	r22
 e44:	5f 91       	pop	r21
 e46:	4f 91       	pop	r20
 e48:	3f 91       	pop	r19
 e4a:	2f 91       	pop	r18
 e4c:	0f 90       	pop	r0
 e4e:	0f be       	out	0x3f, r0	; 63
 e50:	0f 90       	pop	r0
 e52:	1f 90       	pop	r1
 e54:	18 95       	reti

00000e56 <__vector_13>:
 e56:	1f 92       	push	r1
 e58:	0f 92       	push	r0
 e5a:	0f b6       	in	r0, 0x3f	; 63
 e5c:	0f 92       	push	r0
 e5e:	11 24       	eor	r1, r1
 e60:	2f 93       	push	r18
 e62:	3f 93       	push	r19
 e64:	4f 93       	push	r20
 e66:	5f 93       	push	r21
 e68:	6f 93       	push	r22
 e6a:	7f 93       	push	r23
 e6c:	8f 93       	push	r24
 e6e:	9f 93       	push	r25
 e70:	af 93       	push	r26
 e72:	bf 93       	push	r27
 e74:	ef 93       	push	r30
 e76:	ff 93       	push	r31
 e78:	e0 91 9e 00 	lds	r30, 0x009E	; 0x80009e <RXcomplateInterruptPTR>
 e7c:	f0 91 9f 00 	lds	r31, 0x009F	; 0x80009f <RXcomplateInterruptPTR+0x1>
 e80:	30 97       	sbiw	r30, 0x00	; 0
 e82:	09 f0       	breq	.+2      	; 0xe86 <__vector_13+0x30>
 e84:	09 95       	icall
 e86:	ff 91       	pop	r31
 e88:	ef 91       	pop	r30
 e8a:	bf 91       	pop	r27
 e8c:	af 91       	pop	r26
 e8e:	9f 91       	pop	r25
 e90:	8f 91       	pop	r24
 e92:	7f 91       	pop	r23
 e94:	6f 91       	pop	r22
 e96:	5f 91       	pop	r21
 e98:	4f 91       	pop	r20
 e9a:	3f 91       	pop	r19
 e9c:	2f 91       	pop	r18
 e9e:	0f 90       	pop	r0
 ea0:	0f be       	out	0x3f, r0	; 63
 ea2:	0f 90       	pop	r0
 ea4:	1f 90       	pop	r1
 ea6:	18 95       	reti

00000ea8 <__vector_15>:
 ea8:	1f 92       	push	r1
 eaa:	0f 92       	push	r0
 eac:	0f b6       	in	r0, 0x3f	; 63
 eae:	0f 92       	push	r0
 eb0:	11 24       	eor	r1, r1
 eb2:	2f 93       	push	r18
 eb4:	3f 93       	push	r19
 eb6:	4f 93       	push	r20
 eb8:	5f 93       	push	r21
 eba:	6f 93       	push	r22
 ebc:	7f 93       	push	r23
 ebe:	8f 93       	push	r24
 ec0:	9f 93       	push	r25
 ec2:	af 93       	push	r26
 ec4:	bf 93       	push	r27
 ec6:	ef 93       	push	r30
 ec8:	ff 93       	push	r31
 eca:	e0 91 9c 00 	lds	r30, 0x009C	; 0x80009c <TXcomplateInterruptPTR>
 ece:	f0 91 9d 00 	lds	r31, 0x009D	; 0x80009d <TXcomplateInterruptPTR+0x1>
 ed2:	30 97       	sbiw	r30, 0x00	; 0
 ed4:	09 f0       	breq	.+2      	; 0xed8 <__vector_15+0x30>
 ed6:	09 95       	icall
 ed8:	ff 91       	pop	r31
 eda:	ef 91       	pop	r30
 edc:	bf 91       	pop	r27
 ede:	af 91       	pop	r26
 ee0:	9f 91       	pop	r25
 ee2:	8f 91       	pop	r24
 ee4:	7f 91       	pop	r23
 ee6:	6f 91       	pop	r22
 ee8:	5f 91       	pop	r21
 eea:	4f 91       	pop	r20
 eec:	3f 91       	pop	r19
 eee:	2f 91       	pop	r18
 ef0:	0f 90       	pop	r0
 ef2:	0f be       	out	0x3f, r0	; 63
 ef4:	0f 90       	pop	r0
 ef6:	1f 90       	pop	r1
 ef8:	18 95       	reti

00000efa <__vector_14>:
 efa:	1f 92       	push	r1
 efc:	0f 92       	push	r0
 efe:	0f b6       	in	r0, 0x3f	; 63
 f00:	0f 92       	push	r0
 f02:	11 24       	eor	r1, r1
 f04:	2f 93       	push	r18
 f06:	3f 93       	push	r19
 f08:	4f 93       	push	r20
 f0a:	5f 93       	push	r21
 f0c:	6f 93       	push	r22
 f0e:	7f 93       	push	r23
 f10:	8f 93       	push	r24
 f12:	9f 93       	push	r25
 f14:	af 93       	push	r26
 f16:	bf 93       	push	r27
 f18:	ef 93       	push	r30
 f1a:	ff 93       	push	r31
 f1c:	e0 91 9a 00 	lds	r30, 0x009A	; 0x80009a <UDRemptyInterruptPTR>
 f20:	f0 91 9b 00 	lds	r31, 0x009B	; 0x80009b <UDRemptyInterruptPTR+0x1>
 f24:	30 97       	sbiw	r30, 0x00	; 0
 f26:	09 f0       	breq	.+2      	; 0xf2a <__vector_14+0x30>
 f28:	09 95       	icall
 f2a:	ff 91       	pop	r31
 f2c:	ef 91       	pop	r30
 f2e:	bf 91       	pop	r27
 f30:	af 91       	pop	r26
 f32:	9f 91       	pop	r25
 f34:	8f 91       	pop	r24
 f36:	7f 91       	pop	r23
 f38:	6f 91       	pop	r22
 f3a:	5f 91       	pop	r21
 f3c:	4f 91       	pop	r20
 f3e:	3f 91       	pop	r19
 f40:	2f 91       	pop	r18
 f42:	0f 90       	pop	r0
 f44:	0f be       	out	0x3f, r0	; 63
 f46:	0f 90       	pop	r0
 f48:	1f 90       	pop	r1
 f4a:	18 95       	reti

00000f4c <_exit>:
 f4c:	f8 94       	cli

00000f4e <__stop_program>:
 f4e:	ff cf       	rjmp	.-2      	; 0xf4e <__stop_program>
