
atmega32_ECU.elf:     file format elf32-avr

Sections:
Idx Name          Size      VMA       LMA       File off  Algn
  0 .text         00000d14  00000000  00000000  00000094  2**1
                  CONTENTS, ALLOC, LOAD, READONLY, CODE
  1 .data         00000042  00800060  00000d14  00000da8  2**0
                  CONTENTS, ALLOC, LOAD, DATA
  2 .bss          00000030  008000a2  008000a2  00000dea  2**0
                  ALLOC
  3 .comment      00000030  00000000  00000000  00000dea  2**0
                  CONTENTS, READONLY
  4 .note.gnu.avr.deviceinfo 0000003c  00000000  00000000  00000e1c  2**2
                  CONTENTS, READONLY
  5 .debug_info   000004e6  00000000  00000000  00000e58  2**0
                  CONTENTS, READONLY, DEBUGGING
  6 .debug_abbrev 000004a3  00000000  00000000  0000133e  2**0
                  CONTENTS, READONLY, DEBUGGING
  7 .debug_line   00000116  00000000  00000000  000017e1  2**0
                  CONTENTS, READONLY, DEBUGGING
  8 .debug_str    00000196  00000000  00000000  000018f7  2**0
                  CONTENTS, READONLY, DEBUGGING

Disassembly of section .text:

00000000 <__vectors>:
   0:	0c 94 2a 00 	jmp	0x54	; 0x54 <__ctors_end>
   4:	0c 94 73 04 	jmp	0x8e6	; 0x8e6 <__vector_1>
   8:	0c 94 9c 04 	jmp	0x938	; 0x938 <__vector_2>
   c:	0c 94 c5 04 	jmp	0x98a	; 0x98a <__vector_3>
  10:	0c 94 47 00 	jmp	0x8e	; 0x8e <__bad_interrupt>
  14:	0c 94 47 00 	jmp	0x8e	; 0x8e <__bad_interrupt>
  18:	0c 94 e4 05 	jmp	0xbc8	; 0xbc8 <__vector_6>
  1c:	0c 94 69 05 	jmp	0xad2	; 0xad2 <__vector_7>
  20:	0c 94 92 05 	jmp	0xb24	; 0xb24 <__vector_8>
  24:	0c 94 bb 05 	jmp	0xb76	; 0xb76 <__vector_9>
  28:	0c 94 17 05 	jmp	0xa2e	; 0xa2e <__vector_10>
  2c:	0c 94 40 05 	jmp	0xa80	; 0xa80 <__vector_11>
  30:	0c 94 ee 04 	jmp	0x9dc	; 0x9dc <__vector_12>
  34:	0c 94 0d 06 	jmp	0xc1a	; 0xc1a <__vector_13>
  38:	0c 94 5f 06 	jmp	0xcbe	; 0xcbe <__vector_14>
  3c:	0c 94 36 06 	jmp	0xc6c	; 0xc6c <__vector_15>
  40:	0c 94 b9 02 	jmp	0x572	; 0x572 <__vector_16>
  44:	0c 94 47 00 	jmp	0x8e	; 0x8e <__bad_interrupt>
  48:	0c 94 47 00 	jmp	0x8e	; 0x8e <__bad_interrupt>
  4c:	0c 94 47 00 	jmp	0x8e	; 0x8e <__bad_interrupt>
  50:	0c 94 47 00 	jmp	0x8e	; 0x8e <__bad_interrupt>

00000054 <__ctors_end>:
  54:	11 24       	eor	r1, r1
  56:	1f be       	out	0x3f, r1	; 63
  58:	cf e5       	ldi	r28, 0x5F	; 95
  5a:	d8 e0       	ldi	r29, 0x08	; 8
  5c:	de bf       	out	0x3e, r29	; 62
  5e:	cd bf       	out	0x3d, r28	; 61

00000060 <__do_copy_data>:
  60:	10 e0       	ldi	r17, 0x00	; 0
  62:	a0 e6       	ldi	r26, 0x60	; 96
  64:	b0 e0       	ldi	r27, 0x00	; 0
  66:	e4 e1       	ldi	r30, 0x14	; 20
  68:	fd e0       	ldi	r31, 0x0D	; 13
  6a:	02 c0       	rjmp	.+4      	; 0x70 <__do_copy_data+0x10>
  6c:	05 90       	lpm	r0, Z+
  6e:	0d 92       	st	X+, r0
  70:	a2 3a       	cpi	r26, 0xA2	; 162
  72:	b1 07       	cpc	r27, r17
  74:	d9 f7       	brne	.-10     	; 0x6c <__do_copy_data+0xc>

00000076 <__do_clear_bss>:
  76:	20 e0       	ldi	r18, 0x00	; 0
  78:	a2 ea       	ldi	r26, 0xA2	; 162
  7a:	b0 e0       	ldi	r27, 0x00	; 0
  7c:	01 c0       	rjmp	.+2      	; 0x80 <.do_clear_bss_start>

0000007e <.do_clear_bss_loop>:
  7e:	1d 92       	st	X+, r1

00000080 <.do_clear_bss_start>:
  80:	a2 3d       	cpi	r26, 0xD2	; 210
  82:	b2 07       	cpc	r27, r18
  84:	e1 f7       	brne	.-8      	; 0x7e <.do_clear_bss_loop>
  86:	0e 94 89 02 	call	0x512	; 0x512 <main>
  8a:	0c 94 88 06 	jmp	0xd10	; 0xd10 <_exit>

0000008e <__bad_interrupt>:
  8e:	0c 94 00 00 	jmp	0	; 0x0 <__vectors>

00000092 <KEYPAD_IsPressed>:
  92:	0f 93       	push	r16
  94:	1f 93       	push	r17
  96:	cf 93       	push	r28
  98:	df 93       	push	r29
  9a:	d8 2f       	mov	r29, r24
  9c:	06 2f       	mov	r16, r22
  9e:	c4 2f       	mov	r28, r20
  a0:	12 2f       	mov	r17, r18
  a2:	60 e0       	ldi	r22, 0x00	; 0
  a4:	0e 94 c1 03 	call	0x782	; 0x782 <DIO_WritePin>
  a8:	80 2f       	mov	r24, r16
  aa:	0e 94 3c 04 	call	0x878	; 0x878 <DIO_ReadPin>
  ae:	4c 2f       	mov	r20, r28
  b0:	50 e0       	ldi	r21, 0x00	; 0
  b2:	21 2f       	mov	r18, r17
  b4:	30 e0       	ldi	r19, 0x00	; 0
  b6:	44 0f       	add	r20, r20
  b8:	55 1f       	adc	r21, r21
  ba:	44 0f       	add	r20, r20
  bc:	55 1f       	adc	r21, r21
  be:	81 11       	cpse	r24, r1
  c0:	13 c0       	rjmp	.+38     	; 0xe8 <KEYPAD_IsPressed+0x56>
  c2:	fa 01       	movw	r30, r20
  c4:	ee 55       	subi	r30, 0x5E	; 94
  c6:	ff 4f       	sbci	r31, 0xFF	; 255
  c8:	e2 0f       	add	r30, r18
  ca:	f3 1f       	adc	r31, r19
  cc:	80 81       	ld	r24, Z
  ce:	81 11       	cpse	r24, r1
  d0:	11 c0       	rjmp	.+34     	; 0xf4 <KEYPAD_IsPressed+0x62>
  d2:	40 5a       	subi	r20, 0xA0	; 160
  d4:	5f 4f       	sbci	r21, 0xFF	; 255
  d6:	da 01       	movw	r26, r20
  d8:	a2 0f       	add	r26, r18
  da:	b3 1f       	adc	r27, r19
  dc:	8c 91       	ld	r24, X
  de:	80 93 b2 00 	sts	0x00B2, r24	; 0x8000b2 <key>
  e2:	81 e0       	ldi	r24, 0x01	; 1
  e4:	80 83       	st	Z, r24
  e6:	06 c0       	rjmp	.+12     	; 0xf4 <KEYPAD_IsPressed+0x62>
  e8:	4e 55       	subi	r20, 0x5E	; 94
  ea:	5f 4f       	sbci	r21, 0xFF	; 255
  ec:	fa 01       	movw	r30, r20
  ee:	e2 0f       	add	r30, r18
  f0:	f3 1f       	adc	r31, r19
  f2:	10 82       	st	Z, r1
  f4:	61 e0       	ldi	r22, 0x01	; 1
  f6:	8d 2f       	mov	r24, r29
  f8:	df 91       	pop	r29
  fa:	cf 91       	pop	r28
  fc:	1f 91       	pop	r17
  fe:	0f 91       	pop	r16
 100:	0c 94 c1 03 	jmp	0x782	; 0x782 <DIO_WritePin>

00000104 <KEYPAD_GetKey>:
 104:	61 e0       	ldi	r22, 0x01	; 1
 106:	8a e1       	ldi	r24, 0x1A	; 26
 108:	0e 94 c1 03 	call	0x782	; 0x782 <DIO_WritePin>
 10c:	61 e0       	ldi	r22, 0x01	; 1
 10e:	8b e1       	ldi	r24, 0x1B	; 27
 110:	0e 94 c1 03 	call	0x782	; 0x782 <DIO_WritePin>
 114:	61 e0       	ldi	r22, 0x01	; 1
 116:	8c e1       	ldi	r24, 0x1C	; 28
 118:	0e 94 c1 03 	call	0x782	; 0x782 <DIO_WritePin>
 11c:	61 e0       	ldi	r22, 0x01	; 1
 11e:	8d e1       	ldi	r24, 0x1D	; 29
 120:	0e 94 c1 03 	call	0x782	; 0x782 <DIO_WritePin>
 124:	10 92 b2 00 	sts	0x00B2, r1	; 0x8000b2 <key>
 128:	20 e0       	ldi	r18, 0x00	; 0
 12a:	40 e0       	ldi	r20, 0x00	; 0
 12c:	6c e0       	ldi	r22, 0x0C	; 12
 12e:	8a e1       	ldi	r24, 0x1A	; 26
 130:	0e 94 49 00 	call	0x92	; 0x92 <KEYPAD_IsPressed>
 134:	21 e0       	ldi	r18, 0x01	; 1
 136:	40 e0       	ldi	r20, 0x00	; 0
 138:	6c e0       	ldi	r22, 0x0C	; 12
 13a:	8b e1       	ldi	r24, 0x1B	; 27
 13c:	0e 94 49 00 	call	0x92	; 0x92 <KEYPAD_IsPressed>
 140:	22 e0       	ldi	r18, 0x02	; 2
 142:	40 e0       	ldi	r20, 0x00	; 0
 144:	6c e0       	ldi	r22, 0x0C	; 12
 146:	8c e1       	ldi	r24, 0x1C	; 28
 148:	0e 94 49 00 	call	0x92	; 0x92 <KEYPAD_IsPressed>
 14c:	23 e0       	ldi	r18, 0x03	; 3
 14e:	40 e0       	ldi	r20, 0x00	; 0
 150:	6c e0       	ldi	r22, 0x0C	; 12
 152:	8d e1       	ldi	r24, 0x1D	; 29
 154:	0e 94 49 00 	call	0x92	; 0x92 <KEYPAD_IsPressed>
 158:	20 e0       	ldi	r18, 0x00	; 0
 15a:	41 e0       	ldi	r20, 0x01	; 1
 15c:	6d e0       	ldi	r22, 0x0D	; 13
 15e:	8a e1       	ldi	r24, 0x1A	; 26
 160:	0e 94 49 00 	call	0x92	; 0x92 <KEYPAD_IsPressed>
 164:	21 e0       	ldi	r18, 0x01	; 1
 166:	41 e0       	ldi	r20, 0x01	; 1
 168:	6d e0       	ldi	r22, 0x0D	; 13
 16a:	8b e1       	ldi	r24, 0x1B	; 27
 16c:	0e 94 49 00 	call	0x92	; 0x92 <KEYPAD_IsPressed>
 170:	22 e0       	ldi	r18, 0x02	; 2
 172:	41 e0       	ldi	r20, 0x01	; 1
 174:	6d e0       	ldi	r22, 0x0D	; 13
 176:	8c e1       	ldi	r24, 0x1C	; 28
 178:	0e 94 49 00 	call	0x92	; 0x92 <KEYPAD_IsPressed>
 17c:	23 e0       	ldi	r18, 0x03	; 3
 17e:	41 e0       	ldi	r20, 0x01	; 1
 180:	6d e0       	ldi	r22, 0x0D	; 13
 182:	8d e1       	ldi	r24, 0x1D	; 29
 184:	0e 94 49 00 	call	0x92	; 0x92 <KEYPAD_IsPressed>
 188:	20 e0       	ldi	r18, 0x00	; 0
 18a:	42 e0       	ldi	r20, 0x02	; 2
 18c:	6e e0       	ldi	r22, 0x0E	; 14
 18e:	8a e1       	ldi	r24, 0x1A	; 26
 190:	0e 94 49 00 	call	0x92	; 0x92 <KEYPAD_IsPressed>
 194:	21 e0       	ldi	r18, 0x01	; 1
 196:	42 e0       	ldi	r20, 0x02	; 2
 198:	6e e0       	ldi	r22, 0x0E	; 14
 19a:	8b e1       	ldi	r24, 0x1B	; 27
 19c:	0e 94 49 00 	call	0x92	; 0x92 <KEYPAD_IsPressed>
 1a0:	22 e0       	ldi	r18, 0x02	; 2
 1a2:	42 e0       	ldi	r20, 0x02	; 2
 1a4:	6e e0       	ldi	r22, 0x0E	; 14
 1a6:	8c e1       	ldi	r24, 0x1C	; 28
 1a8:	0e 94 49 00 	call	0x92	; 0x92 <KEYPAD_IsPressed>
 1ac:	23 e0       	ldi	r18, 0x03	; 3
 1ae:	42 e0       	ldi	r20, 0x02	; 2
 1b0:	6e e0       	ldi	r22, 0x0E	; 14
 1b2:	8d e1       	ldi	r24, 0x1D	; 29
 1b4:	0e 94 49 00 	call	0x92	; 0x92 <KEYPAD_IsPressed>
 1b8:	20 e0       	ldi	r18, 0x00	; 0
 1ba:	43 e0       	ldi	r20, 0x03	; 3
 1bc:	6f e0       	ldi	r22, 0x0F	; 15
 1be:	8a e1       	ldi	r24, 0x1A	; 26
 1c0:	0e 94 49 00 	call	0x92	; 0x92 <KEYPAD_IsPressed>
 1c4:	21 e0       	ldi	r18, 0x01	; 1
 1c6:	43 e0       	ldi	r20, 0x03	; 3
 1c8:	6f e0       	ldi	r22, 0x0F	; 15
 1ca:	8b e1       	ldi	r24, 0x1B	; 27
 1cc:	0e 94 49 00 	call	0x92	; 0x92 <KEYPAD_IsPressed>
 1d0:	22 e0       	ldi	r18, 0x02	; 2
 1d2:	43 e0       	ldi	r20, 0x03	; 3
 1d4:	6f e0       	ldi	r22, 0x0F	; 15
 1d6:	8c e1       	ldi	r24, 0x1C	; 28
 1d8:	0e 94 49 00 	call	0x92	; 0x92 <KEYPAD_IsPressed>
 1dc:	23 e0       	ldi	r18, 0x03	; 3
 1de:	43 e0       	ldi	r20, 0x03	; 3
 1e0:	6f e0       	ldi	r22, 0x0F	; 15
 1e2:	8d e1       	ldi	r24, 0x1D	; 29
 1e4:	0e 94 49 00 	call	0x92	; 0x92 <KEYPAD_IsPressed>
 1e8:	80 91 b2 00 	lds	r24, 0x00B2	; 0x8000b2 <key>
 1ec:	08 95       	ret

000001ee <LCD_WriteCommand>:
 1ee:	cf 93       	push	r28
 1f0:	c8 2f       	mov	r28, r24
 1f2:	60 e0       	ldi	r22, 0x00	; 0
 1f4:	81 e0       	ldi	r24, 0x01	; 1
 1f6:	0e 94 c1 03 	call	0x782	; 0x782 <DIO_WritePin>
 1fa:	c4 fb       	bst	r28, 4
 1fc:	66 27       	eor	r22, r22
 1fe:	60 f9       	bld	r22, 0
 200:	83 e0       	ldi	r24, 0x03	; 3
 202:	0e 94 c1 03 	call	0x782	; 0x782 <DIO_WritePin>
 206:	c5 fb       	bst	r28, 5
 208:	66 27       	eor	r22, r22
 20a:	60 f9       	bld	r22, 0
 20c:	84 e0       	ldi	r24, 0x04	; 4
 20e:	0e 94 c1 03 	call	0x782	; 0x782 <DIO_WritePin>
 212:	c6 fb       	bst	r28, 6
 214:	66 27       	eor	r22, r22
 216:	60 f9       	bld	r22, 0
 218:	85 e0       	ldi	r24, 0x05	; 5
 21a:	0e 94 c1 03 	call	0x782	; 0x782 <DIO_WritePin>
 21e:	6c 2f       	mov	r22, r28
 220:	66 1f       	adc	r22, r22
 222:	66 27       	eor	r22, r22
 224:	66 1f       	adc	r22, r22
 226:	86 e0       	ldi	r24, 0x06	; 6
 228:	0e 94 c1 03 	call	0x782	; 0x782 <DIO_WritePin>
 22c:	61 e0       	ldi	r22, 0x01	; 1
 22e:	82 e0       	ldi	r24, 0x02	; 2
 230:	0e 94 c1 03 	call	0x782	; 0x782 <DIO_WritePin>
 234:	8f ec       	ldi	r24, 0xCF	; 207
 236:	97 e0       	ldi	r25, 0x07	; 7
 238:	01 97       	sbiw	r24, 0x01	; 1
 23a:	f1 f7       	brne	.-4      	; 0x238 <LCD_WriteCommand+0x4a>
 23c:	00 c0       	rjmp	.+0      	; 0x23e <LCD_WriteCommand+0x50>
 23e:	00 00       	nop
 240:	60 e0       	ldi	r22, 0x00	; 0
 242:	82 e0       	ldi	r24, 0x02	; 2
 244:	0e 94 c1 03 	call	0x782	; 0x782 <DIO_WritePin>
 248:	6c 2f       	mov	r22, r28
 24a:	61 70       	andi	r22, 0x01	; 1
 24c:	83 e0       	ldi	r24, 0x03	; 3
 24e:	0e 94 c1 03 	call	0x782	; 0x782 <DIO_WritePin>
 252:	c1 fb       	bst	r28, 1
 254:	66 27       	eor	r22, r22
 256:	60 f9       	bld	r22, 0
 258:	84 e0       	ldi	r24, 0x04	; 4
 25a:	0e 94 c1 03 	call	0x782	; 0x782 <DIO_WritePin>
 25e:	c2 fb       	bst	r28, 2
 260:	66 27       	eor	r22, r22
 262:	60 f9       	bld	r22, 0
 264:	85 e0       	ldi	r24, 0x05	; 5
 266:	0e 94 c1 03 	call	0x782	; 0x782 <DIO_WritePin>
 26a:	c3 fb       	bst	r28, 3
 26c:	66 27       	eor	r22, r22
 26e:	60 f9       	bld	r22, 0
 270:	86 e0       	ldi	r24, 0x06	; 6
 272:	0e 94 c1 03 	call	0x782	; 0x782 <DIO_WritePin>
 276:	61 e0       	ldi	r22, 0x01	; 1
 278:	82 e0       	ldi	r24, 0x02	; 2
 27a:	0e 94 c1 03 	call	0x782	; 0x782 <DIO_WritePin>
 27e:	8f ec       	ldi	r24, 0xCF	; 207
 280:	97 e0       	ldi	r25, 0x07	; 7
 282:	01 97       	sbiw	r24, 0x01	; 1
 284:	f1 f7       	brne	.-4      	; 0x282 <LCD_WriteCommand+0x94>
 286:	00 c0       	rjmp	.+0      	; 0x288 <LCD_WriteCommand+0x9a>
 288:	00 00       	nop
 28a:	60 e0       	ldi	r22, 0x00	; 0
 28c:	82 e0       	ldi	r24, 0x02	; 2
 28e:	0e 94 c1 03 	call	0x782	; 0x782 <DIO_WritePin>
 292:	8f ec       	ldi	r24, 0xCF	; 207
 294:	97 e0       	ldi	r25, 0x07	; 7
 296:	01 97       	sbiw	r24, 0x01	; 1
 298:	f1 f7       	brne	.-4      	; 0x296 <LCD_WriteCommand+0xa8>
 29a:	00 c0       	rjmp	.+0      	; 0x29c <LCD_WriteCommand+0xae>
 29c:	00 00       	nop
 29e:	cf 91       	pop	r28
 2a0:	08 95       	ret

000002a2 <LCD_WriteData>:
 2a2:	cf 93       	push	r28
 2a4:	c8 2f       	mov	r28, r24
 2a6:	61 e0       	ldi	r22, 0x01	; 1
 2a8:	81 e0       	ldi	r24, 0x01	; 1
 2aa:	0e 94 c1 03 	call	0x782	; 0x782 <DIO_WritePin>
 2ae:	c4 fb       	bst	r28, 4
 2b0:	66 27       	eor	r22, r22
 2b2:	60 f9       	bld	r22, 0
 2b4:	83 e0       	ldi	r24, 0x03	; 3
 2b6:	0e 94 c1 03 	call	0x782	; 0x782 <DIO_WritePin>
 2ba:	c5 fb       	bst	r28, 5
 2bc:	66 27       	eor	r22, r22
 2be:	60 f9       	bld	r22, 0
 2c0:	84 e0       	ldi	r24, 0x04	; 4
 2c2:	0e 94 c1 03 	call	0x782	; 0x782 <DIO_WritePin>
 2c6:	c6 fb       	bst	r28, 6
 2c8:	66 27       	eor	r22, r22
 2ca:	60 f9       	bld	r22, 0
 2cc:	85 e0       	ldi	r24, 0x05	; 5
 2ce:	0e 94 c1 03 	call	0x782	; 0x782 <DIO_WritePin>
 2d2:	6c 2f       	mov	r22, r28
 2d4:	66 1f       	adc	r22, r22
 2d6:	66 27       	eor	r22, r22
 2d8:	66 1f       	adc	r22, r22
 2da:	86 e0       	ldi	r24, 0x06	; 6
 2dc:	0e 94 c1 03 	call	0x782	; 0x782 <DIO_WritePin>
 2e0:	61 e0       	ldi	r22, 0x01	; 1
 2e2:	82 e0       	ldi	r24, 0x02	; 2
 2e4:	0e 94 c1 03 	call	0x782	; 0x782 <DIO_WritePin>
 2e8:	8f ec       	ldi	r24, 0xCF	; 207
 2ea:	97 e0       	ldi	r25, 0x07	; 7
 2ec:	01 97       	sbiw	r24, 0x01	; 1
 2ee:	f1 f7       	brne	.-4      	; 0x2ec <LCD_WriteData+0x4a>
 2f0:	00 c0       	rjmp	.+0      	; 0x2f2 <LCD_WriteData+0x50>
 2f2:	00 00       	nop
 2f4:	60 e0       	ldi	r22, 0x00	; 0
 2f6:	82 e0       	ldi	r24, 0x02	; 2
 2f8:	0e 94 c1 03 	call	0x782	; 0x782 <DIO_WritePin>
 2fc:	6c 2f       	mov	r22, r28
 2fe:	61 70       	andi	r22, 0x01	; 1
 300:	83 e0       	ldi	r24, 0x03	; 3
 302:	0e 94 c1 03 	call	0x782	; 0x782 <DIO_WritePin>
 306:	c1 fb       	bst	r28, 1
 308:	66 27       	eor	r22, r22
 30a:	60 f9       	bld	r22, 0
 30c:	84 e0       	ldi	r24, 0x04	; 4
 30e:	0e 94 c1 03 	call	0x782	; 0x782 <DIO_WritePin>
 312:	c2 fb       	bst	r28, 2
 314:	66 27       	eor	r22, r22
 316:	60 f9       	bld	r22, 0
 318:	85 e0       	ldi	r24, 0x05	; 5
 31a:	0e 94 c1 03 	call	0x782	; 0x782 <DIO_WritePin>
 31e:	c3 fb       	bst	r28, 3
 320:	66 27       	eor	r22, r22
 322:	60 f9       	bld	r22, 0
 324:	86 e0       	ldi	r24, 0x06	; 6
 326:	0e 94 c1 03 	call	0x782	; 0x782 <DIO_WritePin>
 32a:	61 e0       	ldi	r22, 0x01	; 1
 32c:	82 e0       	ldi	r24, 0x02	; 2
 32e:	0e 94 c1 03 	call	0x782	; 0x782 <DIO_WritePin>
 332:	8f ec       	ldi	r24, 0xCF	; 207
 334:	97 e0       	ldi	r25, 0x07	; 7
 336:	01 97       	sbiw	r24, 0x01	; 1
 338:	f1 f7       	brne	.-4      	; 0x336 <LCD_WriteData+0x94>
 33a:	00 c0       	rjmp	.+0      	; 0x33c <LCD_WriteData+0x9a>
 33c:	00 00       	nop
 33e:	60 e0       	ldi	r22, 0x00	; 0
 340:	82 e0       	ldi	r24, 0x02	; 2
 342:	0e 94 c1 03 	call	0x782	; 0x782 <DIO_WritePin>
 346:	8f ec       	ldi	r24, 0xCF	; 207
 348:	97 e0       	ldi	r25, 0x07	; 7
 34a:	01 97       	sbiw	r24, 0x01	; 1
 34c:	f1 f7       	brne	.-4      	; 0x34a <LCD_WriteData+0xa8>
 34e:	00 c0       	rjmp	.+0      	; 0x350 <LCD_WriteData+0xae>
 350:	00 00       	nop
 352:	cf 91       	pop	r28
 354:	08 95       	ret

00000356 <LCD_Init>:
 356:	2f e7       	ldi	r18, 0x7F	; 127
 358:	88 e3       	ldi	r24, 0x38	; 56
 35a:	91 e0       	ldi	r25, 0x01	; 1
 35c:	21 50       	subi	r18, 0x01	; 1
 35e:	80 40       	sbci	r24, 0x00	; 0
 360:	90 40       	sbci	r25, 0x00	; 0
 362:	e1 f7       	brne	.-8      	; 0x35c <LCD_Init+0x6>
 364:	00 c0       	rjmp	.+0      	; 0x366 <LCD_Init+0x10>
 366:	00 00       	nop
 368:	82 e2       	ldi	r24, 0x22	; 34
 36a:	0e 94 f7 00 	call	0x1ee	; 0x1ee <LCD_WriteCommand>
 36e:	60 e0       	ldi	r22, 0x00	; 0
 370:	81 e0       	ldi	r24, 0x01	; 1
 372:	0e 94 c1 03 	call	0x782	; 0x782 <DIO_WritePin>
 376:	60 e0       	ldi	r22, 0x00	; 0
 378:	85 e0       	ldi	r24, 0x05	; 5
 37a:	0e 94 c1 03 	call	0x782	; 0x782 <DIO_WritePin>
 37e:	61 e0       	ldi	r22, 0x01	; 1
 380:	86 e0       	ldi	r24, 0x06	; 6
 382:	0e 94 c1 03 	call	0x782	; 0x782 <DIO_WritePin>
 386:	61 e0       	ldi	r22, 0x01	; 1
 388:	82 e0       	ldi	r24, 0x02	; 2
 38a:	0e 94 c1 03 	call	0x782	; 0x782 <DIO_WritePin>
 38e:	8f ec       	ldi	r24, 0xCF	; 207
 390:	97 e0       	ldi	r25, 0x07	; 7
 392:	01 97       	sbiw	r24, 0x01	; 1
 394:	f1 f7       	brne	.-4      	; 0x392 <LCD_Init+0x3c>
 396:	00 c0       	rjmp	.+0      	; 0x398 <LCD_Init+0x42>
 398:	00 00       	nop
 39a:	60 e0       	ldi	r22, 0x00	; 0
 39c:	82 e0       	ldi	r24, 0x02	; 2
 39e:	0e 94 c1 03 	call	0x782	; 0x782 <DIO_WritePin>
 3a2:	8f ec       	ldi	r24, 0xCF	; 207
 3a4:	97 e0       	ldi	r25, 0x07	; 7
 3a6:	01 97       	sbiw	r24, 0x01	; 1
 3a8:	f1 f7       	brne	.-4      	; 0x3a6 <LCD_Init+0x50>
 3aa:	00 c0       	rjmp	.+0      	; 0x3ac <LCD_Init+0x56>
 3ac:	00 00       	nop
 3ae:	8c e0       	ldi	r24, 0x0C	; 12
 3b0:	0e 94 f7 00 	call	0x1ee	; 0x1ee <LCD_WriteCommand>
 3b4:	81 e0       	ldi	r24, 0x01	; 1
 3b6:	0e 94 f7 00 	call	0x1ee	; 0x1ee <LCD_WriteCommand>
 3ba:	8f ec       	ldi	r24, 0xCF	; 207
 3bc:	97 e0       	ldi	r25, 0x07	; 7
 3be:	01 97       	sbiw	r24, 0x01	; 1
 3c0:	f1 f7       	brne	.-4      	; 0x3be <LCD_Init+0x68>
 3c2:	00 c0       	rjmp	.+0      	; 0x3c4 <LCD_Init+0x6e>
 3c4:	00 00       	nop
 3c6:	86 e0       	ldi	r24, 0x06	; 6
 3c8:	0c 94 f7 00 	jmp	0x1ee	; 0x1ee <LCD_WriteCommand>

000003cc <LCD_GoTo>:
 3cc:	81 11       	cpse	r24, r1
 3ce:	02 c0       	rjmp	.+4      	; 0x3d4 <LCD_GoTo+0x8>
 3d0:	86 2f       	mov	r24, r22
 3d2:	04 c0       	rjmp	.+8      	; 0x3dc <LCD_GoTo+0x10>
 3d4:	81 30       	cpi	r24, 0x01	; 1
 3d6:	29 f4       	brne	.+10     	; 0x3e2 <LCD_GoTo+0x16>
 3d8:	80 e4       	ldi	r24, 0x40	; 64
 3da:	86 0f       	add	r24, r22
 3dc:	80 68       	ori	r24, 0x80	; 128
 3de:	0c 94 f7 00 	jmp	0x1ee	; 0x1ee <LCD_WriteCommand>
 3e2:	08 95       	ret

000003e4 <LCD_WriteString>:
 3e4:	0f 93       	push	r16
 3e6:	1f 93       	push	r17
 3e8:	cf 93       	push	r28
 3ea:	8c 01       	movw	r16, r24
 3ec:	c0 e0       	ldi	r28, 0x00	; 0
 3ee:	f8 01       	movw	r30, r16
 3f0:	ec 0f       	add	r30, r28
 3f2:	f1 1d       	adc	r31, r1
 3f4:	80 81       	ld	r24, Z
 3f6:	88 23       	and	r24, r24
 3f8:	21 f0       	breq	.+8      	; 0x402 <__EEPROM_REGION_LENGTH__+0x2>
 3fa:	0e 94 51 01 	call	0x2a2	; 0x2a2 <LCD_WriteData>
 3fe:	cf 5f       	subi	r28, 0xFF	; 255
 400:	f6 cf       	rjmp	.-20     	; 0x3ee <LCD_WriteString+0xa>
 402:	cf 91       	pop	r28
 404:	1f 91       	pop	r17
 406:	0f 91       	pop	r16
 408:	08 95       	ret

0000040a <EEPROM_passwardRetrieval.part.0>:
 40a:	cf 92       	push	r12
 40c:	df 92       	push	r13
 40e:	ef 92       	push	r14
 410:	ff 92       	push	r15
 412:	0f 93       	push	r16
 414:	1f 93       	push	r17
 416:	cf 93       	push	r28
 418:	df 93       	push	r29
 41a:	ec 01       	movw	r28, r24
 41c:	7b 01       	movw	r14, r22
 41e:	6a 01       	movw	r12, r20
 420:	ca 01       	movw	r24, r20
 422:	0e 94 6b 04 	call	0x8d6	; 0x8d6 <EEPROM_read>
 426:	88 83       	st	Y, r24
 428:	01 e0       	ldi	r16, 0x01	; 1
 42a:	10 e0       	ldi	r17, 0x00	; 0
 42c:	81 e0       	ldi	r24, 0x01	; 1
 42e:	e8 1a       	sub	r14, r24
 430:	f1 08       	sbc	r15, r1
 432:	0e 15       	cp	r16, r14
 434:	1f 05       	cpc	r17, r15
 436:	60 f4       	brcc	.+24     	; 0x450 <EEPROM_passwardRetrieval.part.0+0x46>
 438:	89 91       	ld	r24, Y+
 43a:	88 23       	and	r24, r24
 43c:	49 f0       	breq	.+18     	; 0x450 <EEPROM_passwardRetrieval.part.0+0x46>
 43e:	c6 01       	movw	r24, r12
 440:	80 0f       	add	r24, r16
 442:	91 1f       	adc	r25, r17
 444:	0e 94 6b 04 	call	0x8d6	; 0x8d6 <EEPROM_read>
 448:	88 83       	st	Y, r24
 44a:	0f 5f       	subi	r16, 0xFF	; 255
 44c:	1f 4f       	sbci	r17, 0xFF	; 255
 44e:	f1 cf       	rjmp	.-30     	; 0x432 <EEPROM_passwardRetrieval.part.0+0x28>
 450:	df 91       	pop	r29
 452:	cf 91       	pop	r28
 454:	1f 91       	pop	r17
 456:	0f 91       	pop	r16
 458:	ff 90       	pop	r15
 45a:	ef 90       	pop	r14
 45c:	df 90       	pop	r13
 45e:	cf 90       	pop	r12
 460:	08 95       	ret

00000462 <EEPROM_KeyPad_passwardSave>:
 462:	ef 92       	push	r14
 464:	ff 92       	push	r15
 466:	0f 93       	push	r16
 468:	1f 93       	push	r17
 46a:	cf 93       	push	r28
 46c:	df 93       	push	r29
 46e:	ec 01       	movw	r28, r24
 470:	7b 01       	movw	r14, r22
 472:	8a 01       	movw	r16, r20
 474:	0e 94 82 00 	call	0x104	; 0x104 <KEYPAD_GetKey>
 478:	83 34       	cpi	r24, 0x43	; 67
 47a:	19 f4       	brne	.+6      	; 0x482 <EEPROM_KeyPad_passwardSave+0x20>
 47c:	91 e0       	ldi	r25, 0x01	; 1
 47e:	90 93 b5 00 	sts	0x00B5, r25	; 0x8000b5 <changePasswardFlag.1861>
 482:	20 91 b3 00 	lds	r18, 0x00B3	; 0x8000b3 <index.1862>
 486:	30 91 b4 00 	lds	r19, 0x00B4	; 0x8000b4 <index.1862+0x1>
 48a:	91 e0       	ldi	r25, 0x01	; 1
 48c:	e9 1a       	sub	r14, r25
 48e:	f1 08       	sbc	r15, r1
 490:	90 91 b5 00 	lds	r25, 0x00B5	; 0x8000b5 <changePasswardFlag.1861>
 494:	2e 15       	cp	r18, r14
 496:	3f 05       	cpc	r19, r15
 498:	c8 f4       	brcc	.+50     	; 0x4cc <EEPROM_KeyPad_passwardSave+0x6a>
 49a:	88 23       	and	r24, r24
 49c:	b9 f0       	breq	.+46     	; 0x4cc <EEPROM_KeyPad_passwardSave+0x6a>
 49e:	91 30       	cpi	r25, 0x01	; 1
 4a0:	a9 f4       	brne	.+42     	; 0x4cc <EEPROM_KeyPad_passwardSave+0x6a>
 4a2:	8d 33       	cpi	r24, 0x3D	; 61
 4a4:	a9 f0       	breq	.+42     	; 0x4d0 <EEPROM_KeyPad_passwardSave+0x6e>
 4a6:	83 34       	cpi	r24, 0x43	; 67
 4a8:	99 f0       	breq	.+38     	; 0x4d0 <EEPROM_KeyPad_passwardSave+0x6e>
 4aa:	fe 01       	movw	r30, r28
 4ac:	e2 0f       	add	r30, r18
 4ae:	f3 1f       	adc	r31, r19
 4b0:	e0 0f       	add	r30, r16
 4b2:	f1 1f       	adc	r31, r17
 4b4:	80 83       	st	Z, r24
 4b6:	2f 5f       	subi	r18, 0xFF	; 255
 4b8:	3f 4f       	sbci	r19, 0xFF	; 255
 4ba:	30 93 b4 00 	sts	0x00B4, r19	; 0x8000b4 <index.1862+0x1>
 4be:	20 93 b3 00 	sts	0x00B3, r18	; 0x8000b3 <index.1862>
 4c2:	fe 01       	movw	r30, r28
 4c4:	e2 0f       	add	r30, r18
 4c6:	f3 1f       	adc	r31, r19
 4c8:	10 82       	st	Z, r1
 4ca:	02 c0       	rjmp	.+4      	; 0x4d0 <EEPROM_KeyPad_passwardSave+0x6e>
 4cc:	91 30       	cpi	r25, 0x01	; 1
 4ce:	d1 f4       	brne	.+52     	; 0x504 <EEPROM_KeyPad_passwardSave+0xa2>
 4d0:	20 91 b3 00 	lds	r18, 0x00B3	; 0x8000b3 <index.1862>
 4d4:	30 91 b4 00 	lds	r19, 0x00B4	; 0x8000b4 <index.1862+0x1>
 4d8:	23 2b       	or	r18, r19
 4da:	a1 f0       	breq	.+40     	; 0x504 <EEPROM_KeyPad_passwardSave+0xa2>
 4dc:	8d 33       	cpi	r24, 0x3D	; 61
 4de:	91 f4       	brne	.+36     	; 0x504 <EEPROM_KeyPad_passwardSave+0xa2>
 4e0:	e1 2c       	mov	r14, r1
 4e2:	f1 2c       	mov	r15, r1
 4e4:	69 91       	ld	r22, Y+
 4e6:	c8 01       	movw	r24, r16
 4e8:	8e 0d       	add	r24, r14
 4ea:	9f 1d       	adc	r25, r15
 4ec:	66 23       	and	r22, r22
 4ee:	31 f0       	breq	.+12     	; 0x4fc <EEPROM_KeyPad_passwardSave+0x9a>
 4f0:	0e 94 61 04 	call	0x8c2	; 0x8c2 <EEPROM_write>
 4f4:	8f ef       	ldi	r24, 0xFF	; 255
 4f6:	e8 1a       	sub	r14, r24
 4f8:	f8 0a       	sbc	r15, r24
 4fa:	f4 cf       	rjmp	.-24     	; 0x4e4 <EEPROM_KeyPad_passwardSave+0x82>
 4fc:	0e 94 61 04 	call	0x8c2	; 0x8c2 <EEPROM_write>
 500:	10 92 b5 00 	sts	0x00B5, r1	; 0x8000b5 <changePasswardFlag.1861>
 504:	df 91       	pop	r29
 506:	cf 91       	pop	r28
 508:	1f 91       	pop	r17
 50a:	0f 91       	pop	r16
 50c:	ff 90       	pop	r15
 50e:	ef 90       	pop	r14
 510:	08 95       	ret

00000512 <main>:
 512:	cf 93       	push	r28
 514:	df 93       	push	r29
 516:	cd b7       	in	r28, 0x3d	; 61
 518:	de b7       	in	r29, 0x3e	; 62
 51a:	64 97       	sbiw	r28, 0x14	; 20
 51c:	0f b6       	in	r0, 0x3f	; 63
 51e:	f8 94       	cli
 520:	de bf       	out	0x3e, r29	; 62
 522:	0f be       	out	0x3f, r0	; 63
 524:	cd bf       	out	0x3d, r28	; 61
 526:	0e 94 e2 02 	call	0x5c4	; 0x5c4 <DIO_Init>
 52a:	0e 94 ab 01 	call	0x356	; 0x356 <LCD_Init>
 52e:	8e 01       	movw	r16, r28
 530:	0f 5f       	subi	r16, 0xFF	; 255
 532:	1f 4f       	sbci	r17, 0xFF	; 255
 534:	84 e1       	ldi	r24, 0x14	; 20
 536:	f8 01       	movw	r30, r16
 538:	11 92       	st	Z+, r1
 53a:	8a 95       	dec	r24
 53c:	e9 f7       	brne	.-6      	; 0x538 <main+0x26>
 53e:	40 e0       	ldi	r20, 0x00	; 0
 540:	50 e0       	ldi	r21, 0x00	; 0
 542:	64 e1       	ldi	r22, 0x14	; 20
 544:	70 e0       	ldi	r23, 0x00	; 0
 546:	c8 01       	movw	r24, r16
 548:	0e 94 05 02 	call	0x40a	; 0x40a <EEPROM_passwardRetrieval.part.0>
 54c:	40 e0       	ldi	r20, 0x00	; 0
 54e:	50 e0       	ldi	r21, 0x00	; 0
 550:	64 e1       	ldi	r22, 0x14	; 20
 552:	70 e0       	ldi	r23, 0x00	; 0
 554:	c8 01       	movw	r24, r16
 556:	0e 94 31 02 	call	0x462	; 0x462 <EEPROM_KeyPad_passwardSave>
 55a:	60 e0       	ldi	r22, 0x00	; 0
 55c:	80 e0       	ldi	r24, 0x00	; 0
 55e:	0e 94 e6 01 	call	0x3cc	; 0x3cc <LCD_GoTo>
 562:	c8 01       	movw	r24, r16
 564:	0e 94 f2 01 	call	0x3e4	; 0x3e4 <LCD_WriteString>
 568:	80 e7       	ldi	r24, 0x70	; 112
 56a:	90 e0       	ldi	r25, 0x00	; 0
 56c:	0e 94 f2 01 	call	0x3e4	; 0x3e4 <LCD_WriteString>
 570:	ed cf       	rjmp	.-38     	; 0x54c <main+0x3a>

00000572 <__vector_16>:
 572:	1f 92       	push	r1
 574:	0f 92       	push	r0
 576:	0f b6       	in	r0, 0x3f	; 63
 578:	0f 92       	push	r0
 57a:	11 24       	eor	r1, r1
 57c:	2f 93       	push	r18
 57e:	3f 93       	push	r19
 580:	4f 93       	push	r20
 582:	5f 93       	push	r21
 584:	6f 93       	push	r22
 586:	7f 93       	push	r23
 588:	8f 93       	push	r24
 58a:	9f 93       	push	r25
 58c:	af 93       	push	r26
 58e:	bf 93       	push	r27
 590:	ef 93       	push	r30
 592:	ff 93       	push	r31
 594:	e0 91 b6 00 	lds	r30, 0x00B6	; 0x8000b6 <funcptr>
 598:	f0 91 b7 00 	lds	r31, 0x00B7	; 0x8000b7 <funcptr+0x1>
 59c:	30 97       	sbiw	r30, 0x00	; 0
 59e:	09 f0       	breq	.+2      	; 0x5a2 <__vector_16+0x30>
 5a0:	09 95       	icall
 5a2:	ff 91       	pop	r31
 5a4:	ef 91       	pop	r30
 5a6:	bf 91       	pop	r27
 5a8:	af 91       	pop	r26
 5aa:	9f 91       	pop	r25
 5ac:	8f 91       	pop	r24
 5ae:	7f 91       	pop	r23
 5b0:	6f 91       	pop	r22
 5b2:	5f 91       	pop	r21
 5b4:	4f 91       	pop	r20
 5b6:	3f 91       	pop	r19
 5b8:	2f 91       	pop	r18
 5ba:	0f 90       	pop	r0
 5bc:	0f be       	out	0x3f, r0	; 63
 5be:	0f 90       	pop	r0
 5c0:	1f 90       	pop	r1
 5c2:	18 95       	reti

000005c4 <DIO_Init>:
 5c4:	cf 93       	push	r28
 5c6:	df 93       	push	r29
 5c8:	e1 e8       	ldi	r30, 0x81	; 129
 5ca:	f0 e0       	ldi	r31, 0x00	; 0
 5cc:	20 ef       	ldi	r18, 0xF0	; 240
 5ce:	a8 ee       	ldi	r26, 0xE8	; 232
 5d0:	38 ef       	ldi	r19, 0xF8	; 248
 5d2:	40 e0       	ldi	r20, 0x00	; 0
 5d4:	50 e0       	ldi	r21, 0x00	; 0
 5d6:	81 e0       	ldi	r24, 0x01	; 1
 5d8:	90 e0       	ldi	r25, 0x00	; 0
 5da:	71 91       	ld	r23, Z+
 5dc:	71 11       	cpse	r23, r1
 5de:	3c c0       	rjmp	.+120    	; 0x658 <DIO_Init+0x94>
 5e0:	48 30       	cpi	r20, 0x08	; 8
 5e2:	78 f4       	brcc	.+30     	; 0x602 <DIO_Init+0x3e>
 5e4:	ba b3       	in	r27, 0x1a	; 26
 5e6:	ec 01       	movw	r28, r24
 5e8:	04 2e       	mov	r0, r20
 5ea:	02 c0       	rjmp	.+4      	; 0x5f0 <DIO_Init+0x2c>
 5ec:	cc 0f       	add	r28, r28
 5ee:	dd 1f       	adc	r29, r29
 5f0:	0a 94       	dec	r0
 5f2:	e2 f7       	brpl	.-8      	; 0x5ec <DIO_Init+0x28>
 5f4:	be 01       	movw	r22, r28
 5f6:	7b 2f       	mov	r23, r27
 5f8:	76 2b       	or	r23, r22
 5fa:	7a bb       	out	0x1a, r23	; 26
 5fc:	7b b3       	in	r23, 0x1b	; 27
 5fe:	60 95       	com	r22
 600:	3e c0       	rjmp	.+124    	; 0x67e <DIO_Init+0xba>
 602:	38 30       	cpi	r19, 0x08	; 8
 604:	68 f4       	brcc	.+26     	; 0x620 <DIO_Init+0x5c>
 606:	b7 b3       	in	r27, 0x17	; 23
 608:	bc 01       	movw	r22, r24
 60a:	03 2e       	mov	r0, r19
 60c:	01 c0       	rjmp	.+2      	; 0x610 <DIO_Init+0x4c>
 60e:	66 0f       	add	r22, r22
 610:	0a 94       	dec	r0
 612:	ea f7       	brpl	.-6      	; 0x60e <DIO_Init+0x4a>
 614:	7b 2f       	mov	r23, r27
 616:	76 2b       	or	r23, r22
 618:	77 bb       	out	0x17, r23	; 23
 61a:	78 b3       	in	r23, 0x18	; 24
 61c:	60 95       	com	r22
 61e:	3f c0       	rjmp	.+126    	; 0x69e <DIO_Init+0xda>
 620:	28 30       	cpi	r18, 0x08	; 8
 622:	68 f4       	brcc	.+26     	; 0x63e <DIO_Init+0x7a>
 624:	b4 b3       	in	r27, 0x14	; 20
 626:	bc 01       	movw	r22, r24
 628:	02 2e       	mov	r0, r18
 62a:	01 c0       	rjmp	.+2      	; 0x62e <DIO_Init+0x6a>
 62c:	66 0f       	add	r22, r22
 62e:	0a 94       	dec	r0
 630:	ea f7       	brpl	.-6      	; 0x62c <DIO_Init+0x68>
 632:	7b 2f       	mov	r23, r27
 634:	76 2b       	or	r23, r22
 636:	74 bb       	out	0x14, r23	; 20
 638:	75 b3       	in	r23, 0x15	; 21
 63a:	60 95       	com	r22
 63c:	40 c0       	rjmp	.+128    	; 0x6be <DIO_Init+0xfa>
 63e:	b1 b3       	in	r27, 0x11	; 17
 640:	bc 01       	movw	r22, r24
 642:	0a 2e       	mov	r0, r26
 644:	01 c0       	rjmp	.+2      	; 0x648 <DIO_Init+0x84>
 646:	66 0f       	add	r22, r22
 648:	0a 94       	dec	r0
 64a:	ea f7       	brpl	.-6      	; 0x646 <DIO_Init+0x82>
 64c:	7b 2f       	mov	r23, r27
 64e:	76 2b       	or	r23, r22
 650:	71 bb       	out	0x11, r23	; 17
 652:	72 b3       	in	r23, 0x12	; 18
 654:	60 95       	com	r22
 656:	41 c0       	rjmp	.+130    	; 0x6da <DIO_Init+0x116>
 658:	71 30       	cpi	r23, 0x01	; 1
 65a:	09 f0       	breq	.+2      	; 0x65e <DIO_Init+0x9a>
 65c:	40 c0       	rjmp	.+128    	; 0x6de <DIO_Init+0x11a>
 65e:	48 30       	cpi	r20, 0x08	; 8
 660:	80 f4       	brcc	.+32     	; 0x682 <DIO_Init+0xbe>
 662:	ba b3       	in	r27, 0x1a	; 26
 664:	ec 01       	movw	r28, r24
 666:	04 2e       	mov	r0, r20
 668:	02 c0       	rjmp	.+4      	; 0x66e <DIO_Init+0xaa>
 66a:	cc 0f       	add	r28, r28
 66c:	dd 1f       	adc	r29, r29
 66e:	0a 94       	dec	r0
 670:	e2 f7       	brpl	.-8      	; 0x66a <DIO_Init+0xa6>
 672:	be 01       	movw	r22, r28
 674:	60 95       	com	r22
 676:	7b 2f       	mov	r23, r27
 678:	76 23       	and	r23, r22
 67a:	7a bb       	out	0x1a, r23	; 26
 67c:	7b b3       	in	r23, 0x1b	; 27
 67e:	67 23       	and	r22, r23
 680:	42 c0       	rjmp	.+132    	; 0x706 <DIO_Init+0x142>
 682:	38 30       	cpi	r19, 0x08	; 8
 684:	70 f4       	brcc	.+28     	; 0x6a2 <DIO_Init+0xde>
 686:	b7 b3       	in	r27, 0x17	; 23
 688:	bc 01       	movw	r22, r24
 68a:	03 2e       	mov	r0, r19
 68c:	01 c0       	rjmp	.+2      	; 0x690 <DIO_Init+0xcc>
 68e:	66 0f       	add	r22, r22
 690:	0a 94       	dec	r0
 692:	ea f7       	brpl	.-6      	; 0x68e <DIO_Init+0xca>
 694:	60 95       	com	r22
 696:	7b 2f       	mov	r23, r27
 698:	76 23       	and	r23, r22
 69a:	77 bb       	out	0x17, r23	; 23
 69c:	78 b3       	in	r23, 0x18	; 24
 69e:	67 23       	and	r22, r23
 6a0:	43 c0       	rjmp	.+134    	; 0x728 <DIO_Init+0x164>
 6a2:	28 30       	cpi	r18, 0x08	; 8
 6a4:	70 f4       	brcc	.+28     	; 0x6c2 <DIO_Init+0xfe>
 6a6:	b4 b3       	in	r27, 0x14	; 20
 6a8:	bc 01       	movw	r22, r24
 6aa:	02 2e       	mov	r0, r18
 6ac:	01 c0       	rjmp	.+2      	; 0x6b0 <DIO_Init+0xec>
 6ae:	66 0f       	add	r22, r22
 6b0:	0a 94       	dec	r0
 6b2:	ea f7       	brpl	.-6      	; 0x6ae <DIO_Init+0xea>
 6b4:	60 95       	com	r22
 6b6:	7b 2f       	mov	r23, r27
 6b8:	76 23       	and	r23, r22
 6ba:	74 bb       	out	0x14, r23	; 20
 6bc:	75 b3       	in	r23, 0x15	; 21
 6be:	67 23       	and	r22, r23
 6c0:	44 c0       	rjmp	.+136    	; 0x74a <DIO_Init+0x186>
 6c2:	b1 b3       	in	r27, 0x11	; 17
 6c4:	bc 01       	movw	r22, r24
 6c6:	0a 2e       	mov	r0, r26
 6c8:	01 c0       	rjmp	.+2      	; 0x6cc <DIO_Init+0x108>
 6ca:	66 0f       	add	r22, r22
 6cc:	0a 94       	dec	r0
 6ce:	ea f7       	brpl	.-6      	; 0x6ca <DIO_Init+0x106>
 6d0:	60 95       	com	r22
 6d2:	7b 2f       	mov	r23, r27
 6d4:	76 23       	and	r23, r22
 6d6:	71 bb       	out	0x11, r23	; 17
 6d8:	72 b3       	in	r23, 0x12	; 18
 6da:	67 23       	and	r22, r23
 6dc:	45 c0       	rjmp	.+138    	; 0x768 <DIO_Init+0x1a4>
 6de:	72 30       	cpi	r23, 0x02	; 2
 6e0:	09 f0       	breq	.+2      	; 0x6e4 <DIO_Init+0x120>
 6e2:	43 c0       	rjmp	.+134    	; 0x76a <DIO_Init+0x1a6>
 6e4:	48 30       	cpi	r20, 0x08	; 8
 6e6:	88 f4       	brcc	.+34     	; 0x70a <DIO_Init+0x146>
 6e8:	ba b3       	in	r27, 0x1a	; 26
 6ea:	ec 01       	movw	r28, r24
 6ec:	04 2e       	mov	r0, r20
 6ee:	02 c0       	rjmp	.+4      	; 0x6f4 <DIO_Init+0x130>
 6f0:	cc 0f       	add	r28, r28
 6f2:	dd 1f       	adc	r29, r29
 6f4:	0a 94       	dec	r0
 6f6:	e2 f7       	brpl	.-8      	; 0x6f0 <DIO_Init+0x12c>
 6f8:	be 01       	movw	r22, r28
 6fa:	7c 2f       	mov	r23, r28
 6fc:	70 95       	com	r23
 6fe:	7b 23       	and	r23, r27
 700:	7a bb       	out	0x1a, r23	; 26
 702:	7b b3       	in	r23, 0x1b	; 27
 704:	67 2b       	or	r22, r23
 706:	6b bb       	out	0x1b, r22	; 27
 708:	30 c0       	rjmp	.+96     	; 0x76a <DIO_Init+0x1a6>
 70a:	38 30       	cpi	r19, 0x08	; 8
 70c:	78 f4       	brcc	.+30     	; 0x72c <DIO_Init+0x168>
 70e:	b7 b3       	in	r27, 0x17	; 23
 710:	bc 01       	movw	r22, r24
 712:	03 2e       	mov	r0, r19
 714:	01 c0       	rjmp	.+2      	; 0x718 <DIO_Init+0x154>
 716:	66 0f       	add	r22, r22
 718:	0a 94       	dec	r0
 71a:	ea f7       	brpl	.-6      	; 0x716 <DIO_Init+0x152>
 71c:	76 2f       	mov	r23, r22
 71e:	70 95       	com	r23
 720:	7b 23       	and	r23, r27
 722:	77 bb       	out	0x17, r23	; 23
 724:	78 b3       	in	r23, 0x18	; 24
 726:	67 2b       	or	r22, r23
 728:	68 bb       	out	0x18, r22	; 24
 72a:	1f c0       	rjmp	.+62     	; 0x76a <DIO_Init+0x1a6>
 72c:	28 30       	cpi	r18, 0x08	; 8
 72e:	78 f4       	brcc	.+30     	; 0x74e <DIO_Init+0x18a>
 730:	b4 b3       	in	r27, 0x14	; 20
 732:	bc 01       	movw	r22, r24
 734:	02 2e       	mov	r0, r18
 736:	01 c0       	rjmp	.+2      	; 0x73a <DIO_Init+0x176>
 738:	66 0f       	add	r22, r22
 73a:	0a 94       	dec	r0
 73c:	ea f7       	brpl	.-6      	; 0x738 <DIO_Init+0x174>
 73e:	76 2f       	mov	r23, r22
 740:	70 95       	com	r23
 742:	7b 23       	and	r23, r27
 744:	74 bb       	out	0x14, r23	; 20
 746:	75 b3       	in	r23, 0x15	; 21
 748:	67 2b       	or	r22, r23
 74a:	65 bb       	out	0x15, r22	; 21
 74c:	0e c0       	rjmp	.+28     	; 0x76a <DIO_Init+0x1a6>
 74e:	b1 b3       	in	r27, 0x11	; 17
 750:	bc 01       	movw	r22, r24
 752:	0a 2e       	mov	r0, r26
 754:	01 c0       	rjmp	.+2      	; 0x758 <DIO_Init+0x194>
 756:	66 0f       	add	r22, r22
 758:	0a 94       	dec	r0
 75a:	ea f7       	brpl	.-6      	; 0x756 <DIO_Init+0x192>
 75c:	76 2f       	mov	r23, r22
 75e:	70 95       	com	r23
 760:	7b 23       	and	r23, r27
 762:	71 bb       	out	0x11, r23	; 17
 764:	72 b3       	in	r23, 0x12	; 18
 766:	67 2b       	or	r22, r23
 768:	62 bb       	out	0x12, r22	; 18
 76a:	4f 5f       	subi	r20, 0xFF	; 255
 76c:	5f 4f       	sbci	r21, 0xFF	; 255
 76e:	3f 5f       	subi	r19, 0xFF	; 255
 770:	af 5f       	subi	r26, 0xFF	; 255
 772:	2f 5f       	subi	r18, 0xFF	; 255
 774:	40 32       	cpi	r20, 0x20	; 32
 776:	51 05       	cpc	r21, r1
 778:	09 f0       	breq	.+2      	; 0x77c <DIO_Init+0x1b8>
 77a:	2f cf       	rjmp	.-418    	; 0x5da <DIO_Init+0x16>
 77c:	df 91       	pop	r29
 77e:	cf 91       	pop	r28
 780:	08 95       	ret

00000782 <DIO_WritePin>:
 782:	61 11       	cpse	r22, r1
 784:	3c c0       	rjmp	.+120    	; 0x7fe <DIO_WritePin+0x7c>
 786:	88 30       	cpi	r24, 0x08	; 8
 788:	68 f4       	brcc	.+26     	; 0x7a4 <DIO_WritePin+0x22>
 78a:	4b b3       	in	r20, 0x1b	; 27
 78c:	21 e0       	ldi	r18, 0x01	; 1
 78e:	30 e0       	ldi	r19, 0x00	; 0
 790:	b9 01       	movw	r22, r18
 792:	02 c0       	rjmp	.+4      	; 0x798 <DIO_WritePin+0x16>
 794:	66 0f       	add	r22, r22
 796:	77 1f       	adc	r23, r23
 798:	8a 95       	dec	r24
 79a:	e2 f7       	brpl	.-8      	; 0x794 <DIO_WritePin+0x12>
 79c:	cb 01       	movw	r24, r22
 79e:	80 95       	com	r24
 7a0:	84 23       	and	r24, r20
 7a2:	3c c0       	rjmp	.+120    	; 0x81c <__DATA_REGION_LENGTH__+0x1c>
 7a4:	38 ef       	ldi	r19, 0xF8	; 248
 7a6:	38 0f       	add	r19, r24
 7a8:	38 30       	cpi	r19, 0x08	; 8
 7aa:	50 f4       	brcc	.+20     	; 0x7c0 <DIO_WritePin+0x3e>
 7ac:	28 b3       	in	r18, 0x18	; 24
 7ae:	81 e0       	ldi	r24, 0x01	; 1
 7b0:	90 e0       	ldi	r25, 0x00	; 0
 7b2:	01 c0       	rjmp	.+2      	; 0x7b6 <DIO_WritePin+0x34>
 7b4:	88 0f       	add	r24, r24
 7b6:	3a 95       	dec	r19
 7b8:	ea f7       	brpl	.-6      	; 0x7b4 <DIO_WritePin+0x32>
 7ba:	80 95       	com	r24
 7bc:	82 23       	and	r24, r18
 7be:	3c c0       	rjmp	.+120    	; 0x838 <__DATA_REGION_LENGTH__+0x38>
 7c0:	30 ef       	ldi	r19, 0xF0	; 240
 7c2:	38 0f       	add	r19, r24
 7c4:	38 30       	cpi	r19, 0x08	; 8
 7c6:	50 f4       	brcc	.+20     	; 0x7dc <DIO_WritePin+0x5a>
 7c8:	25 b3       	in	r18, 0x15	; 21
 7ca:	81 e0       	ldi	r24, 0x01	; 1
 7cc:	90 e0       	ldi	r25, 0x00	; 0
 7ce:	01 c0       	rjmp	.+2      	; 0x7d2 <DIO_WritePin+0x50>
 7d0:	88 0f       	add	r24, r24
 7d2:	3a 95       	dec	r19
 7d4:	ea f7       	brpl	.-6      	; 0x7d0 <DIO_WritePin+0x4e>
 7d6:	80 95       	com	r24
 7d8:	82 23       	and	r24, r18
 7da:	3c c0       	rjmp	.+120    	; 0x854 <__DATA_REGION_LENGTH__+0x54>
 7dc:	88 51       	subi	r24, 0x18	; 24
 7de:	88 30       	cpi	r24, 0x08	; 8
 7e0:	08 f0       	brcs	.+2      	; 0x7e4 <DIO_WritePin+0x62>
 7e2:	49 c0       	rjmp	.+146    	; 0x876 <__stack+0x17>
 7e4:	42 b3       	in	r20, 0x12	; 18
 7e6:	21 e0       	ldi	r18, 0x01	; 1
 7e8:	30 e0       	ldi	r19, 0x00	; 0
 7ea:	b9 01       	movw	r22, r18
 7ec:	02 c0       	rjmp	.+4      	; 0x7f2 <DIO_WritePin+0x70>
 7ee:	66 0f       	add	r22, r22
 7f0:	77 1f       	adc	r23, r23
 7f2:	8a 95       	dec	r24
 7f4:	e2 f7       	brpl	.-8      	; 0x7ee <DIO_WritePin+0x6c>
 7f6:	cb 01       	movw	r24, r22
 7f8:	80 95       	com	r24
 7fa:	84 23       	and	r24, r20
 7fc:	3b c0       	rjmp	.+118    	; 0x874 <__stack+0x15>
 7fe:	61 30       	cpi	r22, 0x01	; 1
 800:	d1 f5       	brne	.+116    	; 0x876 <__stack+0x17>
 802:	88 30       	cpi	r24, 0x08	; 8
 804:	68 f4       	brcc	.+26     	; 0x820 <__DATA_REGION_LENGTH__+0x20>
 806:	4b b3       	in	r20, 0x1b	; 27
 808:	21 e0       	ldi	r18, 0x01	; 1
 80a:	30 e0       	ldi	r19, 0x00	; 0
 80c:	b9 01       	movw	r22, r18
 80e:	02 c0       	rjmp	.+4      	; 0x814 <__DATA_REGION_LENGTH__+0x14>
 810:	66 0f       	add	r22, r22
 812:	77 1f       	adc	r23, r23
 814:	8a 95       	dec	r24
 816:	e2 f7       	brpl	.-8      	; 0x810 <__DATA_REGION_LENGTH__+0x10>
 818:	cb 01       	movw	r24, r22
 81a:	84 2b       	or	r24, r20
 81c:	8b bb       	out	0x1b, r24	; 27
 81e:	08 95       	ret
 820:	28 ef       	ldi	r18, 0xF8	; 248
 822:	28 0f       	add	r18, r24
 824:	28 30       	cpi	r18, 0x08	; 8
 826:	50 f4       	brcc	.+20     	; 0x83c <__DATA_REGION_LENGTH__+0x3c>
 828:	38 b3       	in	r19, 0x18	; 24
 82a:	81 e0       	ldi	r24, 0x01	; 1
 82c:	90 e0       	ldi	r25, 0x00	; 0
 82e:	01 c0       	rjmp	.+2      	; 0x832 <__DATA_REGION_LENGTH__+0x32>
 830:	88 0f       	add	r24, r24
 832:	2a 95       	dec	r18
 834:	ea f7       	brpl	.-6      	; 0x830 <__DATA_REGION_LENGTH__+0x30>
 836:	83 2b       	or	r24, r19
 838:	88 bb       	out	0x18, r24	; 24
 83a:	08 95       	ret
 83c:	20 ef       	ldi	r18, 0xF0	; 240
 83e:	28 0f       	add	r18, r24
 840:	28 30       	cpi	r18, 0x08	; 8
 842:	50 f4       	brcc	.+20     	; 0x858 <__DATA_REGION_LENGTH__+0x58>
 844:	35 b3       	in	r19, 0x15	; 21
 846:	81 e0       	ldi	r24, 0x01	; 1
 848:	90 e0       	ldi	r25, 0x00	; 0
 84a:	01 c0       	rjmp	.+2      	; 0x84e <__DATA_REGION_LENGTH__+0x4e>
 84c:	88 0f       	add	r24, r24
 84e:	2a 95       	dec	r18
 850:	ea f7       	brpl	.-6      	; 0x84c <__DATA_REGION_LENGTH__+0x4c>
 852:	83 2b       	or	r24, r19
 854:	85 bb       	out	0x15, r24	; 21
 856:	08 95       	ret
 858:	88 51       	subi	r24, 0x18	; 24
 85a:	88 30       	cpi	r24, 0x08	; 8
 85c:	60 f4       	brcc	.+24     	; 0x876 <__stack+0x17>
 85e:	42 b3       	in	r20, 0x12	; 18
 860:	21 e0       	ldi	r18, 0x01	; 1
 862:	30 e0       	ldi	r19, 0x00	; 0
 864:	b9 01       	movw	r22, r18
 866:	02 c0       	rjmp	.+4      	; 0x86c <__stack+0xd>
 868:	66 0f       	add	r22, r22
 86a:	77 1f       	adc	r23, r23
 86c:	8a 95       	dec	r24
 86e:	e2 f7       	brpl	.-8      	; 0x868 <__stack+0x9>
 870:	cb 01       	movw	r24, r22
 872:	84 2b       	or	r24, r20
 874:	82 bb       	out	0x12, r24	; 18
 876:	08 95       	ret

00000878 <DIO_ReadPin>:
 878:	28 2f       	mov	r18, r24
 87a:	88 30       	cpi	r24, 0x08	; 8
 87c:	10 f4       	brcc	.+4      	; 0x882 <DIO_ReadPin+0xa>
 87e:	99 b3       	in	r25, 0x19	; 25
 880:	16 c0       	rjmp	.+44     	; 0x8ae <DIO_ReadPin+0x36>
 882:	38 ef       	ldi	r19, 0xF8	; 248
 884:	38 0f       	add	r19, r24
 886:	38 30       	cpi	r19, 0x08	; 8
 888:	10 f4       	brcc	.+4      	; 0x88e <DIO_ReadPin+0x16>
 88a:	86 b3       	in	r24, 0x16	; 22
 88c:	05 c0       	rjmp	.+10     	; 0x898 <DIO_ReadPin+0x20>
 88e:	30 ef       	ldi	r19, 0xF0	; 240
 890:	38 0f       	add	r19, r24
 892:	38 30       	cpi	r19, 0x08	; 8
 894:	40 f4       	brcc	.+16     	; 0x8a6 <DIO_ReadPin+0x2e>
 896:	83 b3       	in	r24, 0x13	; 19
 898:	90 e0       	ldi	r25, 0x00	; 0
 89a:	02 c0       	rjmp	.+4      	; 0x8a0 <DIO_ReadPin+0x28>
 89c:	95 95       	asr	r25
 89e:	87 95       	ror	r24
 8a0:	3a 95       	dec	r19
 8a2:	e2 f7       	brpl	.-8      	; 0x89c <DIO_ReadPin+0x24>
 8a4:	0b c0       	rjmp	.+22     	; 0x8bc <DIO_ReadPin+0x44>
 8a6:	28 51       	subi	r18, 0x18	; 24
 8a8:	28 30       	cpi	r18, 0x08	; 8
 8aa:	50 f4       	brcc	.+20     	; 0x8c0 <DIO_ReadPin+0x48>
 8ac:	90 b3       	in	r25, 0x10	; 16
 8ae:	89 2f       	mov	r24, r25
 8b0:	90 e0       	ldi	r25, 0x00	; 0
 8b2:	02 c0       	rjmp	.+4      	; 0x8b8 <DIO_ReadPin+0x40>
 8b4:	95 95       	asr	r25
 8b6:	87 95       	ror	r24
 8b8:	2a 95       	dec	r18
 8ba:	e2 f7       	brpl	.-8      	; 0x8b4 <DIO_ReadPin+0x3c>
 8bc:	81 70       	andi	r24, 0x01	; 1
 8be:	08 95       	ret
 8c0:	08 95       	ret

000008c2 <EEPROM_write>:
 8c2:	e1 99       	sbic	0x1c, 1	; 28
 8c4:	fe cf       	rjmp	.-4      	; 0x8c2 <EEPROM_write>
 8c6:	70 e0       	ldi	r23, 0x00	; 0
 8c8:	7e bb       	out	0x1e, r23	; 30
 8ca:	6d bb       	out	0x1d, r22	; 29
 8cc:	9f bb       	out	0x1f, r25	; 31
 8ce:	8e bb       	out	0x1e, r24	; 30
 8d0:	e2 9a       	sbi	0x1c, 2	; 28
 8d2:	e1 9a       	sbi	0x1c, 1	; 28
 8d4:	08 95       	ret

000008d6 <EEPROM_read>:
 8d6:	e1 99       	sbic	0x1c, 1	; 28
 8d8:	fe cf       	rjmp	.-4      	; 0x8d6 <EEPROM_read>
 8da:	9f bb       	out	0x1f, r25	; 31
 8dc:	8e bb       	out	0x1e, r24	; 30
 8de:	e0 9a       	sbi	0x1c, 0	; 28
 8e0:	8d b3       	in	r24, 0x1d	; 29
 8e2:	9e b3       	in	r25, 0x1e	; 30
 8e4:	08 95       	ret

000008e6 <__vector_1>:
 8e6:	1f 92       	push	r1
 8e8:	0f 92       	push	r0
 8ea:	0f b6       	in	r0, 0x3f	; 63
 8ec:	0f 92       	push	r0
 8ee:	11 24       	eor	r1, r1
 8f0:	2f 93       	push	r18
 8f2:	3f 93       	push	r19
 8f4:	4f 93       	push	r20
 8f6:	5f 93       	push	r21
 8f8:	6f 93       	push	r22
 8fa:	7f 93       	push	r23
 8fc:	8f 93       	push	r24
 8fe:	9f 93       	push	r25
 900:	af 93       	push	r26
 902:	bf 93       	push	r27
 904:	ef 93       	push	r30
 906:	ff 93       	push	r31
 908:	e0 91 bc 00 	lds	r30, 0x00BC	; 0x8000bc <FUNC_PTR0>
 90c:	f0 91 bd 00 	lds	r31, 0x00BD	; 0x8000bd <FUNC_PTR0+0x1>
 910:	30 97       	sbiw	r30, 0x00	; 0
 912:	09 f0       	breq	.+2      	; 0x916 <__vector_1+0x30>
 914:	09 95       	icall
 916:	ff 91       	pop	r31
 918:	ef 91       	pop	r30
 91a:	bf 91       	pop	r27
 91c:	af 91       	pop	r26
 91e:	9f 91       	pop	r25
 920:	8f 91       	pop	r24
 922:	7f 91       	pop	r23
 924:	6f 91       	pop	r22
 926:	5f 91       	pop	r21
 928:	4f 91       	pop	r20
 92a:	3f 91       	pop	r19
 92c:	2f 91       	pop	r18
 92e:	0f 90       	pop	r0
 930:	0f be       	out	0x3f, r0	; 63
 932:	0f 90       	pop	r0
 934:	1f 90       	pop	r1
 936:	18 95       	reti

00000938 <__vector_2>:
 938:	1f 92       	push	r1
 93a:	0f 92       	push	r0
 93c:	0f b6       	in	r0, 0x3f	; 63
 93e:	0f 92       	push	r0
 940:	11 24       	eor	r1, r1
 942:	2f 93       	push	r18
 944:	3f 93       	push	r19
 946:	4f 93       	push	r20
 948:	5f 93       	push	r21
 94a:	6f 93       	push	r22
 94c:	7f 93       	push	r23
 94e:	8f 93       	push	r24
 950:	9f 93       	push	r25
 952:	af 93       	push	r26
 954:	bf 93       	push	r27
 956:	ef 93       	push	r30
 958:	ff 93       	push	r31
 95a:	e0 91 ba 00 	lds	r30, 0x00BA	; 0x8000ba <FUNC_PTR1>
 95e:	f0 91 bb 00 	lds	r31, 0x00BB	; 0x8000bb <FUNC_PTR1+0x1>
 962:	30 97       	sbiw	r30, 0x00	; 0
 964:	09 f0       	breq	.+2      	; 0x968 <__vector_2+0x30>
 966:	09 95       	icall
 968:	ff 91       	pop	r31
 96a:	ef 91       	pop	r30
 96c:	bf 91       	pop	r27
 96e:	af 91       	pop	r26
 970:	9f 91       	pop	r25
 972:	8f 91       	pop	r24
 974:	7f 91       	pop	r23
 976:	6f 91       	pop	r22
 978:	5f 91       	pop	r21
 97a:	4f 91       	pop	r20
 97c:	3f 91       	pop	r19
 97e:	2f 91       	pop	r18
 980:	0f 90       	pop	r0
 982:	0f be       	out	0x3f, r0	; 63
 984:	0f 90       	pop	r0
 986:	1f 90       	pop	r1
 988:	18 95       	reti

0000098a <__vector_3>:
 98a:	1f 92       	push	r1
 98c:	0f 92       	push	r0
 98e:	0f b6       	in	r0, 0x3f	; 63
 990:	0f 92       	push	r0
 992:	11 24       	eor	r1, r1
 994:	2f 93       	push	r18
 996:	3f 93       	push	r19
 998:	4f 93       	push	r20
 99a:	5f 93       	push	r21
 99c:	6f 93       	push	r22
 99e:	7f 93       	push	r23
 9a0:	8f 93       	push	r24
 9a2:	9f 93       	push	r25
 9a4:	af 93       	push	r26
 9a6:	bf 93       	push	r27
 9a8:	ef 93       	push	r30
 9aa:	ff 93       	push	r31
 9ac:	e0 91 b8 00 	lds	r30, 0x00B8	; 0x8000b8 <FUNC_PTR2>
 9b0:	f0 91 b9 00 	lds	r31, 0x00B9	; 0x8000b9 <FUNC_PTR2+0x1>
 9b4:	30 97       	sbiw	r30, 0x00	; 0
 9b6:	09 f0       	breq	.+2      	; 0x9ba <__vector_3+0x30>
 9b8:	09 95       	icall
 9ba:	ff 91       	pop	r31
 9bc:	ef 91       	pop	r30
 9be:	bf 91       	pop	r27
 9c0:	af 91       	pop	r26
 9c2:	9f 91       	pop	r25
 9c4:	8f 91       	pop	r24
 9c6:	7f 91       	pop	r23
 9c8:	6f 91       	pop	r22
 9ca:	5f 91       	pop	r21
 9cc:	4f 91       	pop	r20
 9ce:	3f 91       	pop	r19
 9d0:	2f 91       	pop	r18
 9d2:	0f 90       	pop	r0
 9d4:	0f be       	out	0x3f, r0	; 63
 9d6:	0f 90       	pop	r0
 9d8:	1f 90       	pop	r1
 9da:	18 95       	reti

000009dc <__vector_12>:
 9dc:	1f 92       	push	r1
 9de:	0f 92       	push	r0
 9e0:	0f b6       	in	r0, 0x3f	; 63
 9e2:	0f 92       	push	r0
 9e4:	11 24       	eor	r1, r1
 9e6:	2f 93       	push	r18
 9e8:	3f 93       	push	r19
 9ea:	4f 93       	push	r20
 9ec:	5f 93       	push	r21
 9ee:	6f 93       	push	r22
 9f0:	7f 93       	push	r23
 9f2:	8f 93       	push	r24
 9f4:	9f 93       	push	r25
 9f6:	af 93       	push	r26
 9f8:	bf 93       	push	r27
 9fa:	ef 93       	push	r30
 9fc:	ff 93       	push	r31
 9fe:	e0 91 be 00 	lds	r30, 0x00BE	; 0x8000be <SPI_INTERRUP_PTR>
 a02:	f0 91 bf 00 	lds	r31, 0x00BF	; 0x8000bf <SPI_INTERRUP_PTR+0x1>
 a06:	30 97       	sbiw	r30, 0x00	; 0
 a08:	09 f0       	breq	.+2      	; 0xa0c <__vector_12+0x30>
 a0a:	09 95       	icall
 a0c:	ff 91       	pop	r31
 a0e:	ef 91       	pop	r30
 a10:	bf 91       	pop	r27
 a12:	af 91       	pop	r26
 a14:	9f 91       	pop	r25
 a16:	8f 91       	pop	r24
 a18:	7f 91       	pop	r23
 a1a:	6f 91       	pop	r22
 a1c:	5f 91       	pop	r21
 a1e:	4f 91       	pop	r20
 a20:	3f 91       	pop	r19
 a22:	2f 91       	pop	r18
 a24:	0f 90       	pop	r0
 a26:	0f be       	out	0x3f, r0	; 63
 a28:	0f 90       	pop	r0
 a2a:	1f 90       	pop	r1
 a2c:	18 95       	reti

00000a2e <__vector_10>:
 a2e:	1f 92       	push	r1
 a30:	0f 92       	push	r0
 a32:	0f b6       	in	r0, 0x3f	; 63
 a34:	0f 92       	push	r0
 a36:	11 24       	eor	r1, r1
 a38:	2f 93       	push	r18
 a3a:	3f 93       	push	r19
 a3c:	4f 93       	push	r20
 a3e:	5f 93       	push	r21
 a40:	6f 93       	push	r22
 a42:	7f 93       	push	r23
 a44:	8f 93       	push	r24
 a46:	9f 93       	push	r25
 a48:	af 93       	push	r26
 a4a:	bf 93       	push	r27
 a4c:	ef 93       	push	r30
 a4e:	ff 93       	push	r31
 a50:	e0 91 c2 00 	lds	r30, 0x00C2	; 0x8000c2 <funcPtrCompareMatch>
 a54:	f0 91 c3 00 	lds	r31, 0x00C3	; 0x8000c3 <funcPtrCompareMatch+0x1>
 a58:	30 97       	sbiw	r30, 0x00	; 0
 a5a:	09 f0       	breq	.+2      	; 0xa5e <__vector_10+0x30>
 a5c:	09 95       	icall
 a5e:	ff 91       	pop	r31
 a60:	ef 91       	pop	r30
 a62:	bf 91       	pop	r27
 a64:	af 91       	pop	r26
 a66:	9f 91       	pop	r25
 a68:	8f 91       	pop	r24
 a6a:	7f 91       	pop	r23
 a6c:	6f 91       	pop	r22
 a6e:	5f 91       	pop	r21
 a70:	4f 91       	pop	r20
 a72:	3f 91       	pop	r19
 a74:	2f 91       	pop	r18
 a76:	0f 90       	pop	r0
 a78:	0f be       	out	0x3f, r0	; 63
 a7a:	0f 90       	pop	r0
 a7c:	1f 90       	pop	r1
 a7e:	18 95       	reti

00000a80 <__vector_11>:
 a80:	1f 92       	push	r1
 a82:	0f 92       	push	r0
 a84:	0f b6       	in	r0, 0x3f	; 63
 a86:	0f 92       	push	r0
 a88:	11 24       	eor	r1, r1
 a8a:	2f 93       	push	r18
 a8c:	3f 93       	push	r19
 a8e:	4f 93       	push	r20
 a90:	5f 93       	push	r21
 a92:	6f 93       	push	r22
 a94:	7f 93       	push	r23
 a96:	8f 93       	push	r24
 a98:	9f 93       	push	r25
 a9a:	af 93       	push	r26
 a9c:	bf 93       	push	r27
 a9e:	ef 93       	push	r30
 aa0:	ff 93       	push	r31
 aa2:	e0 91 c0 00 	lds	r30, 0x00C0	; 0x8000c0 <funcPtrOverflow>
 aa6:	f0 91 c1 00 	lds	r31, 0x00C1	; 0x8000c1 <funcPtrOverflow+0x1>
 aaa:	30 97       	sbiw	r30, 0x00	; 0
 aac:	09 f0       	breq	.+2      	; 0xab0 <__vector_11+0x30>
 aae:	09 95       	icall
 ab0:	ff 91       	pop	r31
 ab2:	ef 91       	pop	r30
 ab4:	bf 91       	pop	r27
 ab6:	af 91       	pop	r26
 ab8:	9f 91       	pop	r25
 aba:	8f 91       	pop	r24
 abc:	7f 91       	pop	r23
 abe:	6f 91       	pop	r22
 ac0:	5f 91       	pop	r21
 ac2:	4f 91       	pop	r20
 ac4:	3f 91       	pop	r19
 ac6:	2f 91       	pop	r18
 ac8:	0f 90       	pop	r0
 aca:	0f be       	out	0x3f, r0	; 63
 acc:	0f 90       	pop	r0
 ace:	1f 90       	pop	r1
 ad0:	18 95       	reti

00000ad2 <__vector_7>:
 ad2:	1f 92       	push	r1
 ad4:	0f 92       	push	r0
 ad6:	0f b6       	in	r0, 0x3f	; 63
 ad8:	0f 92       	push	r0
 ada:	11 24       	eor	r1, r1
 adc:	2f 93       	push	r18
 ade:	3f 93       	push	r19
 ae0:	4f 93       	push	r20
 ae2:	5f 93       	push	r21
 ae4:	6f 93       	push	r22
 ae6:	7f 93       	push	r23
 ae8:	8f 93       	push	r24
 aea:	9f 93       	push	r25
 aec:	af 93       	push	r26
 aee:	bf 93       	push	r27
 af0:	ef 93       	push	r30
 af2:	ff 93       	push	r31
 af4:	e0 91 ca 00 	lds	r30, 0x00CA	; 0x8000ca <funcPtrCompareMatch1A>
 af8:	f0 91 cb 00 	lds	r31, 0x00CB	; 0x8000cb <funcPtrCompareMatch1A+0x1>
 afc:	30 97       	sbiw	r30, 0x00	; 0
 afe:	09 f0       	breq	.+2      	; 0xb02 <__vector_7+0x30>
 b00:	09 95       	icall
 b02:	ff 91       	pop	r31
 b04:	ef 91       	pop	r30
 b06:	bf 91       	pop	r27
 b08:	af 91       	pop	r26
 b0a:	9f 91       	pop	r25
 b0c:	8f 91       	pop	r24
 b0e:	7f 91       	pop	r23
 b10:	6f 91       	pop	r22
 b12:	5f 91       	pop	r21
 b14:	4f 91       	pop	r20
 b16:	3f 91       	pop	r19
 b18:	2f 91       	pop	r18
 b1a:	0f 90       	pop	r0
 b1c:	0f be       	out	0x3f, r0	; 63
 b1e:	0f 90       	pop	r0
 b20:	1f 90       	pop	r1
 b22:	18 95       	reti

00000b24 <__vector_8>:
 b24:	1f 92       	push	r1
 b26:	0f 92       	push	r0
 b28:	0f b6       	in	r0, 0x3f	; 63
 b2a:	0f 92       	push	r0
 b2c:	11 24       	eor	r1, r1
 b2e:	2f 93       	push	r18
 b30:	3f 93       	push	r19
 b32:	4f 93       	push	r20
 b34:	5f 93       	push	r21
 b36:	6f 93       	push	r22
 b38:	7f 93       	push	r23
 b3a:	8f 93       	push	r24
 b3c:	9f 93       	push	r25
 b3e:	af 93       	push	r26
 b40:	bf 93       	push	r27
 b42:	ef 93       	push	r30
 b44:	ff 93       	push	r31
 b46:	e0 91 c8 00 	lds	r30, 0x00C8	; 0x8000c8 <funcPtrCompareMatch1B>
 b4a:	f0 91 c9 00 	lds	r31, 0x00C9	; 0x8000c9 <funcPtrCompareMatch1B+0x1>
 b4e:	30 97       	sbiw	r30, 0x00	; 0
 b50:	09 f0       	breq	.+2      	; 0xb54 <__vector_8+0x30>
 b52:	09 95       	icall
 b54:	ff 91       	pop	r31
 b56:	ef 91       	pop	r30
 b58:	bf 91       	pop	r27
 b5a:	af 91       	pop	r26
 b5c:	9f 91       	pop	r25
 b5e:	8f 91       	pop	r24
 b60:	7f 91       	pop	r23
 b62:	6f 91       	pop	r22
 b64:	5f 91       	pop	r21
 b66:	4f 91       	pop	r20
 b68:	3f 91       	pop	r19
 b6a:	2f 91       	pop	r18
 b6c:	0f 90       	pop	r0
 b6e:	0f be       	out	0x3f, r0	; 63
 b70:	0f 90       	pop	r0
 b72:	1f 90       	pop	r1
 b74:	18 95       	reti

00000b76 <__vector_9>:
 b76:	1f 92       	push	r1
 b78:	0f 92       	push	r0
 b7a:	0f b6       	in	r0, 0x3f	; 63
 b7c:	0f 92       	push	r0
 b7e:	11 24       	eor	r1, r1
 b80:	2f 93       	push	r18
 b82:	3f 93       	push	r19
 b84:	4f 93       	push	r20
 b86:	5f 93       	push	r21
 b88:	6f 93       	push	r22
 b8a:	7f 93       	push	r23
 b8c:	8f 93       	push	r24
 b8e:	9f 93       	push	r25
 b90:	af 93       	push	r26
 b92:	bf 93       	push	r27
 b94:	ef 93       	push	r30
 b96:	ff 93       	push	r31
 b98:	e0 91 c6 00 	lds	r30, 0x00C6	; 0x8000c6 <funcPtrOverflow>
 b9c:	f0 91 c7 00 	lds	r31, 0x00C7	; 0x8000c7 <funcPtrOverflow+0x1>
 ba0:	30 97       	sbiw	r30, 0x00	; 0
 ba2:	09 f0       	breq	.+2      	; 0xba6 <__vector_9+0x30>
 ba4:	09 95       	icall
 ba6:	ff 91       	pop	r31
 ba8:	ef 91       	pop	r30
 baa:	bf 91       	pop	r27
 bac:	af 91       	pop	r26
 bae:	9f 91       	pop	r25
 bb0:	8f 91       	pop	r24
 bb2:	7f 91       	pop	r23
 bb4:	6f 91       	pop	r22
 bb6:	5f 91       	pop	r21
 bb8:	4f 91       	pop	r20
 bba:	3f 91       	pop	r19
 bbc:	2f 91       	pop	r18
 bbe:	0f 90       	pop	r0
 bc0:	0f be       	out	0x3f, r0	; 63
 bc2:	0f 90       	pop	r0
 bc4:	1f 90       	pop	r1
 bc6:	18 95       	reti

00000bc8 <__vector_6>:
 bc8:	1f 92       	push	r1
 bca:	0f 92       	push	r0
 bcc:	0f b6       	in	r0, 0x3f	; 63
 bce:	0f 92       	push	r0
 bd0:	11 24       	eor	r1, r1
 bd2:	2f 93       	push	r18
 bd4:	3f 93       	push	r19
 bd6:	4f 93       	push	r20
 bd8:	5f 93       	push	r21
 bda:	6f 93       	push	r22
 bdc:	7f 93       	push	r23
 bde:	8f 93       	push	r24
 be0:	9f 93       	push	r25
 be2:	af 93       	push	r26
 be4:	bf 93       	push	r27
 be6:	ef 93       	push	r30
 be8:	ff 93       	push	r31
 bea:	e0 91 c4 00 	lds	r30, 0x00C4	; 0x8000c4 <funcPtrTimeStamp>
 bee:	f0 91 c5 00 	lds	r31, 0x00C5	; 0x8000c5 <funcPtrTimeStamp+0x1>
 bf2:	30 97       	sbiw	r30, 0x00	; 0
 bf4:	09 f0       	breq	.+2      	; 0xbf8 <__vector_6+0x30>
 bf6:	09 95       	icall
 bf8:	ff 91       	pop	r31
 bfa:	ef 91       	pop	r30
 bfc:	bf 91       	pop	r27
 bfe:	af 91       	pop	r26
 c00:	9f 91       	pop	r25
 c02:	8f 91       	pop	r24
 c04:	7f 91       	pop	r23
 c06:	6f 91       	pop	r22
 c08:	5f 91       	pop	r21
 c0a:	4f 91       	pop	r20
 c0c:	3f 91       	pop	r19
 c0e:	2f 91       	pop	r18
 c10:	0f 90       	pop	r0
 c12:	0f be       	out	0x3f, r0	; 63
 c14:	0f 90       	pop	r0
 c16:	1f 90       	pop	r1
 c18:	18 95       	reti

00000c1a <__vector_13>:
 c1a:	1f 92       	push	r1
 c1c:	0f 92       	push	r0
 c1e:	0f b6       	in	r0, 0x3f	; 63
 c20:	0f 92       	push	r0
 c22:	11 24       	eor	r1, r1
 c24:	2f 93       	push	r18
 c26:	3f 93       	push	r19
 c28:	4f 93       	push	r20
 c2a:	5f 93       	push	r21
 c2c:	6f 93       	push	r22
 c2e:	7f 93       	push	r23
 c30:	8f 93       	push	r24
 c32:	9f 93       	push	r25
 c34:	af 93       	push	r26
 c36:	bf 93       	push	r27
 c38:	ef 93       	push	r30
 c3a:	ff 93       	push	r31
 c3c:	e0 91 d0 00 	lds	r30, 0x00D0	; 0x8000d0 <RXcomplateInterruptPTR>
 c40:	f0 91 d1 00 	lds	r31, 0x00D1	; 0x8000d1 <RXcomplateInterruptPTR+0x1>
 c44:	30 97       	sbiw	r30, 0x00	; 0
 c46:	09 f0       	breq	.+2      	; 0xc4a <__vector_13+0x30>
 c48:	09 95       	icall
 c4a:	ff 91       	pop	r31
 c4c:	ef 91       	pop	r30
 c4e:	bf 91       	pop	r27
 c50:	af 91       	pop	r26
 c52:	9f 91       	pop	r25
 c54:	8f 91       	pop	r24
 c56:	7f 91       	pop	r23
 c58:	6f 91       	pop	r22
 c5a:	5f 91       	pop	r21
 c5c:	4f 91       	pop	r20
 c5e:	3f 91       	pop	r19
 c60:	2f 91       	pop	r18
 c62:	0f 90       	pop	r0
 c64:	0f be       	out	0x3f, r0	; 63
 c66:	0f 90       	pop	r0
 c68:	1f 90       	pop	r1
 c6a:	18 95       	reti

00000c6c <__vector_15>:
 c6c:	1f 92       	push	r1
 c6e:	0f 92       	push	r0
 c70:	0f b6       	in	r0, 0x3f	; 63
 c72:	0f 92       	push	r0
 c74:	11 24       	eor	r1, r1
 c76:	2f 93       	push	r18
 c78:	3f 93       	push	r19
 c7a:	4f 93       	push	r20
 c7c:	5f 93       	push	r21
 c7e:	6f 93       	push	r22
 c80:	7f 93       	push	r23
 c82:	8f 93       	push	r24
 c84:	9f 93       	push	r25
 c86:	af 93       	push	r26
 c88:	bf 93       	push	r27
 c8a:	ef 93       	push	r30
 c8c:	ff 93       	push	r31
 c8e:	e0 91 ce 00 	lds	r30, 0x00CE	; 0x8000ce <TXcomplateInterruptPTR>
 c92:	f0 91 cf 00 	lds	r31, 0x00CF	; 0x8000cf <TXcomplateInterruptPTR+0x1>
 c96:	30 97       	sbiw	r30, 0x00	; 0
 c98:	09 f0       	breq	.+2      	; 0xc9c <__vector_15+0x30>
 c9a:	09 95       	icall
 c9c:	ff 91       	pop	r31
 c9e:	ef 91       	pop	r30
 ca0:	bf 91       	pop	r27
 ca2:	af 91       	pop	r26
 ca4:	9f 91       	pop	r25
 ca6:	8f 91       	pop	r24
 ca8:	7f 91       	pop	r23
 caa:	6f 91       	pop	r22
 cac:	5f 91       	pop	r21
 cae:	4f 91       	pop	r20
 cb0:	3f 91       	pop	r19
 cb2:	2f 91       	pop	r18
 cb4:	0f 90       	pop	r0
 cb6:	0f be       	out	0x3f, r0	; 63
 cb8:	0f 90       	pop	r0
 cba:	1f 90       	pop	r1
 cbc:	18 95       	reti

00000cbe <__vector_14>:
 cbe:	1f 92       	push	r1
 cc0:	0f 92       	push	r0
 cc2:	0f b6       	in	r0, 0x3f	; 63
 cc4:	0f 92       	push	r0
 cc6:	11 24       	eor	r1, r1
 cc8:	2f 93       	push	r18
 cca:	3f 93       	push	r19
 ccc:	4f 93       	push	r20
 cce:	5f 93       	push	r21
 cd0:	6f 93       	push	r22
 cd2:	7f 93       	push	r23
 cd4:	8f 93       	push	r24
 cd6:	9f 93       	push	r25
 cd8:	af 93       	push	r26
 cda:	bf 93       	push	r27
 cdc:	ef 93       	push	r30
 cde:	ff 93       	push	r31
 ce0:	e0 91 cc 00 	lds	r30, 0x00CC	; 0x8000cc <UDRemptyInterruptPTR>
 ce4:	f0 91 cd 00 	lds	r31, 0x00CD	; 0x8000cd <UDRemptyInterruptPTR+0x1>
 ce8:	30 97       	sbiw	r30, 0x00	; 0
 cea:	09 f0       	breq	.+2      	; 0xcee <__vector_14+0x30>
 cec:	09 95       	icall
 cee:	ff 91       	pop	r31
 cf0:	ef 91       	pop	r30
 cf2:	bf 91       	pop	r27
 cf4:	af 91       	pop	r26
 cf6:	9f 91       	pop	r25
 cf8:	8f 91       	pop	r24
 cfa:	7f 91       	pop	r23
 cfc:	6f 91       	pop	r22
 cfe:	5f 91       	pop	r21
 d00:	4f 91       	pop	r20
 d02:	3f 91       	pop	r19
 d04:	2f 91       	pop	r18
 d06:	0f 90       	pop	r0
 d08:	0f be       	out	0x3f, r0	; 63
 d0a:	0f 90       	pop	r0
 d0c:	1f 90       	pop	r1
 d0e:	18 95       	reti

00000d10 <_exit>:
 d10:	f8 94       	cli

00000d12 <__stop_program>:
 d12:	ff cf       	rjmp	.-2      	; 0xd12 <__stop_program>
