
atmega32_ECU.elf:     file format elf32-avr

Sections:
Idx Name          Size      VMA       LMA       File off  Algn
  0 .text         00002096  00000000  00000000  00000094  2**1
                  CONTENTS, ALLOC, LOAD, READONLY, CODE
  1 .data         000000ba  00800060  00002096  0000212a  2**0
                  CONTENTS, ALLOC, LOAD, DATA
  2 .bss          0000005a  0080011a  0080011a  000021e4  2**0
                  ALLOC
  3 .comment      00000030  00000000  00000000  000021e4  2**0
                  CONTENTS, READONLY
  4 .note.gnu.avr.deviceinfo 0000003c  00000000  00000000  00002214  2**2
                  CONTENTS, READONLY
  5 .debug_info   000004e6  00000000  00000000  00002250  2**0
                  CONTENTS, READONLY, DEBUGGING
  6 .debug_abbrev 000004a3  00000000  00000000  00002736  2**0
                  CONTENTS, READONLY, DEBUGGING
  7 .debug_line   00000116  00000000  00000000  00002bd9  2**0
                  CONTENTS, READONLY, DEBUGGING
  8 .debug_str    00000196  00000000  00000000  00002cef  2**0
                  CONTENTS, READONLY, DEBUGGING

Disassembly of section .text:

00000000 <__vectors>:
       0:	0c 94 2a 00 	jmp	0x54	; 0x54 <__ctors_end>
       4:	0c 94 4f 0b 	jmp	0x169e	; 0x169e <__vector_1>
       8:	0c 94 78 0b 	jmp	0x16f0	; 0x16f0 <__vector_2>
       c:	0c 94 a1 0b 	jmp	0x1742	; 0x1742 <__vector_3>
      10:	0c 94 47 00 	jmp	0x8e	; 0x8e <__bad_interrupt>
      14:	0c 94 47 00 	jmp	0x8e	; 0x8e <__bad_interrupt>
      18:	0c 94 c0 0c 	jmp	0x1980	; 0x1980 <__vector_6>
      1c:	0c 94 45 0c 	jmp	0x188a	; 0x188a <__vector_7>
      20:	0c 94 6e 0c 	jmp	0x18dc	; 0x18dc <__vector_8>
      24:	0c 94 97 0c 	jmp	0x192e	; 0x192e <__vector_9>
      28:	0c 94 f3 0b 	jmp	0x17e6	; 0x17e6 <__vector_10>
      2c:	0c 94 1c 0c 	jmp	0x1838	; 0x1838 <__vector_11>
      30:	0c 94 ca 0b 	jmp	0x1794	; 0x1794 <__vector_12>
      34:	0c 94 e9 0c 	jmp	0x19d2	; 0x19d2 <__vector_13>
      38:	0c 94 3b 0d 	jmp	0x1a76	; 0x1a76 <__vector_14>
      3c:	0c 94 12 0d 	jmp	0x1a24	; 0x1a24 <__vector_15>
      40:	0c 94 a7 09 	jmp	0x134e	; 0x134e <__vector_16>
      44:	0c 94 47 00 	jmp	0x8e	; 0x8e <__bad_interrupt>
      48:	0c 94 47 00 	jmp	0x8e	; 0x8e <__bad_interrupt>
      4c:	0c 94 47 00 	jmp	0x8e	; 0x8e <__bad_interrupt>
      50:	0c 94 47 00 	jmp	0x8e	; 0x8e <__bad_interrupt>

00000054 <__ctors_end>:
      54:	11 24       	eor	r1, r1
      56:	1f be       	out	0x3f, r1	; 63
      58:	cf e5       	ldi	r28, 0x5F	; 95
      5a:	d8 e0       	ldi	r29, 0x08	; 8
      5c:	de bf       	out	0x3e, r29	; 62
      5e:	cd bf       	out	0x3d, r28	; 61

00000060 <__do_copy_data>:
      60:	11 e0       	ldi	r17, 0x01	; 1
      62:	a0 e6       	ldi	r26, 0x60	; 96
      64:	b0 e0       	ldi	r27, 0x00	; 0
      66:	e6 e9       	ldi	r30, 0x96	; 150
      68:	f0 e2       	ldi	r31, 0x20	; 32
      6a:	02 c0       	rjmp	.+4      	; 0x70 <__do_copy_data+0x10>
      6c:	05 90       	lpm	r0, Z+
      6e:	0d 92       	st	X+, r0
      70:	aa 31       	cpi	r26, 0x1A	; 26
      72:	b1 07       	cpc	r27, r17
      74:	d9 f7       	brne	.-10     	; 0x6c <__do_copy_data+0xc>

00000076 <__do_clear_bss>:
      76:	21 e0       	ldi	r18, 0x01	; 1
      78:	aa e1       	ldi	r26, 0x1A	; 26
      7a:	b1 e0       	ldi	r27, 0x01	; 1
      7c:	01 c0       	rjmp	.+2      	; 0x80 <.do_clear_bss_start>

0000007e <.do_clear_bss_loop>:
      7e:	1d 92       	st	X+, r1

00000080 <.do_clear_bss_start>:
      80:	a4 37       	cpi	r26, 0x74	; 116
      82:	b2 07       	cpc	r27, r18
      84:	e1 f7       	brne	.-8      	; 0x7e <.do_clear_bss_loop>
      86:	0e 94 a2 09 	call	0x1344	; 0x1344 <main>
      8a:	0c 94 49 10 	jmp	0x2092	; 0x2092 <_exit>

0000008e <__bad_interrupt>:
      8e:	0c 94 00 00 	jmp	0	; 0x0 <__vectors>

00000092 <Calculator_Converter_IsDecimal>:
      92:	90 e0       	ldi	r25, 0x00	; 0
      94:	e9 2f       	mov	r30, r25
      96:	f0 e0       	ldi	r31, 0x00	; 0
      98:	ec 5c       	subi	r30, 0xCC	; 204
      9a:	fe 4f       	sbci	r31, 0xFE	; 254
      9c:	80 81       	ld	r24, Z
      9e:	88 23       	and	r24, r24
      a0:	49 f0       	breq	.+18     	; 0xb4 <Calculator_Converter_IsDecimal+0x22>
      a2:	80 53       	subi	r24, 0x30	; 48
      a4:	8a 30       	cpi	r24, 0x0A	; 10
      a6:	20 f0       	brcs	.+8      	; 0xb0 <Calculator_Converter_IsDecimal+0x1e>
      a8:	81 81       	ldd	r24, Z+1	; 0x01
      aa:	80 53       	subi	r24, 0x30	; 48
      ac:	8a 30       	cpi	r24, 0x0A	; 10
      ae:	20 f4       	brcc	.+8      	; 0xb8 <Calculator_Converter_IsDecimal+0x26>
      b0:	9f 5f       	subi	r25, 0xFF	; 255
      b2:	f0 cf       	rjmp	.-32     	; 0x94 <Calculator_Converter_IsDecimal+0x2>
      b4:	81 e0       	ldi	r24, 0x01	; 1
      b6:	08 95       	ret
      b8:	80 e0       	ldi	r24, 0x00	; 0
      ba:	08 95       	ret

000000bc <Calculator_Converter_HexStingToDec>:
      bc:	af 92       	push	r10
      be:	bf 92       	push	r11
      c0:	cf 92       	push	r12
      c2:	df 92       	push	r13
      c4:	ef 92       	push	r14
      c6:	ff 92       	push	r15
      c8:	0f 93       	push	r16
      ca:	1f 93       	push	r17
      cc:	a0 e0       	ldi	r26, 0x00	; 0
      ce:	20 e0       	ldi	r18, 0x00	; 0
      d0:	30 e0       	ldi	r19, 0x00	; 0
      d2:	40 e0       	ldi	r20, 0x00	; 0
      d4:	50 e0       	ldi	r21, 0x00	; 0
      d6:	60 e0       	ldi	r22, 0x00	; 0
      d8:	70 e0       	ldi	r23, 0x00	; 0
      da:	80 e0       	ldi	r24, 0x00	; 0
      dc:	90 e0       	ldi	r25, 0x00	; 0
      de:	ea 2f       	mov	r30, r26
      e0:	f0 e0       	ldi	r31, 0x00	; 0
      e2:	ec 5c       	subi	r30, 0xCC	; 204
      e4:	fe 4f       	sbci	r31, 0xFE	; 254
      e6:	e0 81       	ld	r30, Z
      e8:	ee 23       	and	r30, r30
      ea:	61 f1       	breq	.+88     	; 0x144 <Calculator_Converter_HexStingToDec+0x88>
      ec:	e1 34       	cpi	r30, 0x41	; 65
      ee:	61 f0       	breq	.+24     	; 0x108 <Calculator_Converter_HexStingToDec+0x4c>
      f0:	e2 34       	cpi	r30, 0x42	; 66
      f2:	61 f0       	breq	.+24     	; 0x10c <Calculator_Converter_HexStingToDec+0x50>
      f4:	e3 34       	cpi	r30, 0x43	; 67
      f6:	61 f0       	breq	.+24     	; 0x110 <Calculator_Converter_HexStingToDec+0x54>
      f8:	e4 34       	cpi	r30, 0x44	; 68
      fa:	61 f0       	breq	.+24     	; 0x114 <Calculator_Converter_HexStingToDec+0x58>
      fc:	e5 34       	cpi	r30, 0x45	; 69
      fe:	61 f0       	breq	.+24     	; 0x118 <Calculator_Converter_HexStingToDec+0x5c>
     100:	e6 34       	cpi	r30, 0x46	; 70
     102:	61 f0       	breq	.+24     	; 0x11c <Calculator_Converter_HexStingToDec+0x60>
     104:	e0 53       	subi	r30, 0x30	; 48
     106:	0b c0       	rjmp	.+22     	; 0x11e <Calculator_Converter_HexStingToDec+0x62>
     108:	ea e0       	ldi	r30, 0x0A	; 10
     10a:	09 c0       	rjmp	.+18     	; 0x11e <Calculator_Converter_HexStingToDec+0x62>
     10c:	eb e0       	ldi	r30, 0x0B	; 11
     10e:	07 c0       	rjmp	.+14     	; 0x11e <Calculator_Converter_HexStingToDec+0x62>
     110:	ec e0       	ldi	r30, 0x0C	; 12
     112:	05 c0       	rjmp	.+10     	; 0x11e <Calculator_Converter_HexStingToDec+0x62>
     114:	ed e0       	ldi	r30, 0x0D	; 13
     116:	03 c0       	rjmp	.+6      	; 0x11e <Calculator_Converter_HexStingToDec+0x62>
     118:	ee e0       	ldi	r30, 0x0E	; 14
     11a:	01 c0       	rjmp	.+2      	; 0x11e <Calculator_Converter_HexStingToDec+0x62>
     11c:	ef e0       	ldi	r30, 0x0F	; 15
     11e:	04 e0       	ldi	r16, 0x04	; 4
     120:	0e 94 12 10 	call	0x2024	; 0x2024 <__ashldi3>
     124:	59 01       	movw	r10, r18
     126:	6a 01       	movw	r12, r20
     128:	7b 01       	movw	r14, r22
     12a:	8c 01       	movw	r16, r24
     12c:	2e 2f       	mov	r18, r30
     12e:	30 e0       	ldi	r19, 0x00	; 0
     130:	40 e0       	ldi	r20, 0x00	; 0
     132:	50 e0       	ldi	r21, 0x00	; 0
     134:	60 e0       	ldi	r22, 0x00	; 0
     136:	70 e0       	ldi	r23, 0x00	; 0
     138:	80 e0       	ldi	r24, 0x00	; 0
     13a:	90 e0       	ldi	r25, 0x00	; 0
     13c:	0e 94 2b 10 	call	0x2056	; 0x2056 <__adddi3>
     140:	af 5f       	subi	r26, 0xFF	; 255
     142:	cd cf       	rjmp	.-102    	; 0xde <Calculator_Converter_HexStingToDec+0x22>
     144:	1f 91       	pop	r17
     146:	0f 91       	pop	r16
     148:	ff 90       	pop	r15
     14a:	ef 90       	pop	r14
     14c:	df 90       	pop	r13
     14e:	cf 90       	pop	r12
     150:	bf 90       	pop	r11
     152:	af 90       	pop	r10
     154:	08 95       	ret

00000156 <Calculator_Converter_IsBinary>:
     156:	30 91 34 01 	lds	r19, 0x0134	; 0x800134 <converterNumberAsCharacters>
     15a:	90 e0       	ldi	r25, 0x00	; 0
     15c:	e9 2f       	mov	r30, r25
     15e:	f0 e0       	ldi	r31, 0x00	; 0
     160:	ec 5c       	subi	r30, 0xCC	; 204
     162:	fe 4f       	sbci	r31, 0xFE	; 254
     164:	80 81       	ld	r24, Z
     166:	88 23       	and	r24, r24
     168:	89 f0       	breq	.+34     	; 0x18c <Calculator_Converter_IsBinary+0x36>
     16a:	3a 32       	cpi	r19, 0x2A	; 42
     16c:	89 f0       	breq	.+34     	; 0x190 <Calculator_Converter_IsBinary+0x3a>
     16e:	3f 32       	cpi	r19, 0x2F	; 47
     170:	79 f0       	breq	.+30     	; 0x190 <Calculator_Converter_IsBinary+0x3a>
     172:	20 ed       	ldi	r18, 0xD0	; 208
     174:	28 0f       	add	r18, r24
     176:	2a 30       	cpi	r18, 0x0A	; 10
     178:	20 f0       	brcs	.+8      	; 0x182 <Calculator_Converter_IsBinary+0x2c>
     17a:	21 81       	ldd	r18, Z+1	; 0x01
     17c:	20 53       	subi	r18, 0x30	; 48
     17e:	2a 30       	cpi	r18, 0x0A	; 10
     180:	38 f4       	brcc	.+14     	; 0x190 <Calculator_Converter_IsBinary+0x3a>
     182:	82 53       	subi	r24, 0x32	; 50
     184:	88 30       	cpi	r24, 0x08	; 8
     186:	20 f0       	brcs	.+8      	; 0x190 <Calculator_Converter_IsBinary+0x3a>
     188:	9f 5f       	subi	r25, 0xFF	; 255
     18a:	e8 cf       	rjmp	.-48     	; 0x15c <Calculator_Converter_IsBinary+0x6>
     18c:	81 e0       	ldi	r24, 0x01	; 1
     18e:	08 95       	ret
     190:	80 e0       	ldi	r24, 0x00	; 0
     192:	08 95       	ret

00000194 <Calculator_Converter_ErrorMessage>:
     194:	0e 94 b5 08 	call	0x116a	; 0x116a <LCD_Clear>
     198:	60 e0       	ldi	r22, 0x00	; 0
     19a:	80 e0       	ldi	r24, 0x00	; 0
     19c:	0e 94 bf 08 	call	0x117e	; 0x117e <LCD_GoTo>
     1a0:	81 e6       	ldi	r24, 0x61	; 97
     1a2:	90 e0       	ldi	r25, 0x00	; 0
     1a4:	0e 94 cd 08 	call	0x119a	; 0x119a <LCD_WriteString>
     1a8:	60 e0       	ldi	r22, 0x00	; 0
     1aa:	81 e0       	ldi	r24, 0x01	; 1
     1ac:	0e 94 bf 08 	call	0x117e	; 0x117e <LCD_GoTo>
     1b0:	8a e6       	ldi	r24, 0x6A	; 106
     1b2:	90 e0       	ldi	r25, 0x00	; 0
     1b4:	0e 94 cd 08 	call	0x119a	; 0x119a <LCD_WriteString>
     1b8:	0e 94 51 07 	call	0xea2	; 0xea2 <KEYPAD_GetKey>
     1bc:	80 93 32 01 	sts	0x0132, r24	; 0x800132 <key>
     1c0:	80 91 32 01 	lds	r24, 0x0132	; 0x800132 <key>
     1c4:	88 23       	and	r24, r24
     1c6:	c1 f3       	breq	.-16     	; 0x1b8 <Calculator_Converter_ErrorMessage+0x24>
     1c8:	0c 94 b5 08 	jmp	0x116a	; 0x116a <LCD_Clear>

000001cc <Calculator_Converter_scan>:
     1cc:	0e 94 51 07 	call	0xea2	; 0xea2 <KEYPAD_GetKey>
     1d0:	80 93 32 01 	sts	0x0132, r24	; 0x800132 <key>
     1d4:	80 91 32 01 	lds	r24, 0x0132	; 0x800132 <key>
     1d8:	8d 33       	cpi	r24, 0x3D	; 61
     1da:	49 f1       	breq	.+82     	; 0x22e <Calculator_Converter_scan+0x62>
     1dc:	83 34       	cpi	r24, 0x43	; 67
     1de:	39 f1       	breq	.+78     	; 0x22e <Calculator_Converter_scan+0x62>
     1e0:	88 23       	and	r24, r24
     1e2:	a1 f3       	breq	.-24     	; 0x1cc <Calculator_Converter_scan>
     1e4:	80 91 33 01 	lds	r24, 0x0133	; 0x800133 <converterNumberAsCharactersIndex>
     1e8:	8d 30       	cpi	r24, 0x0D	; 13
     1ea:	80 f7       	brcc	.-32     	; 0x1cc <Calculator_Converter_scan>
     1ec:	81 11       	cpse	r24, r1
     1ee:	0a c0       	rjmp	.+20     	; 0x204 <Calculator_Converter_scan+0x38>
     1f0:	4d e0       	ldi	r20, 0x0D	; 13
     1f2:	64 e0       	ldi	r22, 0x04	; 4
     1f4:	81 e0       	ldi	r24, 0x01	; 1
     1f6:	0e 94 89 09 	call	0x1312	; 0x1312 <LCD_GoToClear>
     1fa:	4d e0       	ldi	r20, 0x0D	; 13
     1fc:	64 e0       	ldi	r22, 0x04	; 4
     1fe:	80 e0       	ldi	r24, 0x00	; 0
     200:	0e 94 89 09 	call	0x1312	; 0x1312 <LCD_GoToClear>
     204:	80 91 32 01 	lds	r24, 0x0132	; 0x800132 <key>
     208:	0e 94 cb 08 	call	0x1196	; 0x1196 <LCD_WriteChar>
     20c:	e0 91 33 01 	lds	r30, 0x0133	; 0x800133 <converterNumberAsCharactersIndex>
     210:	ae 2f       	mov	r26, r30
     212:	b0 e0       	ldi	r27, 0x00	; 0
     214:	ac 5c       	subi	r26, 0xCC	; 204
     216:	be 4f       	sbci	r27, 0xFE	; 254
     218:	80 91 32 01 	lds	r24, 0x0132	; 0x800132 <key>
     21c:	8c 93       	st	X, r24
     21e:	ef 5f       	subi	r30, 0xFF	; 255
     220:	e0 93 33 01 	sts	0x0133, r30	; 0x800133 <converterNumberAsCharactersIndex>
     224:	f0 e0       	ldi	r31, 0x00	; 0
     226:	ec 5c       	subi	r30, 0xCC	; 204
     228:	fe 4f       	sbci	r31, 0xFE	; 254
     22a:	10 82       	st	Z, r1
     22c:	cf cf       	rjmp	.-98     	; 0x1cc <Calculator_Converter_scan>
     22e:	08 95       	ret

00000230 <Calculator_Converter_scanHex>:
     230:	0e 94 51 07 	call	0xea2	; 0xea2 <KEYPAD_GetKey>
     234:	80 93 32 01 	sts	0x0132, r24	; 0x800132 <key>
     238:	80 91 32 01 	lds	r24, 0x0132	; 0x800132 <key>
     23c:	8d 33       	cpi	r24, 0x3D	; 61
     23e:	09 f4       	brne	.+2      	; 0x242 <Calculator_Converter_scanHex+0x12>
     240:	5b c0       	rjmp	.+182    	; 0x2f8 <Calculator_Converter_scanHex+0xc8>
     242:	83 34       	cpi	r24, 0x43	; 67
     244:	09 f4       	brne	.+2      	; 0x248 <Calculator_Converter_scanHex+0x18>
     246:	58 c0       	rjmp	.+176    	; 0x2f8 <Calculator_Converter_scanHex+0xc8>
     248:	88 23       	and	r24, r24
     24a:	91 f3       	breq	.-28     	; 0x230 <Calculator_Converter_scanHex>
     24c:	80 91 33 01 	lds	r24, 0x0133	; 0x800133 <converterNumberAsCharactersIndex>
     250:	8d 30       	cpi	r24, 0x0D	; 13
     252:	70 f7       	brcc	.-36     	; 0x230 <Calculator_Converter_scanHex>
     254:	81 11       	cpse	r24, r1
     256:	0a c0       	rjmp	.+20     	; 0x26c <Calculator_Converter_scanHex+0x3c>
     258:	4d e0       	ldi	r20, 0x0D	; 13
     25a:	64 e0       	ldi	r22, 0x04	; 4
     25c:	81 e0       	ldi	r24, 0x01	; 1
     25e:	0e 94 89 09 	call	0x1312	; 0x1312 <LCD_GoToClear>
     262:	4d e0       	ldi	r20, 0x0D	; 13
     264:	64 e0       	ldi	r22, 0x04	; 4
     266:	80 e0       	ldi	r24, 0x00	; 0
     268:	0e 94 89 09 	call	0x1312	; 0x1312 <LCD_GoToClear>
     26c:	80 91 32 01 	lds	r24, 0x0132	; 0x800132 <key>
     270:	8f 32       	cpi	r24, 0x2F	; 47
     272:	51 f4       	brne	.+20     	; 0x288 <Calculator_Converter_scanHex+0x58>
     274:	81 e4       	ldi	r24, 0x41	; 65
     276:	0e 94 cb 08 	call	0x1196	; 0x1196 <LCD_WriteChar>
     27a:	e0 91 33 01 	lds	r30, 0x0133	; 0x800133 <converterNumberAsCharactersIndex>
     27e:	f0 e0       	ldi	r31, 0x00	; 0
     280:	ec 5c       	subi	r30, 0xCC	; 204
     282:	fe 4f       	sbci	r31, 0xFE	; 254
     284:	81 e4       	ldi	r24, 0x41	; 65
     286:	2d c0       	rjmp	.+90     	; 0x2e2 <Calculator_Converter_scanHex+0xb2>
     288:	8a 32       	cpi	r24, 0x2A	; 42
     28a:	51 f4       	brne	.+20     	; 0x2a0 <Calculator_Converter_scanHex+0x70>
     28c:	82 e4       	ldi	r24, 0x42	; 66
     28e:	0e 94 cb 08 	call	0x1196	; 0x1196 <LCD_WriteChar>
     292:	e0 91 33 01 	lds	r30, 0x0133	; 0x800133 <converterNumberAsCharactersIndex>
     296:	f0 e0       	ldi	r31, 0x00	; 0
     298:	ec 5c       	subi	r30, 0xCC	; 204
     29a:	fe 4f       	sbci	r31, 0xFE	; 254
     29c:	82 e4       	ldi	r24, 0x42	; 66
     29e:	21 c0       	rjmp	.+66     	; 0x2e2 <Calculator_Converter_scanHex+0xb2>
     2a0:	8d 32       	cpi	r24, 0x2D	; 45
     2a2:	51 f4       	brne	.+20     	; 0x2b8 <Calculator_Converter_scanHex+0x88>
     2a4:	84 e4       	ldi	r24, 0x44	; 68
     2a6:	0e 94 cb 08 	call	0x1196	; 0x1196 <LCD_WriteChar>
     2aa:	e0 91 33 01 	lds	r30, 0x0133	; 0x800133 <converterNumberAsCharactersIndex>
     2ae:	f0 e0       	ldi	r31, 0x00	; 0
     2b0:	ec 5c       	subi	r30, 0xCC	; 204
     2b2:	fe 4f       	sbci	r31, 0xFE	; 254
     2b4:	84 e4       	ldi	r24, 0x44	; 68
     2b6:	15 c0       	rjmp	.+42     	; 0x2e2 <Calculator_Converter_scanHex+0xb2>
     2b8:	8b 32       	cpi	r24, 0x2B	; 43
     2ba:	51 f4       	brne	.+20     	; 0x2d0 <Calculator_Converter_scanHex+0xa0>
     2bc:	85 e4       	ldi	r24, 0x45	; 69
     2be:	0e 94 cb 08 	call	0x1196	; 0x1196 <LCD_WriteChar>
     2c2:	e0 91 33 01 	lds	r30, 0x0133	; 0x800133 <converterNumberAsCharactersIndex>
     2c6:	f0 e0       	ldi	r31, 0x00	; 0
     2c8:	ec 5c       	subi	r30, 0xCC	; 204
     2ca:	fe 4f       	sbci	r31, 0xFE	; 254
     2cc:	85 e4       	ldi	r24, 0x45	; 69
     2ce:	09 c0       	rjmp	.+18     	; 0x2e2 <Calculator_Converter_scanHex+0xb2>
     2d0:	0e 94 cb 08 	call	0x1196	; 0x1196 <LCD_WriteChar>
     2d4:	e0 91 33 01 	lds	r30, 0x0133	; 0x800133 <converterNumberAsCharactersIndex>
     2d8:	f0 e0       	ldi	r31, 0x00	; 0
     2da:	ec 5c       	subi	r30, 0xCC	; 204
     2dc:	fe 4f       	sbci	r31, 0xFE	; 254
     2de:	80 91 32 01 	lds	r24, 0x0132	; 0x800132 <key>
     2e2:	80 83       	st	Z, r24
     2e4:	e0 91 33 01 	lds	r30, 0x0133	; 0x800133 <converterNumberAsCharactersIndex>
     2e8:	ef 5f       	subi	r30, 0xFF	; 255
     2ea:	e0 93 33 01 	sts	0x0133, r30	; 0x800133 <converterNumberAsCharactersIndex>
     2ee:	f0 e0       	ldi	r31, 0x00	; 0
     2f0:	ec 5c       	subi	r30, 0xCC	; 204
     2f2:	fe 4f       	sbci	r31, 0xFE	; 254
     2f4:	10 82       	st	Z, r1
     2f6:	9c cf       	rjmp	.-200    	; 0x230 <Calculator_Converter_scanHex>
     2f8:	08 95       	ret

000002fa <Calculator_Converter_Init>:
     2fa:	0e 94 d0 09 	call	0x13a0	; 0x13a0 <DIO_Init>
     2fe:	0e 94 7a 08 	call	0x10f4	; 0x10f4 <LCD_Init>
     302:	0e 94 b5 08 	call	0x116a	; 0x116a <LCD_Clear>
     306:	60 e0       	ldi	r22, 0x00	; 0
     308:	80 e0       	ldi	r24, 0x00	; 0
     30a:	0e 94 bf 08 	call	0x117e	; 0x117e <LCD_GoTo>
     30e:	8c e7       	ldi	r24, 0x7C	; 124
     310:	90 e0       	ldi	r25, 0x00	; 0
     312:	0e 94 cd 08 	call	0x119a	; 0x119a <LCD_WriteString>
     316:	2f ef       	ldi	r18, 0xFF	; 255
     318:	81 ee       	ldi	r24, 0xE1	; 225
     31a:	94 e0       	ldi	r25, 0x04	; 4
     31c:	21 50       	subi	r18, 0x01	; 1
     31e:	80 40       	sbci	r24, 0x00	; 0
     320:	90 40       	sbci	r25, 0x00	; 0
     322:	e1 f7       	brne	.-8      	; 0x31c <Calculator_Converter_Init+0x22>
     324:	00 c0       	rjmp	.+0      	; 0x326 <Calculator_Converter_Init+0x2c>
     326:	00 00       	nop
     328:	60 e0       	ldi	r22, 0x00	; 0
     32a:	80 e0       	ldi	r24, 0x00	; 0
     32c:	0e 94 bf 08 	call	0x117e	; 0x117e <LCD_GoTo>
     330:	87 e9       	ldi	r24, 0x97	; 151
     332:	90 e0       	ldi	r25, 0x00	; 0
     334:	0e 94 cd 08 	call	0x119a	; 0x119a <LCD_WriteString>
     338:	60 e0       	ldi	r22, 0x00	; 0
     33a:	81 e0       	ldi	r24, 0x01	; 1
     33c:	0e 94 bf 08 	call	0x117e	; 0x117e <LCD_GoTo>
     340:	87 e8       	ldi	r24, 0x87	; 135
     342:	90 e0       	ldi	r25, 0x00	; 0
     344:	0e 94 cd 08 	call	0x119a	; 0x119a <LCD_WriteString>
     348:	2f ef       	ldi	r18, 0xFF	; 255
     34a:	81 ee       	ldi	r24, 0xE1	; 225
     34c:	94 e0       	ldi	r25, 0x04	; 4
     34e:	21 50       	subi	r18, 0x01	; 1
     350:	80 40       	sbci	r24, 0x00	; 0
     352:	90 40       	sbci	r25, 0x00	; 0
     354:	e1 f7       	brne	.-8      	; 0x34e <Calculator_Converter_Init+0x54>
     356:	00 c0       	rjmp	.+0      	; 0x358 <Calculator_Converter_Init+0x5e>
     358:	00 00       	nop
     35a:	81 e0       	ldi	r24, 0x01	; 1
     35c:	80 93 46 01 	sts	0x0146, r24	; 0x800146 <levelFlag>
     360:	0c 94 b5 08 	jmp	0x116a	; 0x116a <LCD_Clear>

00000364 <Calculator_Converter_Run>:
     364:	2f 92       	push	r2
     366:	3f 92       	push	r3
     368:	4f 92       	push	r4
     36a:	5f 92       	push	r5
     36c:	6f 92       	push	r6
     36e:	7f 92       	push	r7
     370:	8f 92       	push	r8
     372:	9f 92       	push	r9
     374:	af 92       	push	r10
     376:	bf 92       	push	r11
     378:	cf 92       	push	r12
     37a:	df 92       	push	r13
     37c:	ef 92       	push	r14
     37e:	ff 92       	push	r15
     380:	0f 93       	push	r16
     382:	1f 93       	push	r17
     384:	cf 93       	push	r28
     386:	df 93       	push	r29
     388:	cd b7       	in	r28, 0x3d	; 61
     38a:	de b7       	in	r29, 0x3e	; 62
     38c:	65 97       	sbiw	r28, 0x15	; 21
     38e:	0f b6       	in	r0, 0x3f	; 63
     390:	f8 94       	cli
     392:	de bf       	out	0x3e, r29	; 62
     394:	0f be       	out	0x3f, r0	; 63
     396:	cd bf       	out	0x3d, r28	; 61
     398:	80 91 46 01 	lds	r24, 0x0146	; 0x800146 <levelFlag>
     39c:	81 30       	cpi	r24, 0x01	; 1
     39e:	11 f5       	brne	.+68     	; 0x3e4 <Calculator_Converter_Run+0x80>
     3a0:	0e 94 51 07 	call	0xea2	; 0xea2 <KEYPAD_GetKey>
     3a4:	9f ec       	ldi	r25, 0xCF	; 207
     3a6:	98 0f       	add	r25, r24
     3a8:	92 30       	cpi	r25, 0x02	; 2
     3aa:	88 f0       	brcs	.+34     	; 0x3ce <Calculator_Converter_Run+0x6a>
     3ac:	60 e0       	ldi	r22, 0x00	; 0
     3ae:	80 e0       	ldi	r24, 0x00	; 0
     3b0:	0e 94 bf 08 	call	0x117e	; 0x117e <LCD_GoTo>
     3b4:	85 e9       	ldi	r24, 0x95	; 149
     3b6:	90 e0       	ldi	r25, 0x00	; 0
     3b8:	0e 94 cd 08 	call	0x119a	; 0x119a <LCD_WriteString>
     3bc:	60 e0       	ldi	r22, 0x00	; 0
     3be:	81 e0       	ldi	r24, 0x01	; 1
     3c0:	0e 94 bf 08 	call	0x117e	; 0x117e <LCD_GoTo>
     3c4:	82 ea       	ldi	r24, 0xA2	; 162
     3c6:	90 e0       	ldi	r25, 0x00	; 0
     3c8:	0e 94 cd 08 	call	0x119a	; 0x119a <LCD_WriteString>
     3cc:	e9 cf       	rjmp	.-46     	; 0x3a0 <Calculator_Converter_Run+0x3c>
     3ce:	10 92 33 01 	sts	0x0133, r1	; 0x800133 <converterNumberAsCharactersIndex>
     3d2:	81 33       	cpi	r24, 0x31	; 49
     3d4:	11 f4       	brne	.+4      	; 0x3da <Calculator_Converter_Run+0x76>
     3d6:	82 e0       	ldi	r24, 0x02	; 2
     3d8:	01 c0       	rjmp	.+2      	; 0x3dc <Calculator_Converter_Run+0x78>
     3da:	83 e0       	ldi	r24, 0x03	; 3
     3dc:	80 93 46 01 	sts	0x0146, r24	; 0x800146 <levelFlag>
     3e0:	0e 94 b5 08 	call	0x116a	; 0x116a <LCD_Clear>
     3e4:	80 91 46 01 	lds	r24, 0x0146	; 0x800146 <levelFlag>
     3e8:	82 30       	cpi	r24, 0x02	; 2
     3ea:	09 f0       	breq	.+2      	; 0x3ee <Calculator_Converter_Run+0x8a>
     3ec:	48 c0       	rjmp	.+144    	; 0x47e <__EEPROM_REGION_LENGTH__+0x7e>
     3ee:	0e 94 51 07 	call	0xea2	; 0xea2 <KEYPAD_GetKey>
     3f2:	80 93 32 01 	sts	0x0132, r24	; 0x800132 <key>
     3f6:	80 91 32 01 	lds	r24, 0x0132	; 0x800132 <key>
     3fa:	8d 33       	cpi	r24, 0x3D	; 61
     3fc:	09 f4       	brne	.+2      	; 0x400 <__EEPROM_REGION_LENGTH__>
     3fe:	9f c3       	rjmp	.+1854   	; 0xb3e <__stack+0x2df>
     400:	83 34       	cpi	r24, 0x43	; 67
     402:	a1 f1       	breq	.+104    	; 0x46c <__EEPROM_REGION_LENGTH__+0x6c>
     404:	88 23       	and	r24, r24
     406:	99 f3       	breq	.-26     	; 0x3ee <Calculator_Converter_Run+0x8a>
     408:	80 91 33 01 	lds	r24, 0x0133	; 0x800133 <converterNumberAsCharactersIndex>
     40c:	80 31       	cpi	r24, 0x10	; 16
     40e:	78 f7       	brcc	.-34     	; 0x3ee <Calculator_Converter_Run+0x8a>
     410:	81 11       	cpse	r24, r1
     412:	17 c0       	rjmp	.+46     	; 0x442 <__EEPROM_REGION_LENGTH__+0x42>
     414:	40 e1       	ldi	r20, 0x10	; 16
     416:	60 e0       	ldi	r22, 0x00	; 0
     418:	81 e0       	ldi	r24, 0x01	; 1
     41a:	0e 94 89 09 	call	0x1312	; 0x1312 <LCD_GoToClear>
     41e:	40 e1       	ldi	r20, 0x10	; 16
     420:	60 e0       	ldi	r22, 0x00	; 0
     422:	80 e0       	ldi	r24, 0x00	; 0
     424:	0e 94 89 09 	call	0x1312	; 0x1312 <LCD_GoToClear>
     428:	80 91 32 01 	lds	r24, 0x0132	; 0x800132 <key>
     42c:	98 2f       	mov	r25, r24
     42e:	9d 7f       	andi	r25, 0xFD	; 253
     430:	9d 32       	cpi	r25, 0x2D	; 45
     432:	19 f0       	breq	.+6      	; 0x43a <__EEPROM_REGION_LENGTH__+0x3a>
     434:	8a 52       	subi	r24, 0x2A	; 42
     436:	82 30       	cpi	r24, 0x02	; 2
     438:	20 f4       	brcc	.+8      	; 0x442 <__EEPROM_REGION_LENGTH__+0x42>
     43a:	8e ea       	ldi	r24, 0xAE	; 174
     43c:	90 e0       	ldi	r25, 0x00	; 0
     43e:	0e 94 cd 08 	call	0x119a	; 0x119a <LCD_WriteString>
     442:	80 91 32 01 	lds	r24, 0x0132	; 0x800132 <key>
     446:	0e 94 cb 08 	call	0x1196	; 0x1196 <LCD_WriteChar>
     44a:	e0 91 33 01 	lds	r30, 0x0133	; 0x800133 <converterNumberAsCharactersIndex>
     44e:	ae 2f       	mov	r26, r30
     450:	b0 e0       	ldi	r27, 0x00	; 0
     452:	ac 5c       	subi	r26, 0xCC	; 204
     454:	be 4f       	sbci	r27, 0xFE	; 254
     456:	80 91 32 01 	lds	r24, 0x0132	; 0x800132 <key>
     45a:	8c 93       	st	X, r24
     45c:	ef 5f       	subi	r30, 0xFF	; 255
     45e:	e0 93 33 01 	sts	0x0133, r30	; 0x800133 <converterNumberAsCharactersIndex>
     462:	f0 e0       	ldi	r31, 0x00	; 0
     464:	ec 5c       	subi	r30, 0xCC	; 204
     466:	fe 4f       	sbci	r31, 0xFE	; 254
     468:	10 82       	st	Z, r1
     46a:	c1 cf       	rjmp	.-126    	; 0x3ee <Calculator_Converter_Run+0x8a>
     46c:	10 92 33 01 	sts	0x0133, r1	; 0x800133 <converterNumberAsCharactersIndex>
     470:	10 92 34 01 	sts	0x0134, r1	; 0x800134 <converterNumberAsCharacters>
     474:	0e 94 b5 08 	call	0x116a	; 0x116a <LCD_Clear>
     478:	81 e0       	ldi	r24, 0x01	; 1
     47a:	80 93 46 01 	sts	0x0146, r24	; 0x800146 <levelFlag>
     47e:	80 91 46 01 	lds	r24, 0x0146	; 0x800146 <levelFlag>
     482:	83 30       	cpi	r24, 0x03	; 3
     484:	b9 f5       	brne	.+110    	; 0x4f4 <__EEPROM_REGION_LENGTH__+0xf4>
     486:	0e 94 51 07 	call	0xea2	; 0xea2 <KEYPAD_GetKey>
     48a:	80 93 45 01 	sts	0x0145, r24	; 0x800145 <convertFromListKey>
     48e:	80 91 45 01 	lds	r24, 0x0145	; 0x800145 <convertFromListKey>
     492:	9f ec       	ldi	r25, 0xCF	; 207
     494:	98 0f       	add	r25, r24
     496:	93 30       	cpi	r25, 0x03	; 3
     498:	08 f4       	brcc	.+2      	; 0x49c <__EEPROM_REGION_LENGTH__+0x9c>
     49a:	ad c4       	rjmp	.+2394   	; 0xdf6 <__stack+0x597>
     49c:	83 34       	cpi	r24, 0x43	; 67
     49e:	09 f1       	breq	.+66     	; 0x4e2 <__EEPROM_REGION_LENGTH__+0xe2>
     4a0:	60 e0       	ldi	r22, 0x00	; 0
     4a2:	80 e0       	ldi	r24, 0x00	; 0
     4a4:	0e 94 bf 08 	call	0x117e	; 0x117e <LCD_GoTo>
     4a8:	82 eb       	ldi	r24, 0xB2	; 178
     4aa:	90 e0       	ldi	r25, 0x00	; 0
     4ac:	0e 94 cd 08 	call	0x119a	; 0x119a <LCD_WriteString>
     4b0:	60 e0       	ldi	r22, 0x00	; 0
     4b2:	81 e0       	ldi	r24, 0x01	; 1
     4b4:	0e 94 bf 08 	call	0x117e	; 0x117e <LCD_GoTo>
     4b8:	80 ec       	ldi	r24, 0xC0	; 192
     4ba:	90 e0       	ldi	r25, 0x00	; 0
     4bc:	0e 94 cd 08 	call	0x119a	; 0x119a <LCD_WriteString>
     4c0:	66 e0       	ldi	r22, 0x06	; 6
     4c2:	81 e0       	ldi	r24, 0x01	; 1
     4c4:	0e 94 bf 08 	call	0x117e	; 0x117e <LCD_GoTo>
     4c8:	84 ec       	ldi	r24, 0xC4	; 196
     4ca:	90 e0       	ldi	r25, 0x00	; 0
     4cc:	0e 94 cd 08 	call	0x119a	; 0x119a <LCD_WriteString>
     4d0:	6c e0       	ldi	r22, 0x0C	; 12
     4d2:	81 e0       	ldi	r24, 0x01	; 1
     4d4:	0e 94 bf 08 	call	0x117e	; 0x117e <LCD_GoTo>
     4d8:	88 ec       	ldi	r24, 0xC8	; 200
     4da:	90 e0       	ldi	r25, 0x00	; 0
     4dc:	0e 94 cd 08 	call	0x119a	; 0x119a <LCD_WriteString>
     4e0:	d2 cf       	rjmp	.-92     	; 0x486 <__EEPROM_REGION_LENGTH__+0x86>
     4e2:	81 e0       	ldi	r24, 0x01	; 1
     4e4:	80 93 46 01 	sts	0x0146, r24	; 0x800146 <levelFlag>
     4e8:	10 92 33 01 	sts	0x0133, r1	; 0x800133 <converterNumberAsCharactersIndex>
     4ec:	10 92 34 01 	sts	0x0134, r1	; 0x800134 <converterNumberAsCharacters>
     4f0:	0e 94 b5 08 	call	0x116a	; 0x116a <LCD_Clear>
     4f4:	80 91 46 01 	lds	r24, 0x0146	; 0x800146 <levelFlag>
     4f8:	84 30       	cpi	r24, 0x04	; 4
     4fa:	09 f0       	breq	.+2      	; 0x4fe <__EEPROM_REGION_LENGTH__+0xfe>
     4fc:	6c c0       	rjmp	.+216    	; 0x5d6 <__EEPROM_REGION_LENGTH__+0x1d6>
     4fe:	0e 94 51 07 	call	0xea2	; 0xea2 <KEYPAD_GetKey>
     502:	9f ec       	ldi	r25, 0xCF	; 207
     504:	98 0f       	add	r25, r24
     506:	93 30       	cpi	r25, 0x03	; 3
     508:	b8 f1       	brcs	.+110    	; 0x578 <__EEPROM_REGION_LENGTH__+0x178>
     50a:	83 34       	cpi	r24, 0x43	; 67
     50c:	09 f4       	brne	.+2      	; 0x510 <__EEPROM_REGION_LENGTH__+0x110>
     50e:	5e c0       	rjmp	.+188    	; 0x5cc <__EEPROM_REGION_LENGTH__+0x1cc>
     510:	60 e0       	ldi	r22, 0x00	; 0
     512:	80 e0       	ldi	r24, 0x00	; 0
     514:	0e 94 bf 08 	call	0x117e	; 0x117e <LCD_GoTo>
     518:	8c ec       	ldi	r24, 0xCC	; 204
     51a:	90 e0       	ldi	r25, 0x00	; 0
     51c:	0e 94 cd 08 	call	0x119a	; 0x119a <LCD_WriteString>
     520:	80 91 45 01 	lds	r24, 0x0145	; 0x800145 <convertFromListKey>
     524:	81 33       	cpi	r24, 0x31	; 49
     526:	11 f4       	brne	.+4      	; 0x52c <__EEPROM_REGION_LENGTH__+0x12c>
     528:	84 e4       	ldi	r24, 0x44	; 68
     52a:	07 c0       	rjmp	.+14     	; 0x53a <__EEPROM_REGION_LENGTH__+0x13a>
     52c:	82 33       	cpi	r24, 0x32	; 50
     52e:	11 f4       	brne	.+4      	; 0x534 <__EEPROM_REGION_LENGTH__+0x134>
     530:	88 e4       	ldi	r24, 0x48	; 72
     532:	03 c0       	rjmp	.+6      	; 0x53a <__EEPROM_REGION_LENGTH__+0x13a>
     534:	83 33       	cpi	r24, 0x33	; 51
     536:	19 f4       	brne	.+6      	; 0x53e <__EEPROM_REGION_LENGTH__+0x13e>
     538:	82 e4       	ldi	r24, 0x42	; 66
     53a:	0e 94 cb 08 	call	0x1196	; 0x1196 <LCD_WriteChar>
     53e:	85 ed       	ldi	r24, 0xD5	; 213
     540:	90 e0       	ldi	r25, 0x00	; 0
     542:	0e 94 cd 08 	call	0x119a	; 0x119a <LCD_WriteString>
     546:	60 e0       	ldi	r22, 0x00	; 0
     548:	81 e0       	ldi	r24, 0x01	; 1
     54a:	0e 94 bf 08 	call	0x117e	; 0x117e <LCD_GoTo>
     54e:	80 ec       	ldi	r24, 0xC0	; 192
     550:	90 e0       	ldi	r25, 0x00	; 0
     552:	0e 94 cd 08 	call	0x119a	; 0x119a <LCD_WriteString>
     556:	66 e0       	ldi	r22, 0x06	; 6
     558:	81 e0       	ldi	r24, 0x01	; 1
     55a:	0e 94 bf 08 	call	0x117e	; 0x117e <LCD_GoTo>
     55e:	84 ec       	ldi	r24, 0xC4	; 196
     560:	90 e0       	ldi	r25, 0x00	; 0
     562:	0e 94 cd 08 	call	0x119a	; 0x119a <LCD_WriteString>
     566:	6c e0       	ldi	r22, 0x0C	; 12
     568:	81 e0       	ldi	r24, 0x01	; 1
     56a:	0e 94 bf 08 	call	0x117e	; 0x117e <LCD_GoTo>
     56e:	88 ec       	ldi	r24, 0xC8	; 200
     570:	90 e0       	ldi	r25, 0x00	; 0
     572:	0e 94 cd 08 	call	0x119a	; 0x119a <LCD_WriteString>
     576:	c3 cf       	rjmp	.-122    	; 0x4fe <__EEPROM_REGION_LENGTH__+0xfe>
     578:	90 91 45 01 	lds	r25, 0x0145	; 0x800145 <convertFromListKey>
     57c:	81 33       	cpi	r24, 0x31	; 49
     57e:	61 f4       	brne	.+24     	; 0x598 <__EEPROM_REGION_LENGTH__+0x198>
     580:	91 33       	cpi	r25, 0x31	; 49
     582:	11 f4       	brne	.+4      	; 0x588 <__EEPROM_REGION_LENGTH__+0x188>
     584:	85 e0       	ldi	r24, 0x05	; 5
     586:	23 c0       	rjmp	.+70     	; 0x5ce <__EEPROM_REGION_LENGTH__+0x1ce>
     588:	92 33       	cpi	r25, 0x32	; 50
     58a:	11 f4       	brne	.+4      	; 0x590 <__EEPROM_REGION_LENGTH__+0x190>
     58c:	88 e0       	ldi	r24, 0x08	; 8
     58e:	1f c0       	rjmp	.+62     	; 0x5ce <__EEPROM_REGION_LENGTH__+0x1ce>
     590:	93 33       	cpi	r25, 0x33	; 51
     592:	f9 f4       	brne	.+62     	; 0x5d2 <__EEPROM_REGION_LENGTH__+0x1d2>
     594:	8b e0       	ldi	r24, 0x0B	; 11
     596:	1b c0       	rjmp	.+54     	; 0x5ce <__EEPROM_REGION_LENGTH__+0x1ce>
     598:	82 33       	cpi	r24, 0x32	; 50
     59a:	61 f4       	brne	.+24     	; 0x5b4 <__EEPROM_REGION_LENGTH__+0x1b4>
     59c:	91 33       	cpi	r25, 0x31	; 49
     59e:	11 f4       	brne	.+4      	; 0x5a4 <__EEPROM_REGION_LENGTH__+0x1a4>
     5a0:	86 e0       	ldi	r24, 0x06	; 6
     5a2:	15 c0       	rjmp	.+42     	; 0x5ce <__EEPROM_REGION_LENGTH__+0x1ce>
     5a4:	92 33       	cpi	r25, 0x32	; 50
     5a6:	11 f4       	brne	.+4      	; 0x5ac <__EEPROM_REGION_LENGTH__+0x1ac>
     5a8:	89 e0       	ldi	r24, 0x09	; 9
     5aa:	11 c0       	rjmp	.+34     	; 0x5ce <__EEPROM_REGION_LENGTH__+0x1ce>
     5ac:	93 33       	cpi	r25, 0x33	; 51
     5ae:	89 f4       	brne	.+34     	; 0x5d2 <__EEPROM_REGION_LENGTH__+0x1d2>
     5b0:	8c e0       	ldi	r24, 0x0C	; 12
     5b2:	0d c0       	rjmp	.+26     	; 0x5ce <__EEPROM_REGION_LENGTH__+0x1ce>
     5b4:	91 33       	cpi	r25, 0x31	; 49
     5b6:	11 f4       	brne	.+4      	; 0x5bc <__EEPROM_REGION_LENGTH__+0x1bc>
     5b8:	87 e0       	ldi	r24, 0x07	; 7
     5ba:	09 c0       	rjmp	.+18     	; 0x5ce <__EEPROM_REGION_LENGTH__+0x1ce>
     5bc:	92 33       	cpi	r25, 0x32	; 50
     5be:	11 f4       	brne	.+4      	; 0x5c4 <__EEPROM_REGION_LENGTH__+0x1c4>
     5c0:	8a e0       	ldi	r24, 0x0A	; 10
     5c2:	05 c0       	rjmp	.+10     	; 0x5ce <__EEPROM_REGION_LENGTH__+0x1ce>
     5c4:	93 33       	cpi	r25, 0x33	; 51
     5c6:	29 f4       	brne	.+10     	; 0x5d2 <__EEPROM_REGION_LENGTH__+0x1d2>
     5c8:	8d e0       	ldi	r24, 0x0D	; 13
     5ca:	01 c0       	rjmp	.+2      	; 0x5ce <__EEPROM_REGION_LENGTH__+0x1ce>
     5cc:	81 e0       	ldi	r24, 0x01	; 1
     5ce:	80 93 46 01 	sts	0x0146, r24	; 0x800146 <levelFlag>
     5d2:	0e 94 b5 08 	call	0x116a	; 0x116a <LCD_Clear>
     5d6:	80 91 46 01 	lds	r24, 0x0146	; 0x800146 <levelFlag>
     5da:	85 30       	cpi	r24, 0x05	; 5
     5dc:	a9 f5       	brne	.+106    	; 0x648 <__EEPROM_REGION_LENGTH__+0x248>
     5de:	60 e0       	ldi	r22, 0x00	; 0
     5e0:	80 e0       	ldi	r24, 0x00	; 0
     5e2:	0e 94 bf 08 	call	0x117e	; 0x117e <LCD_GoTo>
     5e6:	8a ed       	ldi	r24, 0xDA	; 218
     5e8:	90 e0       	ldi	r25, 0x00	; 0
     5ea:	0e 94 cd 08 	call	0x119a	; 0x119a <LCD_WriteString>
     5ee:	60 e0       	ldi	r22, 0x00	; 0
     5f0:	81 e0       	ldi	r24, 0x01	; 1
     5f2:	0e 94 bf 08 	call	0x117e	; 0x117e <LCD_GoTo>
     5f6:	8a ed       	ldi	r24, 0xDA	; 218
     5f8:	90 e0       	ldi	r25, 0x00	; 0
     5fa:	0e 94 cd 08 	call	0x119a	; 0x119a <LCD_WriteString>
     5fe:	0e 94 e6 00 	call	0x1cc	; 0x1cc <Calculator_Converter_scan>
     602:	80 91 32 01 	lds	r24, 0x0132	; 0x800132 <key>
     606:	8d 33       	cpi	r24, 0x3D	; 61
     608:	a1 f4       	brne	.+40     	; 0x632 <__EEPROM_REGION_LENGTH__+0x232>
     60a:	0e 94 49 00 	call	0x92	; 0x92 <Calculator_Converter_IsDecimal>
     60e:	88 23       	and	r24, r24
     610:	49 f0       	breq	.+18     	; 0x624 <__EEPROM_REGION_LENGTH__+0x224>
     612:	64 e0       	ldi	r22, 0x04	; 4
     614:	81 e0       	ldi	r24, 0x01	; 1
     616:	0e 94 bf 08 	call	0x117e	; 0x117e <LCD_GoTo>
     61a:	84 e3       	ldi	r24, 0x34	; 52
     61c:	91 e0       	ldi	r25, 0x01	; 1
     61e:	0e 94 cd 08 	call	0x119a	; 0x119a <LCD_WriteString>
     622:	02 c0       	rjmp	.+4      	; 0x628 <__EEPROM_REGION_LENGTH__+0x228>
     624:	0e 94 ca 00 	call	0x194	; 0x194 <Calculator_Converter_ErrorMessage>
     628:	10 92 33 01 	sts	0x0133, r1	; 0x800133 <converterNumberAsCharactersIndex>
     62c:	10 92 34 01 	sts	0x0134, r1	; 0x800134 <converterNumberAsCharacters>
     630:	0b c0       	rjmp	.+22     	; 0x648 <__EEPROM_REGION_LENGTH__+0x248>
     632:	83 34       	cpi	r24, 0x43	; 67
     634:	49 f4       	brne	.+18     	; 0x648 <__EEPROM_REGION_LENGTH__+0x248>
     636:	10 92 33 01 	sts	0x0133, r1	; 0x800133 <converterNumberAsCharactersIndex>
     63a:	10 92 34 01 	sts	0x0134, r1	; 0x800134 <converterNumberAsCharacters>
     63e:	81 e0       	ldi	r24, 0x01	; 1
     640:	80 93 46 01 	sts	0x0146, r24	; 0x800146 <levelFlag>
     644:	0e 94 b5 08 	call	0x116a	; 0x116a <LCD_Clear>
     648:	80 91 46 01 	lds	r24, 0x0146	; 0x800146 <levelFlag>
     64c:	86 30       	cpi	r24, 0x06	; 6
     64e:	09 f0       	breq	.+2      	; 0x652 <__EEPROM_REGION_LENGTH__+0x252>
     650:	65 c0       	rjmp	.+202    	; 0x71c <__EEPROM_REGION_LENGTH__+0x31c>
     652:	60 e0       	ldi	r22, 0x00	; 0
     654:	80 e0       	ldi	r24, 0x00	; 0
     656:	0e 94 bf 08 	call	0x117e	; 0x117e <LCD_GoTo>
     65a:	8a ed       	ldi	r24, 0xDA	; 218
     65c:	90 e0       	ldi	r25, 0x00	; 0
     65e:	0e 94 cd 08 	call	0x119a	; 0x119a <LCD_WriteString>
     662:	60 e0       	ldi	r22, 0x00	; 0
     664:	81 e0       	ldi	r24, 0x01	; 1
     666:	0e 94 bf 08 	call	0x117e	; 0x117e <LCD_GoTo>
     66a:	8f ed       	ldi	r24, 0xDF	; 223
     66c:	90 e0       	ldi	r25, 0x00	; 0
     66e:	0e 94 cd 08 	call	0x119a	; 0x119a <LCD_WriteString>
     672:	0e 94 e6 00 	call	0x1cc	; 0x1cc <Calculator_Converter_scan>
     676:	80 91 32 01 	lds	r24, 0x0132	; 0x800132 <key>
     67a:	8d 33       	cpi	r24, 0x3D	; 61
     67c:	09 f0       	breq	.+2      	; 0x680 <__EEPROM_REGION_LENGTH__+0x280>
     67e:	43 c0       	rjmp	.+134    	; 0x706 <__EEPROM_REGION_LENGTH__+0x306>
     680:	0e 94 49 00 	call	0x92	; 0x92 <Calculator_Converter_IsDecimal>
     684:	88 23       	and	r24, r24
     686:	c1 f1       	breq	.+112    	; 0x6f8 <__EEPROM_REGION_LENGTH__+0x2f8>
     688:	64 e0       	ldi	r22, 0x04	; 4
     68a:	81 e0       	ldi	r24, 0x01	; 1
     68c:	0e 94 bf 08 	call	0x117e	; 0x117e <LCD_GoTo>
     690:	1a 82       	std	Y+2, r1	; 0x02
     692:	20 e0       	ldi	r18, 0x00	; 0
     694:	30 e0       	ldi	r19, 0x00	; 0
     696:	40 e0       	ldi	r20, 0x00	; 0
     698:	50 e0       	ldi	r21, 0x00	; 0
     69a:	60 e0       	ldi	r22, 0x00	; 0
     69c:	70 e0       	ldi	r23, 0x00	; 0
     69e:	80 e0       	ldi	r24, 0x00	; 0
     6a0:	90 e0       	ldi	r25, 0x00	; 0
     6a2:	aa 81       	ldd	r26, Y+2	; 0x02
     6a4:	ea 2f       	mov	r30, r26
     6a6:	f0 e0       	ldi	r31, 0x00	; 0
     6a8:	ec 5c       	subi	r30, 0xCC	; 204
     6aa:	fe 4f       	sbci	r31, 0xFE	; 254
     6ac:	a0 81       	ld	r26, Z
     6ae:	a9 83       	std	Y+1, r26	; 0x01
     6b0:	aa 23       	and	r26, r26
     6b2:	f1 f0       	breq	.+60     	; 0x6f0 <__EEPROM_REGION_LENGTH__+0x2f0>
     6b4:	fa e0       	ldi	r31, 0x0A	; 10
     6b6:	af 2e       	mov	r10, r31
     6b8:	b1 2c       	mov	r11, r1
     6ba:	c1 2c       	mov	r12, r1
     6bc:	d1 2c       	mov	r13, r1
     6be:	e1 2c       	mov	r14, r1
     6c0:	f1 2c       	mov	r15, r1
     6c2:	00 e0       	ldi	r16, 0x00	; 0
     6c4:	10 e0       	ldi	r17, 0x00	; 0
     6c6:	0e 94 5a 0f 	call	0x1eb4	; 0x1eb4 <__muldi3>
     6ca:	59 01       	movw	r10, r18
     6cc:	6a 01       	movw	r12, r20
     6ce:	7b 01       	movw	r14, r22
     6d0:	8c 01       	movw	r16, r24
     6d2:	29 81       	ldd	r18, Y+1	; 0x01
     6d4:	20 53       	subi	r18, 0x30	; 48
     6d6:	30 e0       	ldi	r19, 0x00	; 0
     6d8:	40 e0       	ldi	r20, 0x00	; 0
     6da:	50 e0       	ldi	r21, 0x00	; 0
     6dc:	60 e0       	ldi	r22, 0x00	; 0
     6de:	70 e0       	ldi	r23, 0x00	; 0
     6e0:	80 e0       	ldi	r24, 0x00	; 0
     6e2:	90 e0       	ldi	r25, 0x00	; 0
     6e4:	0e 94 2b 10 	call	0x2056	; 0x2056 <__adddi3>
     6e8:	aa 81       	ldd	r26, Y+2	; 0x02
     6ea:	af 5f       	subi	r26, 0xFF	; 255
     6ec:	aa 83       	std	Y+2, r26	; 0x02
     6ee:	d9 cf       	rjmp	.-78     	; 0x6a2 <__EEPROM_REGION_LENGTH__+0x2a2>
     6f0:	82 2f       	mov	r24, r18
     6f2:	0e 94 6a 09 	call	0x12d4	; 0x12d4 <LCD_WriteHex>
     6f6:	02 c0       	rjmp	.+4      	; 0x6fc <__EEPROM_REGION_LENGTH__+0x2fc>
     6f8:	0e 94 ca 00 	call	0x194	; 0x194 <Calculator_Converter_ErrorMessage>
     6fc:	10 92 33 01 	sts	0x0133, r1	; 0x800133 <converterNumberAsCharactersIndex>
     700:	10 92 34 01 	sts	0x0134, r1	; 0x800134 <converterNumberAsCharacters>
     704:	0b c0       	rjmp	.+22     	; 0x71c <__EEPROM_REGION_LENGTH__+0x31c>
     706:	83 34       	cpi	r24, 0x43	; 67
     708:	49 f4       	brne	.+18     	; 0x71c <__EEPROM_REGION_LENGTH__+0x31c>
     70a:	10 92 33 01 	sts	0x0133, r1	; 0x800133 <converterNumberAsCharactersIndex>
     70e:	10 92 34 01 	sts	0x0134, r1	; 0x800134 <converterNumberAsCharacters>
     712:	81 e0       	ldi	r24, 0x01	; 1
     714:	80 93 46 01 	sts	0x0146, r24	; 0x800146 <levelFlag>
     718:	0e 94 b5 08 	call	0x116a	; 0x116a <LCD_Clear>
     71c:	80 91 46 01 	lds	r24, 0x0146	; 0x800146 <levelFlag>
     720:	87 30       	cpi	r24, 0x07	; 7
     722:	09 f0       	breq	.+2      	; 0x726 <__EEPROM_REGION_LENGTH__+0x326>
     724:	65 c0       	rjmp	.+202    	; 0x7f0 <__EEPROM_REGION_LENGTH__+0x3f0>
     726:	60 e0       	ldi	r22, 0x00	; 0
     728:	80 e0       	ldi	r24, 0x00	; 0
     72a:	0e 94 bf 08 	call	0x117e	; 0x117e <LCD_GoTo>
     72e:	8a ed       	ldi	r24, 0xDA	; 218
     730:	90 e0       	ldi	r25, 0x00	; 0
     732:	0e 94 cd 08 	call	0x119a	; 0x119a <LCD_WriteString>
     736:	60 e0       	ldi	r22, 0x00	; 0
     738:	81 e0       	ldi	r24, 0x01	; 1
     73a:	0e 94 bf 08 	call	0x117e	; 0x117e <LCD_GoTo>
     73e:	84 ee       	ldi	r24, 0xE4	; 228
     740:	90 e0       	ldi	r25, 0x00	; 0
     742:	0e 94 cd 08 	call	0x119a	; 0x119a <LCD_WriteString>
     746:	0e 94 e6 00 	call	0x1cc	; 0x1cc <Calculator_Converter_scan>
     74a:	80 91 32 01 	lds	r24, 0x0132	; 0x800132 <key>
     74e:	8d 33       	cpi	r24, 0x3D	; 61
     750:	09 f0       	breq	.+2      	; 0x754 <__EEPROM_REGION_LENGTH__+0x354>
     752:	43 c0       	rjmp	.+134    	; 0x7da <__EEPROM_REGION_LENGTH__+0x3da>
     754:	0e 94 49 00 	call	0x92	; 0x92 <Calculator_Converter_IsDecimal>
     758:	88 23       	and	r24, r24
     75a:	c1 f1       	breq	.+112    	; 0x7cc <__EEPROM_REGION_LENGTH__+0x3cc>
     75c:	64 e0       	ldi	r22, 0x04	; 4
     75e:	81 e0       	ldi	r24, 0x01	; 1
     760:	0e 94 bf 08 	call	0x117e	; 0x117e <LCD_GoTo>
     764:	1a 82       	std	Y+2, r1	; 0x02
     766:	20 e0       	ldi	r18, 0x00	; 0
     768:	30 e0       	ldi	r19, 0x00	; 0
     76a:	40 e0       	ldi	r20, 0x00	; 0
     76c:	50 e0       	ldi	r21, 0x00	; 0
     76e:	60 e0       	ldi	r22, 0x00	; 0
     770:	70 e0       	ldi	r23, 0x00	; 0
     772:	80 e0       	ldi	r24, 0x00	; 0
     774:	90 e0       	ldi	r25, 0x00	; 0
     776:	aa 81       	ldd	r26, Y+2	; 0x02
     778:	ea 2f       	mov	r30, r26
     77a:	f0 e0       	ldi	r31, 0x00	; 0
     77c:	ec 5c       	subi	r30, 0xCC	; 204
     77e:	fe 4f       	sbci	r31, 0xFE	; 254
     780:	a0 81       	ld	r26, Z
     782:	a9 83       	std	Y+1, r26	; 0x01
     784:	aa 23       	and	r26, r26
     786:	f1 f0       	breq	.+60     	; 0x7c4 <__EEPROM_REGION_LENGTH__+0x3c4>
     788:	ea e0       	ldi	r30, 0x0A	; 10
     78a:	ae 2e       	mov	r10, r30
     78c:	b1 2c       	mov	r11, r1
     78e:	c1 2c       	mov	r12, r1
     790:	d1 2c       	mov	r13, r1
     792:	e1 2c       	mov	r14, r1
     794:	f1 2c       	mov	r15, r1
     796:	00 e0       	ldi	r16, 0x00	; 0
     798:	10 e0       	ldi	r17, 0x00	; 0
     79a:	0e 94 5a 0f 	call	0x1eb4	; 0x1eb4 <__muldi3>
     79e:	59 01       	movw	r10, r18
     7a0:	6a 01       	movw	r12, r20
     7a2:	7b 01       	movw	r14, r22
     7a4:	8c 01       	movw	r16, r24
     7a6:	29 81       	ldd	r18, Y+1	; 0x01
     7a8:	20 53       	subi	r18, 0x30	; 48
     7aa:	30 e0       	ldi	r19, 0x00	; 0
     7ac:	40 e0       	ldi	r20, 0x00	; 0
     7ae:	50 e0       	ldi	r21, 0x00	; 0
     7b0:	60 e0       	ldi	r22, 0x00	; 0
     7b2:	70 e0       	ldi	r23, 0x00	; 0
     7b4:	80 e0       	ldi	r24, 0x00	; 0
     7b6:	90 e0       	ldi	r25, 0x00	; 0
     7b8:	0e 94 2b 10 	call	0x2056	; 0x2056 <__adddi3>
     7bc:	ea 81       	ldd	r30, Y+2	; 0x02
     7be:	ef 5f       	subi	r30, 0xFF	; 255
     7c0:	ea 83       	std	Y+2, r30	; 0x02
     7c2:	d9 cf       	rjmp	.-78     	; 0x776 <__EEPROM_REGION_LENGTH__+0x376>
     7c4:	82 2f       	mov	r24, r18
     7c6:	0e 94 4a 09 	call	0x1294	; 0x1294 <LCD_WriteBinary>
     7ca:	02 c0       	rjmp	.+4      	; 0x7d0 <__EEPROM_REGION_LENGTH__+0x3d0>
     7cc:	0e 94 ca 00 	call	0x194	; 0x194 <Calculator_Converter_ErrorMessage>
     7d0:	10 92 33 01 	sts	0x0133, r1	; 0x800133 <converterNumberAsCharactersIndex>
     7d4:	10 92 34 01 	sts	0x0134, r1	; 0x800134 <converterNumberAsCharacters>
     7d8:	0b c0       	rjmp	.+22     	; 0x7f0 <__EEPROM_REGION_LENGTH__+0x3f0>
     7da:	83 34       	cpi	r24, 0x43	; 67
     7dc:	49 f4       	brne	.+18     	; 0x7f0 <__EEPROM_REGION_LENGTH__+0x3f0>
     7de:	10 92 33 01 	sts	0x0133, r1	; 0x800133 <converterNumberAsCharactersIndex>
     7e2:	10 92 34 01 	sts	0x0134, r1	; 0x800134 <converterNumberAsCharacters>
     7e6:	81 e0       	ldi	r24, 0x01	; 1
     7e8:	80 93 46 01 	sts	0x0146, r24	; 0x800146 <levelFlag>
     7ec:	0e 94 b5 08 	call	0x116a	; 0x116a <LCD_Clear>
     7f0:	80 91 46 01 	lds	r24, 0x0146	; 0x800146 <levelFlag>
     7f4:	88 30       	cpi	r24, 0x08	; 8
     7f6:	81 f5       	brne	.+96     	; 0x858 <__DATA_REGION_LENGTH__+0x58>
     7f8:	60 e0       	ldi	r22, 0x00	; 0
     7fa:	80 e0       	ldi	r24, 0x00	; 0
     7fc:	0e 94 bf 08 	call	0x117e	; 0x117e <LCD_GoTo>
     800:	8f ed       	ldi	r24, 0xDF	; 223
     802:	90 e0       	ldi	r25, 0x00	; 0
     804:	0e 94 cd 08 	call	0x119a	; 0x119a <LCD_WriteString>
     808:	60 e0       	ldi	r22, 0x00	; 0
     80a:	81 e0       	ldi	r24, 0x01	; 1
     80c:	0e 94 bf 08 	call	0x117e	; 0x117e <LCD_GoTo>
     810:	8a ed       	ldi	r24, 0xDA	; 218
     812:	90 e0       	ldi	r25, 0x00	; 0
     814:	0e 94 cd 08 	call	0x119a	; 0x119a <LCD_WriteString>
     818:	0e 94 18 01 	call	0x230	; 0x230 <Calculator_Converter_scanHex>
     81c:	80 91 32 01 	lds	r24, 0x0132	; 0x800132 <key>
     820:	8d 33       	cpi	r24, 0x3D	; 61
     822:	79 f4       	brne	.+30     	; 0x842 <__DATA_REGION_LENGTH__+0x42>
     824:	64 e0       	ldi	r22, 0x04	; 4
     826:	81 e0       	ldi	r24, 0x01	; 1
     828:	0e 94 bf 08 	call	0x117e	; 0x117e <LCD_GoTo>
     82c:	0e 94 5e 00 	call	0xbc	; 0xbc <Calculator_Converter_HexStingToDec>
     830:	b9 01       	movw	r22, r18
     832:	ca 01       	movw	r24, r20
     834:	0e 94 e0 08 	call	0x11c0	; 0x11c0 <LCD_WriteNumber>
     838:	10 92 33 01 	sts	0x0133, r1	; 0x800133 <converterNumberAsCharactersIndex>
     83c:	10 92 34 01 	sts	0x0134, r1	; 0x800134 <converterNumberAsCharacters>
     840:	0b c0       	rjmp	.+22     	; 0x858 <__DATA_REGION_LENGTH__+0x58>
     842:	83 34       	cpi	r24, 0x43	; 67
     844:	49 f4       	brne	.+18     	; 0x858 <__DATA_REGION_LENGTH__+0x58>
     846:	10 92 33 01 	sts	0x0133, r1	; 0x800133 <converterNumberAsCharactersIndex>
     84a:	10 92 34 01 	sts	0x0134, r1	; 0x800134 <converterNumberAsCharacters>
     84e:	81 e0       	ldi	r24, 0x01	; 1
     850:	80 93 46 01 	sts	0x0146, r24	; 0x800146 <levelFlag>
     854:	0e 94 b5 08 	call	0x116a	; 0x116a <LCD_Clear>
     858:	80 91 46 01 	lds	r24, 0x0146	; 0x800146 <levelFlag>
     85c:	89 30       	cpi	r24, 0x09	; 9
     85e:	71 f5       	brne	.+92     	; 0x8bc <__stack+0x5d>
     860:	60 e0       	ldi	r22, 0x00	; 0
     862:	80 e0       	ldi	r24, 0x00	; 0
     864:	0e 94 bf 08 	call	0x117e	; 0x117e <LCD_GoTo>
     868:	8f ed       	ldi	r24, 0xDF	; 223
     86a:	90 e0       	ldi	r25, 0x00	; 0
     86c:	0e 94 cd 08 	call	0x119a	; 0x119a <LCD_WriteString>
     870:	60 e0       	ldi	r22, 0x00	; 0
     872:	81 e0       	ldi	r24, 0x01	; 1
     874:	0e 94 bf 08 	call	0x117e	; 0x117e <LCD_GoTo>
     878:	8f ed       	ldi	r24, 0xDF	; 223
     87a:	90 e0       	ldi	r25, 0x00	; 0
     87c:	0e 94 cd 08 	call	0x119a	; 0x119a <LCD_WriteString>
     880:	0e 94 18 01 	call	0x230	; 0x230 <Calculator_Converter_scanHex>
     884:	80 91 32 01 	lds	r24, 0x0132	; 0x800132 <key>
     888:	8d 33       	cpi	r24, 0x3D	; 61
     88a:	69 f4       	brne	.+26     	; 0x8a6 <__stack+0x47>
     88c:	64 e0       	ldi	r22, 0x04	; 4
     88e:	81 e0       	ldi	r24, 0x01	; 1
     890:	0e 94 bf 08 	call	0x117e	; 0x117e <LCD_GoTo>
     894:	84 e3       	ldi	r24, 0x34	; 52
     896:	91 e0       	ldi	r25, 0x01	; 1
     898:	0e 94 cd 08 	call	0x119a	; 0x119a <LCD_WriteString>
     89c:	10 92 33 01 	sts	0x0133, r1	; 0x800133 <converterNumberAsCharactersIndex>
     8a0:	10 92 34 01 	sts	0x0134, r1	; 0x800134 <converterNumberAsCharacters>
     8a4:	0b c0       	rjmp	.+22     	; 0x8bc <__stack+0x5d>
     8a6:	83 34       	cpi	r24, 0x43	; 67
     8a8:	49 f4       	brne	.+18     	; 0x8bc <__stack+0x5d>
     8aa:	10 92 33 01 	sts	0x0133, r1	; 0x800133 <converterNumberAsCharactersIndex>
     8ae:	10 92 34 01 	sts	0x0134, r1	; 0x800134 <converterNumberAsCharacters>
     8b2:	81 e0       	ldi	r24, 0x01	; 1
     8b4:	80 93 46 01 	sts	0x0146, r24	; 0x800146 <levelFlag>
     8b8:	0e 94 b5 08 	call	0x116a	; 0x116a <LCD_Clear>
     8bc:	80 91 46 01 	lds	r24, 0x0146	; 0x800146 <levelFlag>
     8c0:	8a 30       	cpi	r24, 0x0A	; 10
     8c2:	79 f5       	brne	.+94     	; 0x922 <__stack+0xc3>
     8c4:	60 e0       	ldi	r22, 0x00	; 0
     8c6:	80 e0       	ldi	r24, 0x00	; 0
     8c8:	0e 94 bf 08 	call	0x117e	; 0x117e <LCD_GoTo>
     8cc:	8f ed       	ldi	r24, 0xDF	; 223
     8ce:	90 e0       	ldi	r25, 0x00	; 0
     8d0:	0e 94 cd 08 	call	0x119a	; 0x119a <LCD_WriteString>
     8d4:	60 e0       	ldi	r22, 0x00	; 0
     8d6:	81 e0       	ldi	r24, 0x01	; 1
     8d8:	0e 94 bf 08 	call	0x117e	; 0x117e <LCD_GoTo>
     8dc:	84 ee       	ldi	r24, 0xE4	; 228
     8de:	90 e0       	ldi	r25, 0x00	; 0
     8e0:	0e 94 cd 08 	call	0x119a	; 0x119a <LCD_WriteString>
     8e4:	0e 94 18 01 	call	0x230	; 0x230 <Calculator_Converter_scanHex>
     8e8:	80 91 32 01 	lds	r24, 0x0132	; 0x800132 <key>
     8ec:	8d 33       	cpi	r24, 0x3D	; 61
     8ee:	71 f4       	brne	.+28     	; 0x90c <__stack+0xad>
     8f0:	64 e0       	ldi	r22, 0x04	; 4
     8f2:	81 e0       	ldi	r24, 0x01	; 1
     8f4:	0e 94 bf 08 	call	0x117e	; 0x117e <LCD_GoTo>
     8f8:	0e 94 5e 00 	call	0xbc	; 0xbc <Calculator_Converter_HexStingToDec>
     8fc:	82 2f       	mov	r24, r18
     8fe:	0e 94 4a 09 	call	0x1294	; 0x1294 <LCD_WriteBinary>
     902:	10 92 33 01 	sts	0x0133, r1	; 0x800133 <converterNumberAsCharactersIndex>
     906:	10 92 34 01 	sts	0x0134, r1	; 0x800134 <converterNumberAsCharacters>
     90a:	0b c0       	rjmp	.+22     	; 0x922 <__stack+0xc3>
     90c:	83 34       	cpi	r24, 0x43	; 67
     90e:	49 f4       	brne	.+18     	; 0x922 <__stack+0xc3>
     910:	10 92 33 01 	sts	0x0133, r1	; 0x800133 <converterNumberAsCharactersIndex>
     914:	10 92 34 01 	sts	0x0134, r1	; 0x800134 <converterNumberAsCharacters>
     918:	81 e0       	ldi	r24, 0x01	; 1
     91a:	80 93 46 01 	sts	0x0146, r24	; 0x800146 <levelFlag>
     91e:	0e 94 b5 08 	call	0x116a	; 0x116a <LCD_Clear>
     922:	80 91 46 01 	lds	r24, 0x0146	; 0x800146 <levelFlag>
     926:	8b 30       	cpi	r24, 0x0B	; 11
     928:	09 f0       	breq	.+2      	; 0x92c <__stack+0xcd>
     92a:	59 c0       	rjmp	.+178    	; 0x9de <__stack+0x17f>
     92c:	60 e0       	ldi	r22, 0x00	; 0
     92e:	80 e0       	ldi	r24, 0x00	; 0
     930:	0e 94 bf 08 	call	0x117e	; 0x117e <LCD_GoTo>
     934:	84 ee       	ldi	r24, 0xE4	; 228
     936:	90 e0       	ldi	r25, 0x00	; 0
     938:	0e 94 cd 08 	call	0x119a	; 0x119a <LCD_WriteString>
     93c:	60 e0       	ldi	r22, 0x00	; 0
     93e:	81 e0       	ldi	r24, 0x01	; 1
     940:	0e 94 bf 08 	call	0x117e	; 0x117e <LCD_GoTo>
     944:	8a ed       	ldi	r24, 0xDA	; 218
     946:	90 e0       	ldi	r25, 0x00	; 0
     948:	0e 94 cd 08 	call	0x119a	; 0x119a <LCD_WriteString>
     94c:	0e 94 e6 00 	call	0x1cc	; 0x1cc <Calculator_Converter_scan>
     950:	80 91 32 01 	lds	r24, 0x0132	; 0x800132 <key>
     954:	8d 33       	cpi	r24, 0x3D	; 61
     956:	c1 f5       	brne	.+112    	; 0x9c8 <__stack+0x169>
     958:	0e 94 ab 00 	call	0x156	; 0x156 <Calculator_Converter_IsBinary>
     95c:	88 23       	and	r24, r24
     95e:	69 f1       	breq	.+90     	; 0x9ba <__stack+0x15b>
     960:	64 e0       	ldi	r22, 0x04	; 4
     962:	81 e0       	ldi	r24, 0x01	; 1
     964:	0e 94 bf 08 	call	0x117e	; 0x117e <LCD_GoTo>
     968:	a0 e0       	ldi	r26, 0x00	; 0
     96a:	20 e0       	ldi	r18, 0x00	; 0
     96c:	30 e0       	ldi	r19, 0x00	; 0
     96e:	40 e0       	ldi	r20, 0x00	; 0
     970:	50 e0       	ldi	r21, 0x00	; 0
     972:	60 e0       	ldi	r22, 0x00	; 0
     974:	70 e0       	ldi	r23, 0x00	; 0
     976:	80 e0       	ldi	r24, 0x00	; 0
     978:	90 e0       	ldi	r25, 0x00	; 0
     97a:	ea 2f       	mov	r30, r26
     97c:	f0 e0       	ldi	r31, 0x00	; 0
     97e:	ec 5c       	subi	r30, 0xCC	; 204
     980:	fe 4f       	sbci	r31, 0xFE	; 254
     982:	e0 81       	ld	r30, Z
     984:	ee 23       	and	r30, r30
     986:	a1 f0       	breq	.+40     	; 0x9b0 <__stack+0x151>
     988:	01 e0       	ldi	r16, 0x01	; 1
     98a:	0e 94 12 10 	call	0x2024	; 0x2024 <__ashldi3>
     98e:	59 01       	movw	r10, r18
     990:	6a 01       	movw	r12, r20
     992:	7b 01       	movw	r14, r22
     994:	8c 01       	movw	r16, r24
     996:	20 ed       	ldi	r18, 0xD0	; 208
     998:	2e 0f       	add	r18, r30
     99a:	30 e0       	ldi	r19, 0x00	; 0
     99c:	40 e0       	ldi	r20, 0x00	; 0
     99e:	50 e0       	ldi	r21, 0x00	; 0
     9a0:	60 e0       	ldi	r22, 0x00	; 0
     9a2:	70 e0       	ldi	r23, 0x00	; 0
     9a4:	80 e0       	ldi	r24, 0x00	; 0
     9a6:	90 e0       	ldi	r25, 0x00	; 0
     9a8:	0e 94 2b 10 	call	0x2056	; 0x2056 <__adddi3>
     9ac:	af 5f       	subi	r26, 0xFF	; 255
     9ae:	e5 cf       	rjmp	.-54     	; 0x97a <__stack+0x11b>
     9b0:	b9 01       	movw	r22, r18
     9b2:	ca 01       	movw	r24, r20
     9b4:	0e 94 e0 08 	call	0x11c0	; 0x11c0 <LCD_WriteNumber>
     9b8:	02 c0       	rjmp	.+4      	; 0x9be <__stack+0x15f>
     9ba:	0e 94 ca 00 	call	0x194	; 0x194 <Calculator_Converter_ErrorMessage>
     9be:	10 92 33 01 	sts	0x0133, r1	; 0x800133 <converterNumberAsCharactersIndex>
     9c2:	10 92 34 01 	sts	0x0134, r1	; 0x800134 <converterNumberAsCharacters>
     9c6:	0b c0       	rjmp	.+22     	; 0x9de <__stack+0x17f>
     9c8:	83 34       	cpi	r24, 0x43	; 67
     9ca:	49 f4       	brne	.+18     	; 0x9de <__stack+0x17f>
     9cc:	10 92 33 01 	sts	0x0133, r1	; 0x800133 <converterNumberAsCharactersIndex>
     9d0:	10 92 34 01 	sts	0x0134, r1	; 0x800134 <converterNumberAsCharacters>
     9d4:	81 e0       	ldi	r24, 0x01	; 1
     9d6:	80 93 46 01 	sts	0x0146, r24	; 0x800146 <levelFlag>
     9da:	0e 94 b5 08 	call	0x116a	; 0x116a <LCD_Clear>
     9de:	80 91 46 01 	lds	r24, 0x0146	; 0x800146 <levelFlag>
     9e2:	8c 30       	cpi	r24, 0x0C	; 12
     9e4:	09 f0       	breq	.+2      	; 0x9e8 <__stack+0x189>
     9e6:	58 c0       	rjmp	.+176    	; 0xa98 <__stack+0x239>
     9e8:	60 e0       	ldi	r22, 0x00	; 0
     9ea:	80 e0       	ldi	r24, 0x00	; 0
     9ec:	0e 94 bf 08 	call	0x117e	; 0x117e <LCD_GoTo>
     9f0:	84 ee       	ldi	r24, 0xE4	; 228
     9f2:	90 e0       	ldi	r25, 0x00	; 0
     9f4:	0e 94 cd 08 	call	0x119a	; 0x119a <LCD_WriteString>
     9f8:	60 e0       	ldi	r22, 0x00	; 0
     9fa:	81 e0       	ldi	r24, 0x01	; 1
     9fc:	0e 94 bf 08 	call	0x117e	; 0x117e <LCD_GoTo>
     a00:	8f ed       	ldi	r24, 0xDF	; 223
     a02:	90 e0       	ldi	r25, 0x00	; 0
     a04:	0e 94 cd 08 	call	0x119a	; 0x119a <LCD_WriteString>
     a08:	0e 94 e6 00 	call	0x1cc	; 0x1cc <Calculator_Converter_scan>
     a0c:	80 91 32 01 	lds	r24, 0x0132	; 0x800132 <key>
     a10:	8d 33       	cpi	r24, 0x3D	; 61
     a12:	b9 f5       	brne	.+110    	; 0xa82 <__stack+0x223>
     a14:	0e 94 ab 00 	call	0x156	; 0x156 <Calculator_Converter_IsBinary>
     a18:	88 23       	and	r24, r24
     a1a:	61 f1       	breq	.+88     	; 0xa74 <__stack+0x215>
     a1c:	64 e0       	ldi	r22, 0x04	; 4
     a1e:	81 e0       	ldi	r24, 0x01	; 1
     a20:	0e 94 bf 08 	call	0x117e	; 0x117e <LCD_GoTo>
     a24:	a0 e0       	ldi	r26, 0x00	; 0
     a26:	20 e0       	ldi	r18, 0x00	; 0
     a28:	30 e0       	ldi	r19, 0x00	; 0
     a2a:	40 e0       	ldi	r20, 0x00	; 0
     a2c:	50 e0       	ldi	r21, 0x00	; 0
     a2e:	60 e0       	ldi	r22, 0x00	; 0
     a30:	70 e0       	ldi	r23, 0x00	; 0
     a32:	80 e0       	ldi	r24, 0x00	; 0
     a34:	90 e0       	ldi	r25, 0x00	; 0
     a36:	ea 2f       	mov	r30, r26
     a38:	f0 e0       	ldi	r31, 0x00	; 0
     a3a:	ec 5c       	subi	r30, 0xCC	; 204
     a3c:	fe 4f       	sbci	r31, 0xFE	; 254
     a3e:	e0 81       	ld	r30, Z
     a40:	ee 23       	and	r30, r30
     a42:	a1 f0       	breq	.+40     	; 0xa6c <__stack+0x20d>
     a44:	01 e0       	ldi	r16, 0x01	; 1
     a46:	0e 94 12 10 	call	0x2024	; 0x2024 <__ashldi3>
     a4a:	59 01       	movw	r10, r18
     a4c:	6a 01       	movw	r12, r20
     a4e:	7b 01       	movw	r14, r22
     a50:	8c 01       	movw	r16, r24
     a52:	20 ed       	ldi	r18, 0xD0	; 208
     a54:	2e 0f       	add	r18, r30
     a56:	30 e0       	ldi	r19, 0x00	; 0
     a58:	40 e0       	ldi	r20, 0x00	; 0
     a5a:	50 e0       	ldi	r21, 0x00	; 0
     a5c:	60 e0       	ldi	r22, 0x00	; 0
     a5e:	70 e0       	ldi	r23, 0x00	; 0
     a60:	80 e0       	ldi	r24, 0x00	; 0
     a62:	90 e0       	ldi	r25, 0x00	; 0
     a64:	0e 94 2b 10 	call	0x2056	; 0x2056 <__adddi3>
     a68:	af 5f       	subi	r26, 0xFF	; 255
     a6a:	e5 cf       	rjmp	.-54     	; 0xa36 <__stack+0x1d7>
     a6c:	82 2f       	mov	r24, r18
     a6e:	0e 94 6a 09 	call	0x12d4	; 0x12d4 <LCD_WriteHex>
     a72:	02 c0       	rjmp	.+4      	; 0xa78 <__stack+0x219>
     a74:	0e 94 ca 00 	call	0x194	; 0x194 <Calculator_Converter_ErrorMessage>
     a78:	10 92 33 01 	sts	0x0133, r1	; 0x800133 <converterNumberAsCharactersIndex>
     a7c:	10 92 34 01 	sts	0x0134, r1	; 0x800134 <converterNumberAsCharacters>
     a80:	0b c0       	rjmp	.+22     	; 0xa98 <__stack+0x239>
     a82:	83 34       	cpi	r24, 0x43	; 67
     a84:	49 f4       	brne	.+18     	; 0xa98 <__stack+0x239>
     a86:	10 92 33 01 	sts	0x0133, r1	; 0x800133 <converterNumberAsCharactersIndex>
     a8a:	10 92 34 01 	sts	0x0134, r1	; 0x800134 <converterNumberAsCharacters>
     a8e:	81 e0       	ldi	r24, 0x01	; 1
     a90:	80 93 46 01 	sts	0x0146, r24	; 0x800146 <levelFlag>
     a94:	0e 94 b5 08 	call	0x116a	; 0x116a <LCD_Clear>
     a98:	80 91 46 01 	lds	r24, 0x0146	; 0x800146 <levelFlag>
     a9c:	8d 30       	cpi	r24, 0x0D	; 13
     a9e:	09 f0       	breq	.+2      	; 0xaa2 <__stack+0x243>
     aa0:	ae c1       	rjmp	.+860    	; 0xdfe <__stack+0x59f>
     aa2:	60 e0       	ldi	r22, 0x00	; 0
     aa4:	80 e0       	ldi	r24, 0x00	; 0
     aa6:	0e 94 bf 08 	call	0x117e	; 0x117e <LCD_GoTo>
     aaa:	84 ee       	ldi	r24, 0xE4	; 228
     aac:	90 e0       	ldi	r25, 0x00	; 0
     aae:	0e 94 cd 08 	call	0x119a	; 0x119a <LCD_WriteString>
     ab2:	60 e0       	ldi	r22, 0x00	; 0
     ab4:	81 e0       	ldi	r24, 0x01	; 1
     ab6:	0e 94 bf 08 	call	0x117e	; 0x117e <LCD_GoTo>
     aba:	84 ee       	ldi	r24, 0xE4	; 228
     abc:	90 e0       	ldi	r25, 0x00	; 0
     abe:	0e 94 cd 08 	call	0x119a	; 0x119a <LCD_WriteString>
     ac2:	0e 94 e6 00 	call	0x1cc	; 0x1cc <Calculator_Converter_scan>
     ac6:	80 91 32 01 	lds	r24, 0x0132	; 0x800132 <key>
     aca:	8d 33       	cpi	r24, 0x3D	; 61
     acc:	a1 f4       	brne	.+40     	; 0xaf6 <__stack+0x297>
     ace:	0e 94 ab 00 	call	0x156	; 0x156 <Calculator_Converter_IsBinary>
     ad2:	88 23       	and	r24, r24
     ad4:	49 f0       	breq	.+18     	; 0xae8 <__stack+0x289>
     ad6:	64 e0       	ldi	r22, 0x04	; 4
     ad8:	81 e0       	ldi	r24, 0x01	; 1
     ada:	0e 94 bf 08 	call	0x117e	; 0x117e <LCD_GoTo>
     ade:	84 e3       	ldi	r24, 0x34	; 52
     ae0:	91 e0       	ldi	r25, 0x01	; 1
     ae2:	0e 94 cd 08 	call	0x119a	; 0x119a <LCD_WriteString>
     ae6:	02 c0       	rjmp	.+4      	; 0xaec <__stack+0x28d>
     ae8:	0e 94 ca 00 	call	0x194	; 0x194 <Calculator_Converter_ErrorMessage>
     aec:	10 92 33 01 	sts	0x0133, r1	; 0x800133 <converterNumberAsCharactersIndex>
     af0:	10 92 34 01 	sts	0x0134, r1	; 0x800134 <converterNumberAsCharacters>
     af4:	84 c1       	rjmp	.+776    	; 0xdfe <__stack+0x59f>
     af6:	83 34       	cpi	r24, 0x43	; 67
     af8:	09 f0       	breq	.+2      	; 0xafc <__stack+0x29d>
     afa:	81 c1       	rjmp	.+770    	; 0xdfe <__stack+0x59f>
     afc:	10 92 33 01 	sts	0x0133, r1	; 0x800133 <converterNumberAsCharactersIndex>
     b00:	10 92 34 01 	sts	0x0134, r1	; 0x800134 <converterNumberAsCharacters>
     b04:	81 e0       	ldi	r24, 0x01	; 1
     b06:	80 93 46 01 	sts	0x0146, r24	; 0x800146 <levelFlag>
     b0a:	65 96       	adiw	r28, 0x15	; 21
     b0c:	0f b6       	in	r0, 0x3f	; 63
     b0e:	f8 94       	cli
     b10:	de bf       	out	0x3e, r29	; 62
     b12:	0f be       	out	0x3f, r0	; 63
     b14:	cd bf       	out	0x3d, r28	; 61
     b16:	df 91       	pop	r29
     b18:	cf 91       	pop	r28
     b1a:	1f 91       	pop	r17
     b1c:	0f 91       	pop	r16
     b1e:	ff 90       	pop	r15
     b20:	ef 90       	pop	r14
     b22:	df 90       	pop	r13
     b24:	cf 90       	pop	r12
     b26:	bf 90       	pop	r11
     b28:	af 90       	pop	r10
     b2a:	9f 90       	pop	r9
     b2c:	8f 90       	pop	r8
     b2e:	7f 90       	pop	r7
     b30:	6f 90       	pop	r6
     b32:	5f 90       	pop	r5
     b34:	4f 90       	pop	r4
     b36:	3f 90       	pop	r3
     b38:	2f 90       	pop	r2
     b3a:	0c 94 b5 08 	jmp	0x116a	; 0x116a <LCD_Clear>
     b3e:	0e 94 49 00 	call	0x92	; 0x92 <Calculator_Converter_IsDecimal>
     b42:	88 23       	and	r24, r24
     b44:	09 f4       	brne	.+2      	; 0xb48 <__stack+0x2e9>
     b46:	0f c1       	rjmp	.+542    	; 0xd66 <__stack+0x507>
     b48:	80 91 34 01 	lds	r24, 0x0134	; 0x800134 <converterNumberAsCharacters>
     b4c:	80 53       	subi	r24, 0x30	; 48
     b4e:	8b 87       	std	Y+11, r24	; 0x0b
     b50:	80 91 1a 01 	lds	r24, 0x011A	; 0x80011a <__data_end>
     b54:	8c 87       	std	Y+12, r24	; 0x0c
     b56:	90 91 1b 01 	lds	r25, 0x011B	; 0x80011b <__data_end+0x1>
     b5a:	9d 87       	std	Y+13, r25	; 0x0d
     b5c:	a0 91 1c 01 	lds	r26, 0x011C	; 0x80011c <__data_end+0x2>
     b60:	ae 87       	std	Y+14, r26	; 0x0e
     b62:	e0 91 1d 01 	lds	r30, 0x011D	; 0x80011d <__data_end+0x3>
     b66:	ef 87       	std	Y+15, r30	; 0x0f
     b68:	80 91 1e 01 	lds	r24, 0x011E	; 0x80011e <__data_end+0x4>
     b6c:	88 8b       	std	Y+16, r24	; 0x10
     b6e:	90 91 1f 01 	lds	r25, 0x011F	; 0x80011f <__data_end+0x5>
     b72:	99 8b       	std	Y+17, r25	; 0x11
     b74:	a0 91 20 01 	lds	r26, 0x0120	; 0x800120 <__data_end+0x6>
     b78:	aa 8b       	std	Y+18, r26	; 0x12
     b7a:	e0 91 21 01 	lds	r30, 0x0121	; 0x800121 <__data_end+0x7>
     b7e:	eb 8b       	std	Y+19, r30	; 0x13
     b80:	80 91 2a 01 	lds	r24, 0x012A	; 0x80012a <number1>
     b84:	8c 8b       	std	Y+20, r24	; 0x14
     b86:	90 91 2b 01 	lds	r25, 0x012B	; 0x80012b <number1+0x1>
     b8a:	9d 8b       	std	Y+21, r25	; 0x15
     b8c:	90 90 2c 01 	lds	r9, 0x012C	; 0x80012c <number1+0x2>
     b90:	80 90 2d 01 	lds	r8, 0x012D	; 0x80012d <number1+0x3>
     b94:	70 90 2e 01 	lds	r7, 0x012E	; 0x80012e <number1+0x4>
     b98:	60 90 2f 01 	lds	r6, 0x012F	; 0x80012f <number1+0x5>
     b9c:	50 90 30 01 	lds	r5, 0x0130	; 0x800130 <number1+0x6>
     ba0:	40 90 31 01 	lds	r4, 0x0131	; 0x800131 <number1+0x7>
     ba4:	a0 91 60 00 	lds	r26, 0x0060	; 0x800060 <__DATA_REGION_ORIGIN__>
     ba8:	af 83       	std	Y+7, r26	; 0x07
     baa:	31 2c       	mov	r3, r1
     bac:	21 2c       	mov	r2, r1
     bae:	19 82       	std	Y+1, r1	; 0x01
     bb0:	1a 82       	std	Y+2, r1	; 0x02
     bb2:	1b 82       	std	Y+3, r1	; 0x03
     bb4:	1c 82       	std	Y+4, r1	; 0x04
     bb6:	1d 82       	std	Y+5, r1	; 0x05
     bb8:	1e 82       	std	Y+6, r1	; 0x06
     bba:	18 86       	std	Y+8, r1	; 0x08
     bbc:	e1 e0       	ldi	r30, 0x01	; 1
     bbe:	ea 87       	std	Y+10, r30	; 0x0a
     bc0:	88 85       	ldd	r24, Y+8	; 0x08
     bc2:	e8 2f       	mov	r30, r24
     bc4:	f0 e0       	ldi	r31, 0x00	; 0
     bc6:	ec 5c       	subi	r30, 0xCC	; 204
     bc8:	fe 4f       	sbci	r31, 0xFE	; 254
     bca:	80 81       	ld	r24, Z
     bcc:	88 23       	and	r24, r24
     bce:	09 f4       	brne	.+2      	; 0xbd2 <__stack+0x373>
     bd0:	5f c0       	rjmp	.+190    	; 0xc90 <__stack+0x431>
     bd2:	98 85       	ldd	r25, Y+8	; 0x08
     bd4:	91 11       	cpse	r25, r1
     bd6:	16 c0       	rjmp	.+44     	; 0xc04 <__stack+0x3a5>
     bd8:	ab 85       	ldd	r26, Y+11	; 0x0b
     bda:	aa 30       	cpi	r26, 0x0A	; 10
     bdc:	48 f4       	brcc	.+18     	; 0xbf0 <__stack+0x391>
     bde:	1c 8a       	std	Y+20, r1	; 0x14
     be0:	1d 8a       	std	Y+21, r1	; 0x15
     be2:	91 2c       	mov	r9, r1
     be4:	81 2c       	mov	r8, r1
     be6:	71 2c       	mov	r7, r1
     be8:	61 2c       	mov	r6, r1
     bea:	51 2c       	mov	r5, r1
     bec:	41 2c       	mov	r4, r1
     bee:	0a c0       	rjmp	.+20     	; 0xc04 <__stack+0x3a5>
     bf0:	ec 85       	ldd	r30, Y+12	; 0x0c
     bf2:	ec 8b       	std	Y+20, r30	; 0x14
     bf4:	9d 85       	ldd	r25, Y+13	; 0x0d
     bf6:	9d 8b       	std	Y+21, r25	; 0x15
     bf8:	9e 84       	ldd	r9, Y+14	; 0x0e
     bfa:	8f 84       	ldd	r8, Y+15	; 0x0f
     bfc:	78 88       	ldd	r7, Y+16	; 0x10
     bfe:	69 88       	ldd	r6, Y+17	; 0x11
     c00:	5a 88       	ldd	r5, Y+18	; 0x12
     c02:	4b 88       	ldd	r4, Y+19	; 0x13
     c04:	a0 ed       	ldi	r26, 0xD0	; 208
     c06:	a8 0f       	add	r26, r24
     c08:	a9 87       	std	Y+9, r26	; 0x09
     c0a:	aa 30       	cpi	r26, 0x0A	; 10
     c0c:	d0 f5       	brcc	.+116    	; 0xc82 <__stack+0x423>
     c0e:	ea 85       	ldd	r30, Y+10	; 0x0a
     c10:	aa e0       	ldi	r26, 0x0A	; 10
     c12:	aa 2e       	mov	r10, r26
     c14:	b1 2c       	mov	r11, r1
     c16:	c1 2c       	mov	r12, r1
     c18:	d1 2c       	mov	r13, r1
     c1a:	e1 2c       	mov	r14, r1
     c1c:	f1 2c       	mov	r15, r1
     c1e:	00 e0       	ldi	r16, 0x00	; 0
     c20:	10 e0       	ldi	r17, 0x00	; 0
     c22:	e1 30       	cpi	r30, 0x01	; 1
     c24:	b1 f4       	brne	.+44     	; 0xc52 <__stack+0x3f3>
     c26:	2c 89       	ldd	r18, Y+20	; 0x14
     c28:	3d 89       	ldd	r19, Y+21	; 0x15
     c2a:	49 2d       	mov	r20, r9
     c2c:	58 2d       	mov	r21, r8
     c2e:	67 2d       	mov	r22, r7
     c30:	76 2d       	mov	r23, r6
     c32:	85 2d       	mov	r24, r5
     c34:	94 2d       	mov	r25, r4
     c36:	0e 94 5a 0f 	call	0x1eb4	; 0x1eb4 <__muldi3>
     c3a:	a9 84       	ldd	r10, Y+9	; 0x09
     c3c:	0e 94 2b 10 	call	0x2056	; 0x2056 <__adddi3>
     c40:	2c 8b       	std	Y+20, r18	; 0x14
     c42:	3d 8b       	std	Y+21, r19	; 0x15
     c44:	94 2e       	mov	r9, r20
     c46:	85 2e       	mov	r8, r21
     c48:	76 2e       	mov	r7, r22
     c4a:	67 2e       	mov	r6, r23
     c4c:	58 2e       	mov	r5, r24
     c4e:	49 2e       	mov	r4, r25
     c50:	1b c0       	rjmp	.+54     	; 0xc88 <__stack+0x429>
     c52:	23 2d       	mov	r18, r3
     c54:	32 2d       	mov	r19, r2
     c56:	49 81       	ldd	r20, Y+1	; 0x01
     c58:	5a 81       	ldd	r21, Y+2	; 0x02
     c5a:	6b 81       	ldd	r22, Y+3	; 0x03
     c5c:	7c 81       	ldd	r23, Y+4	; 0x04
     c5e:	8d 81       	ldd	r24, Y+5	; 0x05
     c60:	9e 81       	ldd	r25, Y+6	; 0x06
     c62:	0e 94 5a 0f 	call	0x1eb4	; 0x1eb4 <__muldi3>
     c66:	a9 84       	ldd	r10, Y+9	; 0x09
     c68:	0e 94 2b 10 	call	0x2056	; 0x2056 <__adddi3>
     c6c:	32 2e       	mov	r3, r18
     c6e:	23 2e       	mov	r2, r19
     c70:	49 83       	std	Y+1, r20	; 0x01
     c72:	5a 83       	std	Y+2, r21	; 0x02
     c74:	6b 83       	std	Y+3, r22	; 0x03
     c76:	7c 83       	std	Y+4, r23	; 0x04
     c78:	8d 83       	std	Y+5, r24	; 0x05
     c7a:	9e 83       	std	Y+6, r25	; 0x06
     c7c:	82 e0       	ldi	r24, 0x02	; 2
     c7e:	8a 87       	std	Y+10, r24	; 0x0a
     c80:	03 c0       	rjmp	.+6      	; 0xc88 <__stack+0x429>
     c82:	8f 83       	std	Y+7, r24	; 0x07
     c84:	92 e0       	ldi	r25, 0x02	; 2
     c86:	9a 87       	std	Y+10, r25	; 0x0a
     c88:	a8 85       	ldd	r26, Y+8	; 0x08
     c8a:	af 5f       	subi	r26, 0xFF	; 255
     c8c:	a8 87       	std	Y+8, r26	; 0x08
     c8e:	98 cf       	rjmp	.-208    	; 0xbc0 <__stack+0x361>
     c90:	9c 89       	ldd	r25, Y+20	; 0x14
     c92:	90 93 2a 01 	sts	0x012A, r25	; 0x80012a <number1>
     c96:	ad 89       	ldd	r26, Y+21	; 0x15
     c98:	a0 93 2b 01 	sts	0x012B, r26	; 0x80012b <number1+0x1>
     c9c:	90 92 2c 01 	sts	0x012C, r9	; 0x80012c <number1+0x2>
     ca0:	80 92 2d 01 	sts	0x012D, r8	; 0x80012d <number1+0x3>
     ca4:	70 92 2e 01 	sts	0x012E, r7	; 0x80012e <number1+0x4>
     ca8:	60 92 2f 01 	sts	0x012F, r6	; 0x80012f <number1+0x5>
     cac:	50 92 30 01 	sts	0x0130, r5	; 0x800130 <number1+0x6>
     cb0:	40 92 31 01 	sts	0x0131, r4	; 0x800131 <number1+0x7>
     cb4:	30 92 22 01 	sts	0x0122, r3	; 0x800122 <number2>
     cb8:	20 92 23 01 	sts	0x0123, r2	; 0x800123 <number2+0x1>
     cbc:	e9 81       	ldd	r30, Y+1	; 0x01
     cbe:	e0 93 24 01 	sts	0x0124, r30	; 0x800124 <number2+0x2>
     cc2:	8a 81       	ldd	r24, Y+2	; 0x02
     cc4:	80 93 25 01 	sts	0x0125, r24	; 0x800125 <number2+0x3>
     cc8:	9b 81       	ldd	r25, Y+3	; 0x03
     cca:	90 93 26 01 	sts	0x0126, r25	; 0x800126 <number2+0x4>
     cce:	ac 81       	ldd	r26, Y+4	; 0x04
     cd0:	a0 93 27 01 	sts	0x0127, r26	; 0x800127 <number2+0x5>
     cd4:	ed 81       	ldd	r30, Y+5	; 0x05
     cd6:	e0 93 28 01 	sts	0x0128, r30	; 0x800128 <number2+0x6>
     cda:	8e 81       	ldd	r24, Y+6	; 0x06
     cdc:	80 93 29 01 	sts	0x0129, r24	; 0x800129 <number2+0x7>
     ce0:	9f 81       	ldd	r25, Y+7	; 0x07
     ce2:	90 93 60 00 	sts	0x0060, r25	; 0x800060 <__DATA_REGION_ORIGIN__>
     ce6:	9f 32       	cpi	r25, 0x2F	; 47
     ce8:	09 f0       	breq	.+2      	; 0xcec <__stack+0x48d>
     cea:	44 c0       	rjmp	.+136    	; 0xd74 <__stack+0x515>
     cec:	23 2d       	mov	r18, r3
     cee:	32 2d       	mov	r19, r2
     cf0:	49 81       	ldd	r20, Y+1	; 0x01
     cf2:	5a 81       	ldd	r21, Y+2	; 0x02
     cf4:	6b 81       	ldd	r22, Y+3	; 0x03
     cf6:	7a 2f       	mov	r23, r26
     cf8:	8e 2f       	mov	r24, r30
     cfa:	9e 81       	ldd	r25, Y+6	; 0x06
     cfc:	a0 e0       	ldi	r26, 0x00	; 0
     cfe:	0e 94 3d 10 	call	0x207a	; 0x207a <__cmpdi2_s8>
     d02:	89 f1       	breq	.+98     	; 0xd66 <__stack+0x507>
     d04:	a3 2c       	mov	r10, r3
     d06:	b2 2c       	mov	r11, r2
     d08:	c9 80       	ldd	r12, Y+1	; 0x01
     d0a:	da 80       	ldd	r13, Y+2	; 0x02
     d0c:	eb 80       	ldd	r14, Y+3	; 0x03
     d0e:	fc 80       	ldd	r15, Y+4	; 0x04
     d10:	0d 81       	ldd	r16, Y+5	; 0x05
     d12:	1e 81       	ldd	r17, Y+6	; 0x06
     d14:	2c 89       	ldd	r18, Y+20	; 0x14
     d16:	3d 89       	ldd	r19, Y+21	; 0x15
     d18:	49 2d       	mov	r20, r9
     d1a:	58 2d       	mov	r21, r8
     d1c:	67 2d       	mov	r22, r7
     d1e:	76 2d       	mov	r23, r6
     d20:	85 2d       	mov	r24, r5
     d22:	94 2d       	mov	r25, r4
     d24:	0e 94 b5 0f 	call	0x1f6a	; 0x1f6a <__udivdi3>
     d28:	20 93 1a 01 	sts	0x011A, r18	; 0x80011a <__data_end>
     d2c:	30 93 1b 01 	sts	0x011B, r19	; 0x80011b <__data_end+0x1>
     d30:	40 93 1c 01 	sts	0x011C, r20	; 0x80011c <__data_end+0x2>
     d34:	50 93 1d 01 	sts	0x011D, r21	; 0x80011d <__data_end+0x3>
     d38:	60 93 1e 01 	sts	0x011E, r22	; 0x80011e <__data_end+0x4>
     d3c:	70 93 1f 01 	sts	0x011F, r23	; 0x80011f <__data_end+0x5>
     d40:	80 93 20 01 	sts	0x0120, r24	; 0x800120 <__data_end+0x6>
     d44:	90 93 21 01 	sts	0x0121, r25	; 0x800121 <__data_end+0x7>
     d48:	60 e0       	ldi	r22, 0x00	; 0
     d4a:	81 e0       	ldi	r24, 0x01	; 1
     d4c:	0e 94 bf 08 	call	0x117e	; 0x117e <LCD_GoTo>
     d50:	60 91 1a 01 	lds	r22, 0x011A	; 0x80011a <__data_end>
     d54:	70 91 1b 01 	lds	r23, 0x011B	; 0x80011b <__data_end+0x1>
     d58:	80 91 1c 01 	lds	r24, 0x011C	; 0x80011c <__data_end+0x2>
     d5c:	90 91 1d 01 	lds	r25, 0x011D	; 0x80011d <__data_end+0x3>
     d60:	0e 94 e0 08 	call	0x11c0	; 0x11c0 <LCD_WriteNumber>
     d64:	02 c0       	rjmp	.+4      	; 0xd6a <__stack+0x50b>
     d66:	0e 94 ca 00 	call	0x194	; 0x194 <Calculator_Converter_ErrorMessage>
     d6a:	10 92 33 01 	sts	0x0133, r1	; 0x800133 <converterNumberAsCharactersIndex>
     d6e:	10 92 34 01 	sts	0x0134, r1	; 0x800134 <converterNumberAsCharacters>
     d72:	85 cb       	rjmp	.-2294   	; 0x47e <__EEPROM_REGION_LENGTH__+0x7e>
     d74:	ef 81       	ldd	r30, Y+7	; 0x07
     d76:	eb 32       	cpi	r30, 0x2B	; 43
     d78:	99 f4       	brne	.+38     	; 0xda0 <__stack+0x541>
     d7a:	2c 89       	ldd	r18, Y+20	; 0x14
     d7c:	3d 89       	ldd	r19, Y+21	; 0x15
     d7e:	49 2d       	mov	r20, r9
     d80:	58 2d       	mov	r21, r8
     d82:	67 2d       	mov	r22, r7
     d84:	76 2d       	mov	r23, r6
     d86:	85 2d       	mov	r24, r5
     d88:	94 2d       	mov	r25, r4
     d8a:	a3 2c       	mov	r10, r3
     d8c:	b2 2c       	mov	r11, r2
     d8e:	c9 80       	ldd	r12, Y+1	; 0x01
     d90:	da 80       	ldd	r13, Y+2	; 0x02
     d92:	eb 80       	ldd	r14, Y+3	; 0x03
     d94:	fc 80       	ldd	r15, Y+4	; 0x04
     d96:	0d 81       	ldd	r16, Y+5	; 0x05
     d98:	1e 81       	ldd	r17, Y+6	; 0x06
     d9a:	0e 94 2b 10 	call	0x2056	; 0x2056 <__adddi3>
     d9e:	c4 cf       	rjmp	.-120    	; 0xd28 <__stack+0x4c9>
     da0:	ed 32       	cpi	r30, 0x2D	; 45
     da2:	99 f4       	brne	.+38     	; 0xdca <__stack+0x56b>
     da4:	2c 89       	ldd	r18, Y+20	; 0x14
     da6:	3d 89       	ldd	r19, Y+21	; 0x15
     da8:	49 2d       	mov	r20, r9
     daa:	58 2d       	mov	r21, r8
     dac:	67 2d       	mov	r22, r7
     dae:	76 2d       	mov	r23, r6
     db0:	85 2d       	mov	r24, r5
     db2:	94 2d       	mov	r25, r4
     db4:	a3 2c       	mov	r10, r3
     db6:	b2 2c       	mov	r11, r2
     db8:	c9 80       	ldd	r12, Y+1	; 0x01
     dba:	da 80       	ldd	r13, Y+2	; 0x02
     dbc:	eb 80       	ldd	r14, Y+3	; 0x03
     dbe:	fc 80       	ldd	r15, Y+4	; 0x04
     dc0:	0d 81       	ldd	r16, Y+5	; 0x05
     dc2:	1e 81       	ldd	r17, Y+6	; 0x06
     dc4:	0e 94 34 10 	call	0x2068	; 0x2068 <__subdi3>
     dc8:	af cf       	rjmp	.-162    	; 0xd28 <__stack+0x4c9>
     dca:	ea 32       	cpi	r30, 0x2A	; 42
     dcc:	09 f0       	breq	.+2      	; 0xdd0 <__stack+0x571>
     dce:	bc cf       	rjmp	.-136    	; 0xd48 <__stack+0x4e9>
     dd0:	a3 2c       	mov	r10, r3
     dd2:	b2 2c       	mov	r11, r2
     dd4:	c9 80       	ldd	r12, Y+1	; 0x01
     dd6:	da 80       	ldd	r13, Y+2	; 0x02
     dd8:	eb 80       	ldd	r14, Y+3	; 0x03
     dda:	fc 80       	ldd	r15, Y+4	; 0x04
     ddc:	0d 81       	ldd	r16, Y+5	; 0x05
     dde:	1e 81       	ldd	r17, Y+6	; 0x06
     de0:	2c 89       	ldd	r18, Y+20	; 0x14
     de2:	3d 89       	ldd	r19, Y+21	; 0x15
     de4:	49 2d       	mov	r20, r9
     de6:	58 2d       	mov	r21, r8
     de8:	67 2d       	mov	r22, r7
     dea:	76 2d       	mov	r23, r6
     dec:	85 2d       	mov	r24, r5
     dee:	94 2d       	mov	r25, r4
     df0:	0e 94 5a 0f 	call	0x1eb4	; 0x1eb4 <__muldi3>
     df4:	99 cf       	rjmp	.-206    	; 0xd28 <__stack+0x4c9>
     df6:	84 e0       	ldi	r24, 0x04	; 4
     df8:	80 93 46 01 	sts	0x0146, r24	; 0x800146 <levelFlag>
     dfc:	79 cb       	rjmp	.-2318   	; 0x4f0 <__EEPROM_REGION_LENGTH__+0xf0>
     dfe:	65 96       	adiw	r28, 0x15	; 21
     e00:	0f b6       	in	r0, 0x3f	; 63
     e02:	f8 94       	cli
     e04:	de bf       	out	0x3e, r29	; 62
     e06:	0f be       	out	0x3f, r0	; 63
     e08:	cd bf       	out	0x3d, r28	; 61
     e0a:	df 91       	pop	r29
     e0c:	cf 91       	pop	r28
     e0e:	1f 91       	pop	r17
     e10:	0f 91       	pop	r16
     e12:	ff 90       	pop	r15
     e14:	ef 90       	pop	r14
     e16:	df 90       	pop	r13
     e18:	cf 90       	pop	r12
     e1a:	bf 90       	pop	r11
     e1c:	af 90       	pop	r10
     e1e:	9f 90       	pop	r9
     e20:	8f 90       	pop	r8
     e22:	7f 90       	pop	r7
     e24:	6f 90       	pop	r6
     e26:	5f 90       	pop	r5
     e28:	4f 90       	pop	r4
     e2a:	3f 90       	pop	r3
     e2c:	2f 90       	pop	r2
     e2e:	08 95       	ret

00000e30 <KEYPAD_IsPressed>:
     e30:	0f 93       	push	r16
     e32:	1f 93       	push	r17
     e34:	cf 93       	push	r28
     e36:	df 93       	push	r29
     e38:	d8 2f       	mov	r29, r24
     e3a:	06 2f       	mov	r16, r22
     e3c:	c4 2f       	mov	r28, r20
     e3e:	12 2f       	mov	r17, r18
     e40:	60 e0       	ldi	r22, 0x00	; 0
     e42:	0e 94 af 0a 	call	0x155e	; 0x155e <DIO_WritePin>
     e46:	80 2f       	mov	r24, r16
     e48:	0e 94 2a 0b 	call	0x1654	; 0x1654 <DIO_ReadPin>
     e4c:	4c 2f       	mov	r20, r28
     e4e:	50 e0       	ldi	r21, 0x00	; 0
     e50:	21 2f       	mov	r18, r17
     e52:	30 e0       	ldi	r19, 0x00	; 0
     e54:	44 0f       	add	r20, r20
     e56:	55 1f       	adc	r21, r21
     e58:	44 0f       	add	r20, r20
     e5a:	55 1f       	adc	r21, r21
     e5c:	81 11       	cpse	r24, r1
     e5e:	13 c0       	rjmp	.+38     	; 0xe86 <KEYPAD_IsPressed+0x56>
     e60:	fa 01       	movw	r30, r20
     e62:	e9 5b       	subi	r30, 0xB9	; 185
     e64:	fe 4f       	sbci	r31, 0xFE	; 254
     e66:	e2 0f       	add	r30, r18
     e68:	f3 1f       	adc	r31, r19
     e6a:	80 81       	ld	r24, Z
     e6c:	81 11       	cpse	r24, r1
     e6e:	11 c0       	rjmp	.+34     	; 0xe92 <KEYPAD_IsPressed+0x62>
     e70:	47 51       	subi	r20, 0x17	; 23
     e72:	5f 4f       	sbci	r21, 0xFF	; 255
     e74:	da 01       	movw	r26, r20
     e76:	a2 0f       	add	r26, r18
     e78:	b3 1f       	adc	r27, r19
     e7a:	8c 91       	ld	r24, X
     e7c:	80 93 57 01 	sts	0x0157, r24	; 0x800157 <key>
     e80:	81 e0       	ldi	r24, 0x01	; 1
     e82:	80 83       	st	Z, r24
     e84:	06 c0       	rjmp	.+12     	; 0xe92 <KEYPAD_IsPressed+0x62>
     e86:	49 5b       	subi	r20, 0xB9	; 185
     e88:	5e 4f       	sbci	r21, 0xFE	; 254
     e8a:	fa 01       	movw	r30, r20
     e8c:	e2 0f       	add	r30, r18
     e8e:	f3 1f       	adc	r31, r19
     e90:	10 82       	st	Z, r1
     e92:	61 e0       	ldi	r22, 0x01	; 1
     e94:	8d 2f       	mov	r24, r29
     e96:	df 91       	pop	r29
     e98:	cf 91       	pop	r28
     e9a:	1f 91       	pop	r17
     e9c:	0f 91       	pop	r16
     e9e:	0c 94 af 0a 	jmp	0x155e	; 0x155e <DIO_WritePin>

00000ea2 <KEYPAD_GetKey>:
     ea2:	61 e0       	ldi	r22, 0x01	; 1
     ea4:	8a e1       	ldi	r24, 0x1A	; 26
     ea6:	0e 94 af 0a 	call	0x155e	; 0x155e <DIO_WritePin>
     eaa:	61 e0       	ldi	r22, 0x01	; 1
     eac:	8b e1       	ldi	r24, 0x1B	; 27
     eae:	0e 94 af 0a 	call	0x155e	; 0x155e <DIO_WritePin>
     eb2:	61 e0       	ldi	r22, 0x01	; 1
     eb4:	8c e1       	ldi	r24, 0x1C	; 28
     eb6:	0e 94 af 0a 	call	0x155e	; 0x155e <DIO_WritePin>
     eba:	61 e0       	ldi	r22, 0x01	; 1
     ebc:	8d e1       	ldi	r24, 0x1D	; 29
     ebe:	0e 94 af 0a 	call	0x155e	; 0x155e <DIO_WritePin>
     ec2:	10 92 57 01 	sts	0x0157, r1	; 0x800157 <key>
     ec6:	20 e0       	ldi	r18, 0x00	; 0
     ec8:	40 e0       	ldi	r20, 0x00	; 0
     eca:	6c e0       	ldi	r22, 0x0C	; 12
     ecc:	8a e1       	ldi	r24, 0x1A	; 26
     ece:	0e 94 18 07 	call	0xe30	; 0xe30 <KEYPAD_IsPressed>
     ed2:	21 e0       	ldi	r18, 0x01	; 1
     ed4:	40 e0       	ldi	r20, 0x00	; 0
     ed6:	6c e0       	ldi	r22, 0x0C	; 12
     ed8:	8b e1       	ldi	r24, 0x1B	; 27
     eda:	0e 94 18 07 	call	0xe30	; 0xe30 <KEYPAD_IsPressed>
     ede:	22 e0       	ldi	r18, 0x02	; 2
     ee0:	40 e0       	ldi	r20, 0x00	; 0
     ee2:	6c e0       	ldi	r22, 0x0C	; 12
     ee4:	8c e1       	ldi	r24, 0x1C	; 28
     ee6:	0e 94 18 07 	call	0xe30	; 0xe30 <KEYPAD_IsPressed>
     eea:	23 e0       	ldi	r18, 0x03	; 3
     eec:	40 e0       	ldi	r20, 0x00	; 0
     eee:	6c e0       	ldi	r22, 0x0C	; 12
     ef0:	8d e1       	ldi	r24, 0x1D	; 29
     ef2:	0e 94 18 07 	call	0xe30	; 0xe30 <KEYPAD_IsPressed>
     ef6:	20 e0       	ldi	r18, 0x00	; 0
     ef8:	41 e0       	ldi	r20, 0x01	; 1
     efa:	6d e0       	ldi	r22, 0x0D	; 13
     efc:	8a e1       	ldi	r24, 0x1A	; 26
     efe:	0e 94 18 07 	call	0xe30	; 0xe30 <KEYPAD_IsPressed>
     f02:	21 e0       	ldi	r18, 0x01	; 1
     f04:	41 e0       	ldi	r20, 0x01	; 1
     f06:	6d e0       	ldi	r22, 0x0D	; 13
     f08:	8b e1       	ldi	r24, 0x1B	; 27
     f0a:	0e 94 18 07 	call	0xe30	; 0xe30 <KEYPAD_IsPressed>
     f0e:	22 e0       	ldi	r18, 0x02	; 2
     f10:	41 e0       	ldi	r20, 0x01	; 1
     f12:	6d e0       	ldi	r22, 0x0D	; 13
     f14:	8c e1       	ldi	r24, 0x1C	; 28
     f16:	0e 94 18 07 	call	0xe30	; 0xe30 <KEYPAD_IsPressed>
     f1a:	23 e0       	ldi	r18, 0x03	; 3
     f1c:	41 e0       	ldi	r20, 0x01	; 1
     f1e:	6d e0       	ldi	r22, 0x0D	; 13
     f20:	8d e1       	ldi	r24, 0x1D	; 29
     f22:	0e 94 18 07 	call	0xe30	; 0xe30 <KEYPAD_IsPressed>
     f26:	20 e0       	ldi	r18, 0x00	; 0
     f28:	42 e0       	ldi	r20, 0x02	; 2
     f2a:	6e e0       	ldi	r22, 0x0E	; 14
     f2c:	8a e1       	ldi	r24, 0x1A	; 26
     f2e:	0e 94 18 07 	call	0xe30	; 0xe30 <KEYPAD_IsPressed>
     f32:	21 e0       	ldi	r18, 0x01	; 1
     f34:	42 e0       	ldi	r20, 0x02	; 2
     f36:	6e e0       	ldi	r22, 0x0E	; 14
     f38:	8b e1       	ldi	r24, 0x1B	; 27
     f3a:	0e 94 18 07 	call	0xe30	; 0xe30 <KEYPAD_IsPressed>
     f3e:	22 e0       	ldi	r18, 0x02	; 2
     f40:	42 e0       	ldi	r20, 0x02	; 2
     f42:	6e e0       	ldi	r22, 0x0E	; 14
     f44:	8c e1       	ldi	r24, 0x1C	; 28
     f46:	0e 94 18 07 	call	0xe30	; 0xe30 <KEYPAD_IsPressed>
     f4a:	23 e0       	ldi	r18, 0x03	; 3
     f4c:	42 e0       	ldi	r20, 0x02	; 2
     f4e:	6e e0       	ldi	r22, 0x0E	; 14
     f50:	8d e1       	ldi	r24, 0x1D	; 29
     f52:	0e 94 18 07 	call	0xe30	; 0xe30 <KEYPAD_IsPressed>
     f56:	20 e0       	ldi	r18, 0x00	; 0
     f58:	43 e0       	ldi	r20, 0x03	; 3
     f5a:	6f e0       	ldi	r22, 0x0F	; 15
     f5c:	8a e1       	ldi	r24, 0x1A	; 26
     f5e:	0e 94 18 07 	call	0xe30	; 0xe30 <KEYPAD_IsPressed>
     f62:	21 e0       	ldi	r18, 0x01	; 1
     f64:	43 e0       	ldi	r20, 0x03	; 3
     f66:	6f e0       	ldi	r22, 0x0F	; 15
     f68:	8b e1       	ldi	r24, 0x1B	; 27
     f6a:	0e 94 18 07 	call	0xe30	; 0xe30 <KEYPAD_IsPressed>
     f6e:	22 e0       	ldi	r18, 0x02	; 2
     f70:	43 e0       	ldi	r20, 0x03	; 3
     f72:	6f e0       	ldi	r22, 0x0F	; 15
     f74:	8c e1       	ldi	r24, 0x1C	; 28
     f76:	0e 94 18 07 	call	0xe30	; 0xe30 <KEYPAD_IsPressed>
     f7a:	23 e0       	ldi	r18, 0x03	; 3
     f7c:	43 e0       	ldi	r20, 0x03	; 3
     f7e:	6f e0       	ldi	r22, 0x0F	; 15
     f80:	8d e1       	ldi	r24, 0x1D	; 29
     f82:	0e 94 18 07 	call	0xe30	; 0xe30 <KEYPAD_IsPressed>
     f86:	80 91 57 01 	lds	r24, 0x0157	; 0x800157 <key>
     f8a:	08 95       	ret

00000f8c <LCD_WriteCommand>:
     f8c:	cf 93       	push	r28
     f8e:	c8 2f       	mov	r28, r24
     f90:	60 e0       	ldi	r22, 0x00	; 0
     f92:	81 e0       	ldi	r24, 0x01	; 1
     f94:	0e 94 af 0a 	call	0x155e	; 0x155e <DIO_WritePin>
     f98:	c4 fb       	bst	r28, 4
     f9a:	66 27       	eor	r22, r22
     f9c:	60 f9       	bld	r22, 0
     f9e:	83 e0       	ldi	r24, 0x03	; 3
     fa0:	0e 94 af 0a 	call	0x155e	; 0x155e <DIO_WritePin>
     fa4:	c5 fb       	bst	r28, 5
     fa6:	66 27       	eor	r22, r22
     fa8:	60 f9       	bld	r22, 0
     faa:	84 e0       	ldi	r24, 0x04	; 4
     fac:	0e 94 af 0a 	call	0x155e	; 0x155e <DIO_WritePin>
     fb0:	c6 fb       	bst	r28, 6
     fb2:	66 27       	eor	r22, r22
     fb4:	60 f9       	bld	r22, 0
     fb6:	85 e0       	ldi	r24, 0x05	; 5
     fb8:	0e 94 af 0a 	call	0x155e	; 0x155e <DIO_WritePin>
     fbc:	6c 2f       	mov	r22, r28
     fbe:	66 1f       	adc	r22, r22
     fc0:	66 27       	eor	r22, r22
     fc2:	66 1f       	adc	r22, r22
     fc4:	86 e0       	ldi	r24, 0x06	; 6
     fc6:	0e 94 af 0a 	call	0x155e	; 0x155e <DIO_WritePin>
     fca:	61 e0       	ldi	r22, 0x01	; 1
     fcc:	82 e0       	ldi	r24, 0x02	; 2
     fce:	0e 94 af 0a 	call	0x155e	; 0x155e <DIO_WritePin>
     fd2:	8f ec       	ldi	r24, 0xCF	; 207
     fd4:	97 e0       	ldi	r25, 0x07	; 7
     fd6:	01 97       	sbiw	r24, 0x01	; 1
     fd8:	f1 f7       	brne	.-4      	; 0xfd6 <LCD_WriteCommand+0x4a>
     fda:	00 c0       	rjmp	.+0      	; 0xfdc <LCD_WriteCommand+0x50>
     fdc:	00 00       	nop
     fde:	60 e0       	ldi	r22, 0x00	; 0
     fe0:	82 e0       	ldi	r24, 0x02	; 2
     fe2:	0e 94 af 0a 	call	0x155e	; 0x155e <DIO_WritePin>
     fe6:	6c 2f       	mov	r22, r28
     fe8:	61 70       	andi	r22, 0x01	; 1
     fea:	83 e0       	ldi	r24, 0x03	; 3
     fec:	0e 94 af 0a 	call	0x155e	; 0x155e <DIO_WritePin>
     ff0:	c1 fb       	bst	r28, 1
     ff2:	66 27       	eor	r22, r22
     ff4:	60 f9       	bld	r22, 0
     ff6:	84 e0       	ldi	r24, 0x04	; 4
     ff8:	0e 94 af 0a 	call	0x155e	; 0x155e <DIO_WritePin>
     ffc:	c2 fb       	bst	r28, 2
     ffe:	66 27       	eor	r22, r22
    1000:	60 f9       	bld	r22, 0
    1002:	85 e0       	ldi	r24, 0x05	; 5
    1004:	0e 94 af 0a 	call	0x155e	; 0x155e <DIO_WritePin>
    1008:	c3 fb       	bst	r28, 3
    100a:	66 27       	eor	r22, r22
    100c:	60 f9       	bld	r22, 0
    100e:	86 e0       	ldi	r24, 0x06	; 6
    1010:	0e 94 af 0a 	call	0x155e	; 0x155e <DIO_WritePin>
    1014:	61 e0       	ldi	r22, 0x01	; 1
    1016:	82 e0       	ldi	r24, 0x02	; 2
    1018:	0e 94 af 0a 	call	0x155e	; 0x155e <DIO_WritePin>
    101c:	8f ec       	ldi	r24, 0xCF	; 207
    101e:	97 e0       	ldi	r25, 0x07	; 7
    1020:	01 97       	sbiw	r24, 0x01	; 1
    1022:	f1 f7       	brne	.-4      	; 0x1020 <LCD_WriteCommand+0x94>
    1024:	00 c0       	rjmp	.+0      	; 0x1026 <LCD_WriteCommand+0x9a>
    1026:	00 00       	nop
    1028:	60 e0       	ldi	r22, 0x00	; 0
    102a:	82 e0       	ldi	r24, 0x02	; 2
    102c:	0e 94 af 0a 	call	0x155e	; 0x155e <DIO_WritePin>
    1030:	8f ec       	ldi	r24, 0xCF	; 207
    1032:	97 e0       	ldi	r25, 0x07	; 7
    1034:	01 97       	sbiw	r24, 0x01	; 1
    1036:	f1 f7       	brne	.-4      	; 0x1034 <LCD_WriteCommand+0xa8>
    1038:	00 c0       	rjmp	.+0      	; 0x103a <LCD_WriteCommand+0xae>
    103a:	00 00       	nop
    103c:	cf 91       	pop	r28
    103e:	08 95       	ret

00001040 <LCD_WriteData>:
    1040:	cf 93       	push	r28
    1042:	c8 2f       	mov	r28, r24
    1044:	61 e0       	ldi	r22, 0x01	; 1
    1046:	81 e0       	ldi	r24, 0x01	; 1
    1048:	0e 94 af 0a 	call	0x155e	; 0x155e <DIO_WritePin>
    104c:	c4 fb       	bst	r28, 4
    104e:	66 27       	eor	r22, r22
    1050:	60 f9       	bld	r22, 0
    1052:	83 e0       	ldi	r24, 0x03	; 3
    1054:	0e 94 af 0a 	call	0x155e	; 0x155e <DIO_WritePin>
    1058:	c5 fb       	bst	r28, 5
    105a:	66 27       	eor	r22, r22
    105c:	60 f9       	bld	r22, 0
    105e:	84 e0       	ldi	r24, 0x04	; 4
    1060:	0e 94 af 0a 	call	0x155e	; 0x155e <DIO_WritePin>
    1064:	c6 fb       	bst	r28, 6
    1066:	66 27       	eor	r22, r22
    1068:	60 f9       	bld	r22, 0
    106a:	85 e0       	ldi	r24, 0x05	; 5
    106c:	0e 94 af 0a 	call	0x155e	; 0x155e <DIO_WritePin>
    1070:	6c 2f       	mov	r22, r28
    1072:	66 1f       	adc	r22, r22
    1074:	66 27       	eor	r22, r22
    1076:	66 1f       	adc	r22, r22
    1078:	86 e0       	ldi	r24, 0x06	; 6
    107a:	0e 94 af 0a 	call	0x155e	; 0x155e <DIO_WritePin>
    107e:	61 e0       	ldi	r22, 0x01	; 1
    1080:	82 e0       	ldi	r24, 0x02	; 2
    1082:	0e 94 af 0a 	call	0x155e	; 0x155e <DIO_WritePin>
    1086:	8f ec       	ldi	r24, 0xCF	; 207
    1088:	97 e0       	ldi	r25, 0x07	; 7
    108a:	01 97       	sbiw	r24, 0x01	; 1
    108c:	f1 f7       	brne	.-4      	; 0x108a <LCD_WriteData+0x4a>
    108e:	00 c0       	rjmp	.+0      	; 0x1090 <LCD_WriteData+0x50>
    1090:	00 00       	nop
    1092:	60 e0       	ldi	r22, 0x00	; 0
    1094:	82 e0       	ldi	r24, 0x02	; 2
    1096:	0e 94 af 0a 	call	0x155e	; 0x155e <DIO_WritePin>
    109a:	6c 2f       	mov	r22, r28
    109c:	61 70       	andi	r22, 0x01	; 1
    109e:	83 e0       	ldi	r24, 0x03	; 3
    10a0:	0e 94 af 0a 	call	0x155e	; 0x155e <DIO_WritePin>
    10a4:	c1 fb       	bst	r28, 1
    10a6:	66 27       	eor	r22, r22
    10a8:	60 f9       	bld	r22, 0
    10aa:	84 e0       	ldi	r24, 0x04	; 4
    10ac:	0e 94 af 0a 	call	0x155e	; 0x155e <DIO_WritePin>
    10b0:	c2 fb       	bst	r28, 2
    10b2:	66 27       	eor	r22, r22
    10b4:	60 f9       	bld	r22, 0
    10b6:	85 e0       	ldi	r24, 0x05	; 5
    10b8:	0e 94 af 0a 	call	0x155e	; 0x155e <DIO_WritePin>
    10bc:	c3 fb       	bst	r28, 3
    10be:	66 27       	eor	r22, r22
    10c0:	60 f9       	bld	r22, 0
    10c2:	86 e0       	ldi	r24, 0x06	; 6
    10c4:	0e 94 af 0a 	call	0x155e	; 0x155e <DIO_WritePin>
    10c8:	61 e0       	ldi	r22, 0x01	; 1
    10ca:	82 e0       	ldi	r24, 0x02	; 2
    10cc:	0e 94 af 0a 	call	0x155e	; 0x155e <DIO_WritePin>
    10d0:	8f ec       	ldi	r24, 0xCF	; 207
    10d2:	97 e0       	ldi	r25, 0x07	; 7
    10d4:	01 97       	sbiw	r24, 0x01	; 1
    10d6:	f1 f7       	brne	.-4      	; 0x10d4 <LCD_WriteData+0x94>
    10d8:	00 c0       	rjmp	.+0      	; 0x10da <LCD_WriteData+0x9a>
    10da:	00 00       	nop
    10dc:	60 e0       	ldi	r22, 0x00	; 0
    10de:	82 e0       	ldi	r24, 0x02	; 2
    10e0:	0e 94 af 0a 	call	0x155e	; 0x155e <DIO_WritePin>
    10e4:	8f ec       	ldi	r24, 0xCF	; 207
    10e6:	97 e0       	ldi	r25, 0x07	; 7
    10e8:	01 97       	sbiw	r24, 0x01	; 1
    10ea:	f1 f7       	brne	.-4      	; 0x10e8 <LCD_WriteData+0xa8>
    10ec:	00 c0       	rjmp	.+0      	; 0x10ee <LCD_WriteData+0xae>
    10ee:	00 00       	nop
    10f0:	cf 91       	pop	r28
    10f2:	08 95       	ret

000010f4 <LCD_Init>:
    10f4:	2f e7       	ldi	r18, 0x7F	; 127
    10f6:	88 e3       	ldi	r24, 0x38	; 56
    10f8:	91 e0       	ldi	r25, 0x01	; 1
    10fa:	21 50       	subi	r18, 0x01	; 1
    10fc:	80 40       	sbci	r24, 0x00	; 0
    10fe:	90 40       	sbci	r25, 0x00	; 0
    1100:	e1 f7       	brne	.-8      	; 0x10fa <LCD_Init+0x6>
    1102:	00 c0       	rjmp	.+0      	; 0x1104 <LCD_Init+0x10>
    1104:	00 00       	nop
    1106:	82 e2       	ldi	r24, 0x22	; 34
    1108:	0e 94 c6 07 	call	0xf8c	; 0xf8c <LCD_WriteCommand>
    110c:	60 e0       	ldi	r22, 0x00	; 0
    110e:	81 e0       	ldi	r24, 0x01	; 1
    1110:	0e 94 af 0a 	call	0x155e	; 0x155e <DIO_WritePin>
    1114:	60 e0       	ldi	r22, 0x00	; 0
    1116:	85 e0       	ldi	r24, 0x05	; 5
    1118:	0e 94 af 0a 	call	0x155e	; 0x155e <DIO_WritePin>
    111c:	61 e0       	ldi	r22, 0x01	; 1
    111e:	86 e0       	ldi	r24, 0x06	; 6
    1120:	0e 94 af 0a 	call	0x155e	; 0x155e <DIO_WritePin>
    1124:	61 e0       	ldi	r22, 0x01	; 1
    1126:	82 e0       	ldi	r24, 0x02	; 2
    1128:	0e 94 af 0a 	call	0x155e	; 0x155e <DIO_WritePin>
    112c:	8f ec       	ldi	r24, 0xCF	; 207
    112e:	97 e0       	ldi	r25, 0x07	; 7
    1130:	01 97       	sbiw	r24, 0x01	; 1
    1132:	f1 f7       	brne	.-4      	; 0x1130 <LCD_Init+0x3c>
    1134:	00 c0       	rjmp	.+0      	; 0x1136 <LCD_Init+0x42>
    1136:	00 00       	nop
    1138:	60 e0       	ldi	r22, 0x00	; 0
    113a:	82 e0       	ldi	r24, 0x02	; 2
    113c:	0e 94 af 0a 	call	0x155e	; 0x155e <DIO_WritePin>
    1140:	8f ec       	ldi	r24, 0xCF	; 207
    1142:	97 e0       	ldi	r25, 0x07	; 7
    1144:	01 97       	sbiw	r24, 0x01	; 1
    1146:	f1 f7       	brne	.-4      	; 0x1144 <LCD_Init+0x50>
    1148:	00 c0       	rjmp	.+0      	; 0x114a <LCD_Init+0x56>
    114a:	00 00       	nop
    114c:	8c e0       	ldi	r24, 0x0C	; 12
    114e:	0e 94 c6 07 	call	0xf8c	; 0xf8c <LCD_WriteCommand>
    1152:	81 e0       	ldi	r24, 0x01	; 1
    1154:	0e 94 c6 07 	call	0xf8c	; 0xf8c <LCD_WriteCommand>
    1158:	8f ec       	ldi	r24, 0xCF	; 207
    115a:	97 e0       	ldi	r25, 0x07	; 7
    115c:	01 97       	sbiw	r24, 0x01	; 1
    115e:	f1 f7       	brne	.-4      	; 0x115c <LCD_Init+0x68>
    1160:	00 c0       	rjmp	.+0      	; 0x1162 <LCD_Init+0x6e>
    1162:	00 00       	nop
    1164:	86 e0       	ldi	r24, 0x06	; 6
    1166:	0c 94 c6 07 	jmp	0xf8c	; 0xf8c <LCD_WriteCommand>

0000116a <LCD_Clear>:
    116a:	81 e0       	ldi	r24, 0x01	; 1
    116c:	0e 94 c6 07 	call	0xf8c	; 0xf8c <LCD_WriteCommand>
    1170:	8f ec       	ldi	r24, 0xCF	; 207
    1172:	97 e0       	ldi	r25, 0x07	; 7
    1174:	01 97       	sbiw	r24, 0x01	; 1
    1176:	f1 f7       	brne	.-4      	; 0x1174 <LCD_Clear+0xa>
    1178:	00 c0       	rjmp	.+0      	; 0x117a <LCD_Clear+0x10>
    117a:	00 00       	nop
    117c:	08 95       	ret

0000117e <LCD_GoTo>:
    117e:	81 11       	cpse	r24, r1
    1180:	02 c0       	rjmp	.+4      	; 0x1186 <LCD_GoTo+0x8>
    1182:	86 2f       	mov	r24, r22
    1184:	04 c0       	rjmp	.+8      	; 0x118e <LCD_GoTo+0x10>
    1186:	81 30       	cpi	r24, 0x01	; 1
    1188:	29 f4       	brne	.+10     	; 0x1194 <LCD_GoTo+0x16>
    118a:	80 e4       	ldi	r24, 0x40	; 64
    118c:	86 0f       	add	r24, r22
    118e:	80 68       	ori	r24, 0x80	; 128
    1190:	0c 94 c6 07 	jmp	0xf8c	; 0xf8c <LCD_WriteCommand>
    1194:	08 95       	ret

00001196 <LCD_WriteChar>:
    1196:	0c 94 20 08 	jmp	0x1040	; 0x1040 <LCD_WriteData>

0000119a <LCD_WriteString>:
    119a:	0f 93       	push	r16
    119c:	1f 93       	push	r17
    119e:	cf 93       	push	r28
    11a0:	8c 01       	movw	r16, r24
    11a2:	c0 e0       	ldi	r28, 0x00	; 0
    11a4:	f8 01       	movw	r30, r16
    11a6:	ec 0f       	add	r30, r28
    11a8:	f1 1d       	adc	r31, r1
    11aa:	80 81       	ld	r24, Z
    11ac:	88 23       	and	r24, r24
    11ae:	21 f0       	breq	.+8      	; 0x11b8 <LCD_WriteString+0x1e>
    11b0:	0e 94 20 08 	call	0x1040	; 0x1040 <LCD_WriteData>
    11b4:	cf 5f       	subi	r28, 0xFF	; 255
    11b6:	f6 cf       	rjmp	.-20     	; 0x11a4 <LCD_WriteString+0xa>
    11b8:	cf 91       	pop	r28
    11ba:	1f 91       	pop	r17
    11bc:	0f 91       	pop	r16
    11be:	08 95       	ret

000011c0 <LCD_WriteNumber>:
    11c0:	8f 92       	push	r8
    11c2:	9f 92       	push	r9
    11c4:	af 92       	push	r10
    11c6:	bf 92       	push	r11
    11c8:	cf 92       	push	r12
    11ca:	df 92       	push	r13
    11cc:	ef 92       	push	r14
    11ce:	ff 92       	push	r15
    11d0:	cf 93       	push	r28
    11d2:	61 15       	cp	r22, r1
    11d4:	71 05       	cpc	r23, r1
    11d6:	81 05       	cpc	r24, r1
    11d8:	91 05       	cpc	r25, r1
    11da:	61 f4       	brne	.+24     	; 0x11f4 <LCD_WriteNumber+0x34>
    11dc:	80 e3       	ldi	r24, 0x30	; 48
    11de:	cf 91       	pop	r28
    11e0:	ff 90       	pop	r15
    11e2:	ef 90       	pop	r14
    11e4:	df 90       	pop	r13
    11e6:	cf 90       	pop	r12
    11e8:	bf 90       	pop	r11
    11ea:	af 90       	pop	r10
    11ec:	9f 90       	pop	r9
    11ee:	8f 90       	pop	r8
    11f0:	0c 94 20 08 	jmp	0x1040	; 0x1040 <LCD_WriteData>
    11f4:	6b 01       	movw	r12, r22
    11f6:	7c 01       	movw	r14, r24
    11f8:	97 ff       	sbrs	r25, 7
    11fa:	0a c0       	rjmp	.+20     	; 0x1210 <LCD_WriteNumber+0x50>
    11fc:	8d e2       	ldi	r24, 0x2D	; 45
    11fe:	0e 94 20 08 	call	0x1040	; 0x1040 <LCD_WriteData>
    1202:	66 27       	eor	r22, r22
    1204:	77 27       	eor	r23, r23
    1206:	cb 01       	movw	r24, r22
    1208:	6c 19       	sub	r22, r12
    120a:	7d 09       	sbc	r23, r13
    120c:	8e 09       	sbc	r24, r14
    120e:	9f 09       	sbc	r25, r15
    1210:	0e 94 07 0e 	call	0x1c0e	; 0x1c0e <__floatsisf>
    1214:	6b 01       	movw	r12, r22
    1216:	7c 01       	movw	r14, r24
    1218:	c0 e0       	ldi	r28, 0x00	; 0
    121a:	20 e0       	ldi	r18, 0x00	; 0
    121c:	30 e0       	ldi	r19, 0x00	; 0
    121e:	40 e8       	ldi	r20, 0x80	; 128
    1220:	5f e3       	ldi	r21, 0x3F	; 63
    1222:	c7 01       	movw	r24, r14
    1224:	b6 01       	movw	r22, r12
    1226:	0e 94 b7 0e 	call	0x1d6e	; 0x1d6e <__gesf2>
    122a:	87 fd       	sbrc	r24, 7
    122c:	0c c0       	rjmp	.+24     	; 0x1246 <LCD_WriteNumber+0x86>
    122e:	20 e0       	ldi	r18, 0x00	; 0
    1230:	30 e0       	ldi	r19, 0x00	; 0
    1232:	40 e2       	ldi	r20, 0x20	; 32
    1234:	51 e4       	ldi	r21, 0x41	; 65
    1236:	c7 01       	movw	r24, r14
    1238:	b6 01       	movw	r22, r12
    123a:	0e 94 64 0d 	call	0x1ac8	; 0x1ac8 <__divsf3>
    123e:	6b 01       	movw	r12, r22
    1240:	7c 01       	movw	r14, r24
    1242:	cf 5f       	subi	r28, 0xFF	; 255
    1244:	ea cf       	rjmp	.-44     	; 0x121a <LCD_WriteNumber+0x5a>
    1246:	8a e0       	ldi	r24, 0x0A	; 10
    1248:	88 2e       	mov	r8, r24
    124a:	91 2c       	mov	r9, r1
    124c:	a1 2c       	mov	r10, r1
    124e:	b1 2c       	mov	r11, r1
    1250:	cc 23       	and	r28, r28
    1252:	b1 f0       	breq	.+44     	; 0x1280 <LCD_WriteNumber+0xc0>
    1254:	20 e0       	ldi	r18, 0x00	; 0
    1256:	30 e0       	ldi	r19, 0x00	; 0
    1258:	40 e2       	ldi	r20, 0x20	; 32
    125a:	51 e4       	ldi	r21, 0x41	; 65
    125c:	c7 01       	movw	r24, r14
    125e:	b6 01       	movw	r22, r12
    1260:	0e 94 bc 0e 	call	0x1d78	; 0x1d78 <__mulsf3>
    1264:	6b 01       	movw	r12, r22
    1266:	7c 01       	movw	r14, r24
    1268:	0e 94 d6 0d 	call	0x1bac	; 0x1bac <__fixunssfsi>
    126c:	a5 01       	movw	r20, r10
    126e:	94 01       	movw	r18, r8
    1270:	0e 94 29 0f 	call	0x1e52	; 0x1e52 <__udivmodsi4>
    1274:	80 e3       	ldi	r24, 0x30	; 48
    1276:	86 0f       	add	r24, r22
    1278:	0e 94 20 08 	call	0x1040	; 0x1040 <LCD_WriteData>
    127c:	c1 50       	subi	r28, 0x01	; 1
    127e:	e8 cf       	rjmp	.-48     	; 0x1250 <LCD_WriteNumber+0x90>
    1280:	cf 91       	pop	r28
    1282:	ff 90       	pop	r15
    1284:	ef 90       	pop	r14
    1286:	df 90       	pop	r13
    1288:	cf 90       	pop	r12
    128a:	bf 90       	pop	r11
    128c:	af 90       	pop	r10
    128e:	9f 90       	pop	r9
    1290:	8f 90       	pop	r8
    1292:	08 95       	ret

00001294 <LCD_WriteBinary>:
    1294:	0f 93       	push	r16
    1296:	1f 93       	push	r17
    1298:	cf 93       	push	r28
    129a:	df 93       	push	r29
    129c:	c7 e0       	ldi	r28, 0x07	; 7
    129e:	d0 e0       	ldi	r29, 0x00	; 0
    12a0:	20 e0       	ldi	r18, 0x00	; 0
    12a2:	08 2f       	mov	r16, r24
    12a4:	10 e0       	ldi	r17, 0x00	; 0
    12a6:	c8 01       	movw	r24, r16
    12a8:	0c 2e       	mov	r0, r28
    12aa:	02 c0       	rjmp	.+4      	; 0x12b0 <LCD_WriteBinary+0x1c>
    12ac:	95 95       	asr	r25
    12ae:	87 95       	ror	r24
    12b0:	0a 94       	dec	r0
    12b2:	e2 f7       	brpl	.-8      	; 0x12ac <LCD_WriteBinary+0x18>
    12b4:	80 fd       	sbrc	r24, 0
    12b6:	02 c0       	rjmp	.+4      	; 0x12bc <LCD_WriteBinary+0x28>
    12b8:	22 23       	and	r18, r18
    12ba:	29 f0       	breq	.+10     	; 0x12c6 <LCD_WriteBinary+0x32>
    12bc:	81 70       	andi	r24, 0x01	; 1
    12be:	80 5d       	subi	r24, 0xD0	; 208
    12c0:	0e 94 20 08 	call	0x1040	; 0x1040 <LCD_WriteData>
    12c4:	21 e0       	ldi	r18, 0x01	; 1
    12c6:	21 97       	sbiw	r28, 0x01	; 1
    12c8:	70 f7       	brcc	.-36     	; 0x12a6 <LCD_WriteBinary+0x12>
    12ca:	df 91       	pop	r29
    12cc:	cf 91       	pop	r28
    12ce:	1f 91       	pop	r17
    12d0:	0f 91       	pop	r16
    12d2:	08 95       	ret

000012d4 <LCD_WriteHex>:
    12d4:	cf 93       	push	r28
    12d6:	df 93       	push	r29
    12d8:	d8 2f       	mov	r29, r24
    12da:	d2 95       	swap	r29
    12dc:	df 70       	andi	r29, 0x0F	; 15
    12de:	c8 2f       	mov	r28, r24
    12e0:	cf 70       	andi	r28, 0x0F	; 15
    12e2:	80 e3       	ldi	r24, 0x30	; 48
    12e4:	0e 94 20 08 	call	0x1040	; 0x1040 <LCD_WriteData>
    12e8:	88 e7       	ldi	r24, 0x78	; 120
    12ea:	0e 94 20 08 	call	0x1040	; 0x1040 <LCD_WriteData>
    12ee:	da 30       	cpi	r29, 0x0A	; 10
    12f0:	10 f4       	brcc	.+4      	; 0x12f6 <LCD_WriteHex+0x22>
    12f2:	80 e3       	ldi	r24, 0x30	; 48
    12f4:	01 c0       	rjmp	.+2      	; 0x12f8 <LCD_WriteHex+0x24>
    12f6:	87 e3       	ldi	r24, 0x37	; 55
    12f8:	8d 0f       	add	r24, r29
    12fa:	0e 94 20 08 	call	0x1040	; 0x1040 <LCD_WriteData>
    12fe:	ca 30       	cpi	r28, 0x0A	; 10
    1300:	10 f4       	brcc	.+4      	; 0x1306 <LCD_WriteHex+0x32>
    1302:	80 e3       	ldi	r24, 0x30	; 48
    1304:	01 c0       	rjmp	.+2      	; 0x1308 <LCD_WriteHex+0x34>
    1306:	87 e3       	ldi	r24, 0x37	; 55
    1308:	8c 0f       	add	r24, r28
    130a:	df 91       	pop	r29
    130c:	cf 91       	pop	r28
    130e:	0c 94 20 08 	jmp	0x1040	; 0x1040 <LCD_WriteData>

00001312 <LCD_GoToClear>:
    1312:	0f 93       	push	r16
    1314:	1f 93       	push	r17
    1316:	cf 93       	push	r28
    1318:	df 93       	push	r29
    131a:	d8 2f       	mov	r29, r24
    131c:	16 2f       	mov	r17, r22
    131e:	04 2f       	mov	r16, r20
    1320:	0e 94 bf 08 	call	0x117e	; 0x117e <LCD_GoTo>
    1324:	c1 e0       	ldi	r28, 0x01	; 1
    1326:	0c 17       	cp	r16, r28
    1328:	28 f0       	brcs	.+10     	; 0x1334 <LCD_GoToClear+0x22>
    132a:	80 e2       	ldi	r24, 0x20	; 32
    132c:	0e 94 20 08 	call	0x1040	; 0x1040 <LCD_WriteData>
    1330:	cf 5f       	subi	r28, 0xFF	; 255
    1332:	f9 cf       	rjmp	.-14     	; 0x1326 <LCD_GoToClear+0x14>
    1334:	61 2f       	mov	r22, r17
    1336:	8d 2f       	mov	r24, r29
    1338:	df 91       	pop	r29
    133a:	cf 91       	pop	r28
    133c:	1f 91       	pop	r17
    133e:	0f 91       	pop	r16
    1340:	0c 94 bf 08 	jmp	0x117e	; 0x117e <LCD_GoTo>

00001344 <main>:
    1344:	0e 94 7d 01 	call	0x2fa	; 0x2fa <Calculator_Converter_Init>
    1348:	0e 94 b2 01 	call	0x364	; 0x364 <Calculator_Converter_Run>
    134c:	fd cf       	rjmp	.-6      	; 0x1348 <main+0x4>

0000134e <__vector_16>:
    134e:	1f 92       	push	r1
    1350:	0f 92       	push	r0
    1352:	0f b6       	in	r0, 0x3f	; 63
    1354:	0f 92       	push	r0
    1356:	11 24       	eor	r1, r1
    1358:	2f 93       	push	r18
    135a:	3f 93       	push	r19
    135c:	4f 93       	push	r20
    135e:	5f 93       	push	r21
    1360:	6f 93       	push	r22
    1362:	7f 93       	push	r23
    1364:	8f 93       	push	r24
    1366:	9f 93       	push	r25
    1368:	af 93       	push	r26
    136a:	bf 93       	push	r27
    136c:	ef 93       	push	r30
    136e:	ff 93       	push	r31
    1370:	e0 91 58 01 	lds	r30, 0x0158	; 0x800158 <funcptr>
    1374:	f0 91 59 01 	lds	r31, 0x0159	; 0x800159 <funcptr+0x1>
    1378:	30 97       	sbiw	r30, 0x00	; 0
    137a:	09 f0       	breq	.+2      	; 0x137e <__vector_16+0x30>
    137c:	09 95       	icall
    137e:	ff 91       	pop	r31
    1380:	ef 91       	pop	r30
    1382:	bf 91       	pop	r27
    1384:	af 91       	pop	r26
    1386:	9f 91       	pop	r25
    1388:	8f 91       	pop	r24
    138a:	7f 91       	pop	r23
    138c:	6f 91       	pop	r22
    138e:	5f 91       	pop	r21
    1390:	4f 91       	pop	r20
    1392:	3f 91       	pop	r19
    1394:	2f 91       	pop	r18
    1396:	0f 90       	pop	r0
    1398:	0f be       	out	0x3f, r0	; 63
    139a:	0f 90       	pop	r0
    139c:	1f 90       	pop	r1
    139e:	18 95       	reti

000013a0 <DIO_Init>:
    13a0:	cf 93       	push	r28
    13a2:	df 93       	push	r29
    13a4:	e9 ef       	ldi	r30, 0xF9	; 249
    13a6:	f0 e0       	ldi	r31, 0x00	; 0
    13a8:	20 ef       	ldi	r18, 0xF0	; 240
    13aa:	a8 ee       	ldi	r26, 0xE8	; 232
    13ac:	38 ef       	ldi	r19, 0xF8	; 248
    13ae:	40 e0       	ldi	r20, 0x00	; 0
    13b0:	50 e0       	ldi	r21, 0x00	; 0
    13b2:	81 e0       	ldi	r24, 0x01	; 1
    13b4:	90 e0       	ldi	r25, 0x00	; 0
    13b6:	71 91       	ld	r23, Z+
    13b8:	71 11       	cpse	r23, r1
    13ba:	3c c0       	rjmp	.+120    	; 0x1434 <DIO_Init+0x94>
    13bc:	48 30       	cpi	r20, 0x08	; 8
    13be:	78 f4       	brcc	.+30     	; 0x13de <DIO_Init+0x3e>
    13c0:	ba b3       	in	r27, 0x1a	; 26
    13c2:	ec 01       	movw	r28, r24
    13c4:	04 2e       	mov	r0, r20
    13c6:	02 c0       	rjmp	.+4      	; 0x13cc <DIO_Init+0x2c>
    13c8:	cc 0f       	add	r28, r28
    13ca:	dd 1f       	adc	r29, r29
    13cc:	0a 94       	dec	r0
    13ce:	e2 f7       	brpl	.-8      	; 0x13c8 <DIO_Init+0x28>
    13d0:	be 01       	movw	r22, r28
    13d2:	7b 2f       	mov	r23, r27
    13d4:	76 2b       	or	r23, r22
    13d6:	7a bb       	out	0x1a, r23	; 26
    13d8:	7b b3       	in	r23, 0x1b	; 27
    13da:	60 95       	com	r22
    13dc:	3e c0       	rjmp	.+124    	; 0x145a <DIO_Init+0xba>
    13de:	38 30       	cpi	r19, 0x08	; 8
    13e0:	68 f4       	brcc	.+26     	; 0x13fc <DIO_Init+0x5c>
    13e2:	b7 b3       	in	r27, 0x17	; 23
    13e4:	bc 01       	movw	r22, r24
    13e6:	03 2e       	mov	r0, r19
    13e8:	01 c0       	rjmp	.+2      	; 0x13ec <DIO_Init+0x4c>
    13ea:	66 0f       	add	r22, r22
    13ec:	0a 94       	dec	r0
    13ee:	ea f7       	brpl	.-6      	; 0x13ea <DIO_Init+0x4a>
    13f0:	7b 2f       	mov	r23, r27
    13f2:	76 2b       	or	r23, r22
    13f4:	77 bb       	out	0x17, r23	; 23
    13f6:	78 b3       	in	r23, 0x18	; 24
    13f8:	60 95       	com	r22
    13fa:	3f c0       	rjmp	.+126    	; 0x147a <DIO_Init+0xda>
    13fc:	28 30       	cpi	r18, 0x08	; 8
    13fe:	68 f4       	brcc	.+26     	; 0x141a <DIO_Init+0x7a>
    1400:	b4 b3       	in	r27, 0x14	; 20
    1402:	bc 01       	movw	r22, r24
    1404:	02 2e       	mov	r0, r18
    1406:	01 c0       	rjmp	.+2      	; 0x140a <DIO_Init+0x6a>
    1408:	66 0f       	add	r22, r22
    140a:	0a 94       	dec	r0
    140c:	ea f7       	brpl	.-6      	; 0x1408 <DIO_Init+0x68>
    140e:	7b 2f       	mov	r23, r27
    1410:	76 2b       	or	r23, r22
    1412:	74 bb       	out	0x14, r23	; 20
    1414:	75 b3       	in	r23, 0x15	; 21
    1416:	60 95       	com	r22
    1418:	40 c0       	rjmp	.+128    	; 0x149a <DIO_Init+0xfa>
    141a:	b1 b3       	in	r27, 0x11	; 17
    141c:	bc 01       	movw	r22, r24
    141e:	0a 2e       	mov	r0, r26
    1420:	01 c0       	rjmp	.+2      	; 0x1424 <DIO_Init+0x84>
    1422:	66 0f       	add	r22, r22
    1424:	0a 94       	dec	r0
    1426:	ea f7       	brpl	.-6      	; 0x1422 <DIO_Init+0x82>
    1428:	7b 2f       	mov	r23, r27
    142a:	76 2b       	or	r23, r22
    142c:	71 bb       	out	0x11, r23	; 17
    142e:	72 b3       	in	r23, 0x12	; 18
    1430:	60 95       	com	r22
    1432:	41 c0       	rjmp	.+130    	; 0x14b6 <DIO_Init+0x116>
    1434:	71 30       	cpi	r23, 0x01	; 1
    1436:	09 f0       	breq	.+2      	; 0x143a <DIO_Init+0x9a>
    1438:	40 c0       	rjmp	.+128    	; 0x14ba <DIO_Init+0x11a>
    143a:	48 30       	cpi	r20, 0x08	; 8
    143c:	80 f4       	brcc	.+32     	; 0x145e <DIO_Init+0xbe>
    143e:	ba b3       	in	r27, 0x1a	; 26
    1440:	ec 01       	movw	r28, r24
    1442:	04 2e       	mov	r0, r20
    1444:	02 c0       	rjmp	.+4      	; 0x144a <DIO_Init+0xaa>
    1446:	cc 0f       	add	r28, r28
    1448:	dd 1f       	adc	r29, r29
    144a:	0a 94       	dec	r0
    144c:	e2 f7       	brpl	.-8      	; 0x1446 <DIO_Init+0xa6>
    144e:	be 01       	movw	r22, r28
    1450:	60 95       	com	r22
    1452:	7b 2f       	mov	r23, r27
    1454:	76 23       	and	r23, r22
    1456:	7a bb       	out	0x1a, r23	; 26
    1458:	7b b3       	in	r23, 0x1b	; 27
    145a:	67 23       	and	r22, r23
    145c:	42 c0       	rjmp	.+132    	; 0x14e2 <DIO_Init+0x142>
    145e:	38 30       	cpi	r19, 0x08	; 8
    1460:	70 f4       	brcc	.+28     	; 0x147e <DIO_Init+0xde>
    1462:	b7 b3       	in	r27, 0x17	; 23
    1464:	bc 01       	movw	r22, r24
    1466:	03 2e       	mov	r0, r19
    1468:	01 c0       	rjmp	.+2      	; 0x146c <DIO_Init+0xcc>
    146a:	66 0f       	add	r22, r22
    146c:	0a 94       	dec	r0
    146e:	ea f7       	brpl	.-6      	; 0x146a <DIO_Init+0xca>
    1470:	60 95       	com	r22
    1472:	7b 2f       	mov	r23, r27
    1474:	76 23       	and	r23, r22
    1476:	77 bb       	out	0x17, r23	; 23
    1478:	78 b3       	in	r23, 0x18	; 24
    147a:	67 23       	and	r22, r23
    147c:	43 c0       	rjmp	.+134    	; 0x1504 <DIO_Init+0x164>
    147e:	28 30       	cpi	r18, 0x08	; 8
    1480:	70 f4       	brcc	.+28     	; 0x149e <DIO_Init+0xfe>
    1482:	b4 b3       	in	r27, 0x14	; 20
    1484:	bc 01       	movw	r22, r24
    1486:	02 2e       	mov	r0, r18
    1488:	01 c0       	rjmp	.+2      	; 0x148c <DIO_Init+0xec>
    148a:	66 0f       	add	r22, r22
    148c:	0a 94       	dec	r0
    148e:	ea f7       	brpl	.-6      	; 0x148a <DIO_Init+0xea>
    1490:	60 95       	com	r22
    1492:	7b 2f       	mov	r23, r27
    1494:	76 23       	and	r23, r22
    1496:	74 bb       	out	0x14, r23	; 20
    1498:	75 b3       	in	r23, 0x15	; 21
    149a:	67 23       	and	r22, r23
    149c:	44 c0       	rjmp	.+136    	; 0x1526 <DIO_Init+0x186>
    149e:	b1 b3       	in	r27, 0x11	; 17
    14a0:	bc 01       	movw	r22, r24
    14a2:	0a 2e       	mov	r0, r26
    14a4:	01 c0       	rjmp	.+2      	; 0x14a8 <DIO_Init+0x108>
    14a6:	66 0f       	add	r22, r22
    14a8:	0a 94       	dec	r0
    14aa:	ea f7       	brpl	.-6      	; 0x14a6 <DIO_Init+0x106>
    14ac:	60 95       	com	r22
    14ae:	7b 2f       	mov	r23, r27
    14b0:	76 23       	and	r23, r22
    14b2:	71 bb       	out	0x11, r23	; 17
    14b4:	72 b3       	in	r23, 0x12	; 18
    14b6:	67 23       	and	r22, r23
    14b8:	45 c0       	rjmp	.+138    	; 0x1544 <DIO_Init+0x1a4>
    14ba:	72 30       	cpi	r23, 0x02	; 2
    14bc:	09 f0       	breq	.+2      	; 0x14c0 <DIO_Init+0x120>
    14be:	43 c0       	rjmp	.+134    	; 0x1546 <DIO_Init+0x1a6>
    14c0:	48 30       	cpi	r20, 0x08	; 8
    14c2:	88 f4       	brcc	.+34     	; 0x14e6 <DIO_Init+0x146>
    14c4:	ba b3       	in	r27, 0x1a	; 26
    14c6:	ec 01       	movw	r28, r24
    14c8:	04 2e       	mov	r0, r20
    14ca:	02 c0       	rjmp	.+4      	; 0x14d0 <DIO_Init+0x130>
    14cc:	cc 0f       	add	r28, r28
    14ce:	dd 1f       	adc	r29, r29
    14d0:	0a 94       	dec	r0
    14d2:	e2 f7       	brpl	.-8      	; 0x14cc <DIO_Init+0x12c>
    14d4:	be 01       	movw	r22, r28
    14d6:	7c 2f       	mov	r23, r28
    14d8:	70 95       	com	r23
    14da:	7b 23       	and	r23, r27
    14dc:	7a bb       	out	0x1a, r23	; 26
    14de:	7b b3       	in	r23, 0x1b	; 27
    14e0:	67 2b       	or	r22, r23
    14e2:	6b bb       	out	0x1b, r22	; 27
    14e4:	30 c0       	rjmp	.+96     	; 0x1546 <DIO_Init+0x1a6>
    14e6:	38 30       	cpi	r19, 0x08	; 8
    14e8:	78 f4       	brcc	.+30     	; 0x1508 <DIO_Init+0x168>
    14ea:	b7 b3       	in	r27, 0x17	; 23
    14ec:	bc 01       	movw	r22, r24
    14ee:	03 2e       	mov	r0, r19
    14f0:	01 c0       	rjmp	.+2      	; 0x14f4 <DIO_Init+0x154>
    14f2:	66 0f       	add	r22, r22
    14f4:	0a 94       	dec	r0
    14f6:	ea f7       	brpl	.-6      	; 0x14f2 <DIO_Init+0x152>
    14f8:	76 2f       	mov	r23, r22
    14fa:	70 95       	com	r23
    14fc:	7b 23       	and	r23, r27
    14fe:	77 bb       	out	0x17, r23	; 23
    1500:	78 b3       	in	r23, 0x18	; 24
    1502:	67 2b       	or	r22, r23
    1504:	68 bb       	out	0x18, r22	; 24
    1506:	1f c0       	rjmp	.+62     	; 0x1546 <DIO_Init+0x1a6>
    1508:	28 30       	cpi	r18, 0x08	; 8
    150a:	78 f4       	brcc	.+30     	; 0x152a <DIO_Init+0x18a>
    150c:	b4 b3       	in	r27, 0x14	; 20
    150e:	bc 01       	movw	r22, r24
    1510:	02 2e       	mov	r0, r18
    1512:	01 c0       	rjmp	.+2      	; 0x1516 <DIO_Init+0x176>
    1514:	66 0f       	add	r22, r22
    1516:	0a 94       	dec	r0
    1518:	ea f7       	brpl	.-6      	; 0x1514 <DIO_Init+0x174>
    151a:	76 2f       	mov	r23, r22
    151c:	70 95       	com	r23
    151e:	7b 23       	and	r23, r27
    1520:	74 bb       	out	0x14, r23	; 20
    1522:	75 b3       	in	r23, 0x15	; 21
    1524:	67 2b       	or	r22, r23
    1526:	65 bb       	out	0x15, r22	; 21
    1528:	0e c0       	rjmp	.+28     	; 0x1546 <DIO_Init+0x1a6>
    152a:	b1 b3       	in	r27, 0x11	; 17
    152c:	bc 01       	movw	r22, r24
    152e:	0a 2e       	mov	r0, r26
    1530:	01 c0       	rjmp	.+2      	; 0x1534 <DIO_Init+0x194>
    1532:	66 0f       	add	r22, r22
    1534:	0a 94       	dec	r0
    1536:	ea f7       	brpl	.-6      	; 0x1532 <DIO_Init+0x192>
    1538:	76 2f       	mov	r23, r22
    153a:	70 95       	com	r23
    153c:	7b 23       	and	r23, r27
    153e:	71 bb       	out	0x11, r23	; 17
    1540:	72 b3       	in	r23, 0x12	; 18
    1542:	67 2b       	or	r22, r23
    1544:	62 bb       	out	0x12, r22	; 18
    1546:	4f 5f       	subi	r20, 0xFF	; 255
    1548:	5f 4f       	sbci	r21, 0xFF	; 255
    154a:	3f 5f       	subi	r19, 0xFF	; 255
    154c:	af 5f       	subi	r26, 0xFF	; 255
    154e:	2f 5f       	subi	r18, 0xFF	; 255
    1550:	40 32       	cpi	r20, 0x20	; 32
    1552:	51 05       	cpc	r21, r1
    1554:	09 f0       	breq	.+2      	; 0x1558 <DIO_Init+0x1b8>
    1556:	2f cf       	rjmp	.-418    	; 0x13b6 <DIO_Init+0x16>
    1558:	df 91       	pop	r29
    155a:	cf 91       	pop	r28
    155c:	08 95       	ret

0000155e <DIO_WritePin>:
    155e:	61 11       	cpse	r22, r1
    1560:	3c c0       	rjmp	.+120    	; 0x15da <DIO_WritePin+0x7c>
    1562:	88 30       	cpi	r24, 0x08	; 8
    1564:	68 f4       	brcc	.+26     	; 0x1580 <DIO_WritePin+0x22>
    1566:	4b b3       	in	r20, 0x1b	; 27
    1568:	21 e0       	ldi	r18, 0x01	; 1
    156a:	30 e0       	ldi	r19, 0x00	; 0
    156c:	b9 01       	movw	r22, r18
    156e:	02 c0       	rjmp	.+4      	; 0x1574 <DIO_WritePin+0x16>
    1570:	66 0f       	add	r22, r22
    1572:	77 1f       	adc	r23, r23
    1574:	8a 95       	dec	r24
    1576:	e2 f7       	brpl	.-8      	; 0x1570 <DIO_WritePin+0x12>
    1578:	cb 01       	movw	r24, r22
    157a:	80 95       	com	r24
    157c:	84 23       	and	r24, r20
    157e:	3c c0       	rjmp	.+120    	; 0x15f8 <DIO_WritePin+0x9a>
    1580:	38 ef       	ldi	r19, 0xF8	; 248
    1582:	38 0f       	add	r19, r24
    1584:	38 30       	cpi	r19, 0x08	; 8
    1586:	50 f4       	brcc	.+20     	; 0x159c <DIO_WritePin+0x3e>
    1588:	28 b3       	in	r18, 0x18	; 24
    158a:	81 e0       	ldi	r24, 0x01	; 1
    158c:	90 e0       	ldi	r25, 0x00	; 0
    158e:	01 c0       	rjmp	.+2      	; 0x1592 <DIO_WritePin+0x34>
    1590:	88 0f       	add	r24, r24
    1592:	3a 95       	dec	r19
    1594:	ea f7       	brpl	.-6      	; 0x1590 <DIO_WritePin+0x32>
    1596:	80 95       	com	r24
    1598:	82 23       	and	r24, r18
    159a:	3c c0       	rjmp	.+120    	; 0x1614 <DIO_WritePin+0xb6>
    159c:	30 ef       	ldi	r19, 0xF0	; 240
    159e:	38 0f       	add	r19, r24
    15a0:	38 30       	cpi	r19, 0x08	; 8
    15a2:	50 f4       	brcc	.+20     	; 0x15b8 <DIO_WritePin+0x5a>
    15a4:	25 b3       	in	r18, 0x15	; 21
    15a6:	81 e0       	ldi	r24, 0x01	; 1
    15a8:	90 e0       	ldi	r25, 0x00	; 0
    15aa:	01 c0       	rjmp	.+2      	; 0x15ae <DIO_WritePin+0x50>
    15ac:	88 0f       	add	r24, r24
    15ae:	3a 95       	dec	r19
    15b0:	ea f7       	brpl	.-6      	; 0x15ac <DIO_WritePin+0x4e>
    15b2:	80 95       	com	r24
    15b4:	82 23       	and	r24, r18
    15b6:	3c c0       	rjmp	.+120    	; 0x1630 <DIO_WritePin+0xd2>
    15b8:	88 51       	subi	r24, 0x18	; 24
    15ba:	88 30       	cpi	r24, 0x08	; 8
    15bc:	08 f0       	brcs	.+2      	; 0x15c0 <DIO_WritePin+0x62>
    15be:	49 c0       	rjmp	.+146    	; 0x1652 <DIO_WritePin+0xf4>
    15c0:	42 b3       	in	r20, 0x12	; 18
    15c2:	21 e0       	ldi	r18, 0x01	; 1
    15c4:	30 e0       	ldi	r19, 0x00	; 0
    15c6:	b9 01       	movw	r22, r18
    15c8:	02 c0       	rjmp	.+4      	; 0x15ce <DIO_WritePin+0x70>
    15ca:	66 0f       	add	r22, r22
    15cc:	77 1f       	adc	r23, r23
    15ce:	8a 95       	dec	r24
    15d0:	e2 f7       	brpl	.-8      	; 0x15ca <DIO_WritePin+0x6c>
    15d2:	cb 01       	movw	r24, r22
    15d4:	80 95       	com	r24
    15d6:	84 23       	and	r24, r20
    15d8:	3b c0       	rjmp	.+118    	; 0x1650 <DIO_WritePin+0xf2>
    15da:	61 30       	cpi	r22, 0x01	; 1
    15dc:	d1 f5       	brne	.+116    	; 0x1652 <DIO_WritePin+0xf4>
    15de:	88 30       	cpi	r24, 0x08	; 8
    15e0:	68 f4       	brcc	.+26     	; 0x15fc <DIO_WritePin+0x9e>
    15e2:	4b b3       	in	r20, 0x1b	; 27
    15e4:	21 e0       	ldi	r18, 0x01	; 1
    15e6:	30 e0       	ldi	r19, 0x00	; 0
    15e8:	b9 01       	movw	r22, r18
    15ea:	02 c0       	rjmp	.+4      	; 0x15f0 <DIO_WritePin+0x92>
    15ec:	66 0f       	add	r22, r22
    15ee:	77 1f       	adc	r23, r23
    15f0:	8a 95       	dec	r24
    15f2:	e2 f7       	brpl	.-8      	; 0x15ec <DIO_WritePin+0x8e>
    15f4:	cb 01       	movw	r24, r22
    15f6:	84 2b       	or	r24, r20
    15f8:	8b bb       	out	0x1b, r24	; 27
    15fa:	08 95       	ret
    15fc:	28 ef       	ldi	r18, 0xF8	; 248
    15fe:	28 0f       	add	r18, r24
    1600:	28 30       	cpi	r18, 0x08	; 8
    1602:	50 f4       	brcc	.+20     	; 0x1618 <DIO_WritePin+0xba>
    1604:	38 b3       	in	r19, 0x18	; 24
    1606:	81 e0       	ldi	r24, 0x01	; 1
    1608:	90 e0       	ldi	r25, 0x00	; 0
    160a:	01 c0       	rjmp	.+2      	; 0x160e <DIO_WritePin+0xb0>
    160c:	88 0f       	add	r24, r24
    160e:	2a 95       	dec	r18
    1610:	ea f7       	brpl	.-6      	; 0x160c <DIO_WritePin+0xae>
    1612:	83 2b       	or	r24, r19
    1614:	88 bb       	out	0x18, r24	; 24
    1616:	08 95       	ret
    1618:	20 ef       	ldi	r18, 0xF0	; 240
    161a:	28 0f       	add	r18, r24
    161c:	28 30       	cpi	r18, 0x08	; 8
    161e:	50 f4       	brcc	.+20     	; 0x1634 <DIO_WritePin+0xd6>
    1620:	35 b3       	in	r19, 0x15	; 21
    1622:	81 e0       	ldi	r24, 0x01	; 1
    1624:	90 e0       	ldi	r25, 0x00	; 0
    1626:	01 c0       	rjmp	.+2      	; 0x162a <DIO_WritePin+0xcc>
    1628:	88 0f       	add	r24, r24
    162a:	2a 95       	dec	r18
    162c:	ea f7       	brpl	.-6      	; 0x1628 <DIO_WritePin+0xca>
    162e:	83 2b       	or	r24, r19
    1630:	85 bb       	out	0x15, r24	; 21
    1632:	08 95       	ret
    1634:	88 51       	subi	r24, 0x18	; 24
    1636:	88 30       	cpi	r24, 0x08	; 8
    1638:	60 f4       	brcc	.+24     	; 0x1652 <DIO_WritePin+0xf4>
    163a:	42 b3       	in	r20, 0x12	; 18
    163c:	21 e0       	ldi	r18, 0x01	; 1
    163e:	30 e0       	ldi	r19, 0x00	; 0
    1640:	b9 01       	movw	r22, r18
    1642:	02 c0       	rjmp	.+4      	; 0x1648 <DIO_WritePin+0xea>
    1644:	66 0f       	add	r22, r22
    1646:	77 1f       	adc	r23, r23
    1648:	8a 95       	dec	r24
    164a:	e2 f7       	brpl	.-8      	; 0x1644 <DIO_WritePin+0xe6>
    164c:	cb 01       	movw	r24, r22
    164e:	84 2b       	or	r24, r20
    1650:	82 bb       	out	0x12, r24	; 18
    1652:	08 95       	ret

00001654 <DIO_ReadPin>:
    1654:	28 2f       	mov	r18, r24
    1656:	88 30       	cpi	r24, 0x08	; 8
    1658:	10 f4       	brcc	.+4      	; 0x165e <DIO_ReadPin+0xa>
    165a:	99 b3       	in	r25, 0x19	; 25
    165c:	16 c0       	rjmp	.+44     	; 0x168a <DIO_ReadPin+0x36>
    165e:	38 ef       	ldi	r19, 0xF8	; 248
    1660:	38 0f       	add	r19, r24
    1662:	38 30       	cpi	r19, 0x08	; 8
    1664:	10 f4       	brcc	.+4      	; 0x166a <DIO_ReadPin+0x16>
    1666:	86 b3       	in	r24, 0x16	; 22
    1668:	05 c0       	rjmp	.+10     	; 0x1674 <DIO_ReadPin+0x20>
    166a:	30 ef       	ldi	r19, 0xF0	; 240
    166c:	38 0f       	add	r19, r24
    166e:	38 30       	cpi	r19, 0x08	; 8
    1670:	40 f4       	brcc	.+16     	; 0x1682 <DIO_ReadPin+0x2e>
    1672:	83 b3       	in	r24, 0x13	; 19
    1674:	90 e0       	ldi	r25, 0x00	; 0
    1676:	02 c0       	rjmp	.+4      	; 0x167c <DIO_ReadPin+0x28>
    1678:	95 95       	asr	r25
    167a:	87 95       	ror	r24
    167c:	3a 95       	dec	r19
    167e:	e2 f7       	brpl	.-8      	; 0x1678 <DIO_ReadPin+0x24>
    1680:	0b c0       	rjmp	.+22     	; 0x1698 <DIO_ReadPin+0x44>
    1682:	28 51       	subi	r18, 0x18	; 24
    1684:	28 30       	cpi	r18, 0x08	; 8
    1686:	50 f4       	brcc	.+20     	; 0x169c <DIO_ReadPin+0x48>
    1688:	90 b3       	in	r25, 0x10	; 16
    168a:	89 2f       	mov	r24, r25
    168c:	90 e0       	ldi	r25, 0x00	; 0
    168e:	02 c0       	rjmp	.+4      	; 0x1694 <DIO_ReadPin+0x40>
    1690:	95 95       	asr	r25
    1692:	87 95       	ror	r24
    1694:	2a 95       	dec	r18
    1696:	e2 f7       	brpl	.-8      	; 0x1690 <DIO_ReadPin+0x3c>
    1698:	81 70       	andi	r24, 0x01	; 1
    169a:	08 95       	ret
    169c:	08 95       	ret

0000169e <__vector_1>:
    169e:	1f 92       	push	r1
    16a0:	0f 92       	push	r0
    16a2:	0f b6       	in	r0, 0x3f	; 63
    16a4:	0f 92       	push	r0
    16a6:	11 24       	eor	r1, r1
    16a8:	2f 93       	push	r18
    16aa:	3f 93       	push	r19
    16ac:	4f 93       	push	r20
    16ae:	5f 93       	push	r21
    16b0:	6f 93       	push	r22
    16b2:	7f 93       	push	r23
    16b4:	8f 93       	push	r24
    16b6:	9f 93       	push	r25
    16b8:	af 93       	push	r26
    16ba:	bf 93       	push	r27
    16bc:	ef 93       	push	r30
    16be:	ff 93       	push	r31
    16c0:	e0 91 5e 01 	lds	r30, 0x015E	; 0x80015e <FUNC_PTR0>
    16c4:	f0 91 5f 01 	lds	r31, 0x015F	; 0x80015f <FUNC_PTR0+0x1>
    16c8:	30 97       	sbiw	r30, 0x00	; 0
    16ca:	09 f0       	breq	.+2      	; 0x16ce <__vector_1+0x30>
    16cc:	09 95       	icall
    16ce:	ff 91       	pop	r31
    16d0:	ef 91       	pop	r30
    16d2:	bf 91       	pop	r27
    16d4:	af 91       	pop	r26
    16d6:	9f 91       	pop	r25
    16d8:	8f 91       	pop	r24
    16da:	7f 91       	pop	r23
    16dc:	6f 91       	pop	r22
    16de:	5f 91       	pop	r21
    16e0:	4f 91       	pop	r20
    16e2:	3f 91       	pop	r19
    16e4:	2f 91       	pop	r18
    16e6:	0f 90       	pop	r0
    16e8:	0f be       	out	0x3f, r0	; 63
    16ea:	0f 90       	pop	r0
    16ec:	1f 90       	pop	r1
    16ee:	18 95       	reti

000016f0 <__vector_2>:
    16f0:	1f 92       	push	r1
    16f2:	0f 92       	push	r0
    16f4:	0f b6       	in	r0, 0x3f	; 63
    16f6:	0f 92       	push	r0
    16f8:	11 24       	eor	r1, r1
    16fa:	2f 93       	push	r18
    16fc:	3f 93       	push	r19
    16fe:	4f 93       	push	r20
    1700:	5f 93       	push	r21
    1702:	6f 93       	push	r22
    1704:	7f 93       	push	r23
    1706:	8f 93       	push	r24
    1708:	9f 93       	push	r25
    170a:	af 93       	push	r26
    170c:	bf 93       	push	r27
    170e:	ef 93       	push	r30
    1710:	ff 93       	push	r31
    1712:	e0 91 5c 01 	lds	r30, 0x015C	; 0x80015c <FUNC_PTR1>
    1716:	f0 91 5d 01 	lds	r31, 0x015D	; 0x80015d <FUNC_PTR1+0x1>
    171a:	30 97       	sbiw	r30, 0x00	; 0
    171c:	09 f0       	breq	.+2      	; 0x1720 <__vector_2+0x30>
    171e:	09 95       	icall
    1720:	ff 91       	pop	r31
    1722:	ef 91       	pop	r30
    1724:	bf 91       	pop	r27
    1726:	af 91       	pop	r26
    1728:	9f 91       	pop	r25
    172a:	8f 91       	pop	r24
    172c:	7f 91       	pop	r23
    172e:	6f 91       	pop	r22
    1730:	5f 91       	pop	r21
    1732:	4f 91       	pop	r20
    1734:	3f 91       	pop	r19
    1736:	2f 91       	pop	r18
    1738:	0f 90       	pop	r0
    173a:	0f be       	out	0x3f, r0	; 63
    173c:	0f 90       	pop	r0
    173e:	1f 90       	pop	r1
    1740:	18 95       	reti

00001742 <__vector_3>:
    1742:	1f 92       	push	r1
    1744:	0f 92       	push	r0
    1746:	0f b6       	in	r0, 0x3f	; 63
    1748:	0f 92       	push	r0
    174a:	11 24       	eor	r1, r1
    174c:	2f 93       	push	r18
    174e:	3f 93       	push	r19
    1750:	4f 93       	push	r20
    1752:	5f 93       	push	r21
    1754:	6f 93       	push	r22
    1756:	7f 93       	push	r23
    1758:	8f 93       	push	r24
    175a:	9f 93       	push	r25
    175c:	af 93       	push	r26
    175e:	bf 93       	push	r27
    1760:	ef 93       	push	r30
    1762:	ff 93       	push	r31
    1764:	e0 91 5a 01 	lds	r30, 0x015A	; 0x80015a <FUNC_PTR2>
    1768:	f0 91 5b 01 	lds	r31, 0x015B	; 0x80015b <FUNC_PTR2+0x1>
    176c:	30 97       	sbiw	r30, 0x00	; 0
    176e:	09 f0       	breq	.+2      	; 0x1772 <__vector_3+0x30>
    1770:	09 95       	icall
    1772:	ff 91       	pop	r31
    1774:	ef 91       	pop	r30
    1776:	bf 91       	pop	r27
    1778:	af 91       	pop	r26
    177a:	9f 91       	pop	r25
    177c:	8f 91       	pop	r24
    177e:	7f 91       	pop	r23
    1780:	6f 91       	pop	r22
    1782:	5f 91       	pop	r21
    1784:	4f 91       	pop	r20
    1786:	3f 91       	pop	r19
    1788:	2f 91       	pop	r18
    178a:	0f 90       	pop	r0
    178c:	0f be       	out	0x3f, r0	; 63
    178e:	0f 90       	pop	r0
    1790:	1f 90       	pop	r1
    1792:	18 95       	reti

00001794 <__vector_12>:
    1794:	1f 92       	push	r1
    1796:	0f 92       	push	r0
    1798:	0f b6       	in	r0, 0x3f	; 63
    179a:	0f 92       	push	r0
    179c:	11 24       	eor	r1, r1
    179e:	2f 93       	push	r18
    17a0:	3f 93       	push	r19
    17a2:	4f 93       	push	r20
    17a4:	5f 93       	push	r21
    17a6:	6f 93       	push	r22
    17a8:	7f 93       	push	r23
    17aa:	8f 93       	push	r24
    17ac:	9f 93       	push	r25
    17ae:	af 93       	push	r26
    17b0:	bf 93       	push	r27
    17b2:	ef 93       	push	r30
    17b4:	ff 93       	push	r31
    17b6:	e0 91 60 01 	lds	r30, 0x0160	; 0x800160 <SPI_INTERRUP_PTR>
    17ba:	f0 91 61 01 	lds	r31, 0x0161	; 0x800161 <SPI_INTERRUP_PTR+0x1>
    17be:	30 97       	sbiw	r30, 0x00	; 0
    17c0:	09 f0       	breq	.+2      	; 0x17c4 <__vector_12+0x30>
    17c2:	09 95       	icall
    17c4:	ff 91       	pop	r31
    17c6:	ef 91       	pop	r30
    17c8:	bf 91       	pop	r27
    17ca:	af 91       	pop	r26
    17cc:	9f 91       	pop	r25
    17ce:	8f 91       	pop	r24
    17d0:	7f 91       	pop	r23
    17d2:	6f 91       	pop	r22
    17d4:	5f 91       	pop	r21
    17d6:	4f 91       	pop	r20
    17d8:	3f 91       	pop	r19
    17da:	2f 91       	pop	r18
    17dc:	0f 90       	pop	r0
    17de:	0f be       	out	0x3f, r0	; 63
    17e0:	0f 90       	pop	r0
    17e2:	1f 90       	pop	r1
    17e4:	18 95       	reti

000017e6 <__vector_10>:
    17e6:	1f 92       	push	r1
    17e8:	0f 92       	push	r0
    17ea:	0f b6       	in	r0, 0x3f	; 63
    17ec:	0f 92       	push	r0
    17ee:	11 24       	eor	r1, r1
    17f0:	2f 93       	push	r18
    17f2:	3f 93       	push	r19
    17f4:	4f 93       	push	r20
    17f6:	5f 93       	push	r21
    17f8:	6f 93       	push	r22
    17fa:	7f 93       	push	r23
    17fc:	8f 93       	push	r24
    17fe:	9f 93       	push	r25
    1800:	af 93       	push	r26
    1802:	bf 93       	push	r27
    1804:	ef 93       	push	r30
    1806:	ff 93       	push	r31
    1808:	e0 91 64 01 	lds	r30, 0x0164	; 0x800164 <funcPtrCompareMatch>
    180c:	f0 91 65 01 	lds	r31, 0x0165	; 0x800165 <funcPtrCompareMatch+0x1>
    1810:	30 97       	sbiw	r30, 0x00	; 0
    1812:	09 f0       	breq	.+2      	; 0x1816 <__vector_10+0x30>
    1814:	09 95       	icall
    1816:	ff 91       	pop	r31
    1818:	ef 91       	pop	r30
    181a:	bf 91       	pop	r27
    181c:	af 91       	pop	r26
    181e:	9f 91       	pop	r25
    1820:	8f 91       	pop	r24
    1822:	7f 91       	pop	r23
    1824:	6f 91       	pop	r22
    1826:	5f 91       	pop	r21
    1828:	4f 91       	pop	r20
    182a:	3f 91       	pop	r19
    182c:	2f 91       	pop	r18
    182e:	0f 90       	pop	r0
    1830:	0f be       	out	0x3f, r0	; 63
    1832:	0f 90       	pop	r0
    1834:	1f 90       	pop	r1
    1836:	18 95       	reti

00001838 <__vector_11>:
    1838:	1f 92       	push	r1
    183a:	0f 92       	push	r0
    183c:	0f b6       	in	r0, 0x3f	; 63
    183e:	0f 92       	push	r0
    1840:	11 24       	eor	r1, r1
    1842:	2f 93       	push	r18
    1844:	3f 93       	push	r19
    1846:	4f 93       	push	r20
    1848:	5f 93       	push	r21
    184a:	6f 93       	push	r22
    184c:	7f 93       	push	r23
    184e:	8f 93       	push	r24
    1850:	9f 93       	push	r25
    1852:	af 93       	push	r26
    1854:	bf 93       	push	r27
    1856:	ef 93       	push	r30
    1858:	ff 93       	push	r31
    185a:	e0 91 62 01 	lds	r30, 0x0162	; 0x800162 <funcPtrOverflow>
    185e:	f0 91 63 01 	lds	r31, 0x0163	; 0x800163 <funcPtrOverflow+0x1>
    1862:	30 97       	sbiw	r30, 0x00	; 0
    1864:	09 f0       	breq	.+2      	; 0x1868 <__vector_11+0x30>
    1866:	09 95       	icall
    1868:	ff 91       	pop	r31
    186a:	ef 91       	pop	r30
    186c:	bf 91       	pop	r27
    186e:	af 91       	pop	r26
    1870:	9f 91       	pop	r25
    1872:	8f 91       	pop	r24
    1874:	7f 91       	pop	r23
    1876:	6f 91       	pop	r22
    1878:	5f 91       	pop	r21
    187a:	4f 91       	pop	r20
    187c:	3f 91       	pop	r19
    187e:	2f 91       	pop	r18
    1880:	0f 90       	pop	r0
    1882:	0f be       	out	0x3f, r0	; 63
    1884:	0f 90       	pop	r0
    1886:	1f 90       	pop	r1
    1888:	18 95       	reti

0000188a <__vector_7>:
    188a:	1f 92       	push	r1
    188c:	0f 92       	push	r0
    188e:	0f b6       	in	r0, 0x3f	; 63
    1890:	0f 92       	push	r0
    1892:	11 24       	eor	r1, r1
    1894:	2f 93       	push	r18
    1896:	3f 93       	push	r19
    1898:	4f 93       	push	r20
    189a:	5f 93       	push	r21
    189c:	6f 93       	push	r22
    189e:	7f 93       	push	r23
    18a0:	8f 93       	push	r24
    18a2:	9f 93       	push	r25
    18a4:	af 93       	push	r26
    18a6:	bf 93       	push	r27
    18a8:	ef 93       	push	r30
    18aa:	ff 93       	push	r31
    18ac:	e0 91 6c 01 	lds	r30, 0x016C	; 0x80016c <funcPtrCompareMatch1A>
    18b0:	f0 91 6d 01 	lds	r31, 0x016D	; 0x80016d <funcPtrCompareMatch1A+0x1>
    18b4:	30 97       	sbiw	r30, 0x00	; 0
    18b6:	09 f0       	breq	.+2      	; 0x18ba <__vector_7+0x30>
    18b8:	09 95       	icall
    18ba:	ff 91       	pop	r31
    18bc:	ef 91       	pop	r30
    18be:	bf 91       	pop	r27
    18c0:	af 91       	pop	r26
    18c2:	9f 91       	pop	r25
    18c4:	8f 91       	pop	r24
    18c6:	7f 91       	pop	r23
    18c8:	6f 91       	pop	r22
    18ca:	5f 91       	pop	r21
    18cc:	4f 91       	pop	r20
    18ce:	3f 91       	pop	r19
    18d0:	2f 91       	pop	r18
    18d2:	0f 90       	pop	r0
    18d4:	0f be       	out	0x3f, r0	; 63
    18d6:	0f 90       	pop	r0
    18d8:	1f 90       	pop	r1
    18da:	18 95       	reti

000018dc <__vector_8>:
    18dc:	1f 92       	push	r1
    18de:	0f 92       	push	r0
    18e0:	0f b6       	in	r0, 0x3f	; 63
    18e2:	0f 92       	push	r0
    18e4:	11 24       	eor	r1, r1
    18e6:	2f 93       	push	r18
    18e8:	3f 93       	push	r19
    18ea:	4f 93       	push	r20
    18ec:	5f 93       	push	r21
    18ee:	6f 93       	push	r22
    18f0:	7f 93       	push	r23
    18f2:	8f 93       	push	r24
    18f4:	9f 93       	push	r25
    18f6:	af 93       	push	r26
    18f8:	bf 93       	push	r27
    18fa:	ef 93       	push	r30
    18fc:	ff 93       	push	r31
    18fe:	e0 91 6a 01 	lds	r30, 0x016A	; 0x80016a <funcPtrCompareMatch1B>
    1902:	f0 91 6b 01 	lds	r31, 0x016B	; 0x80016b <funcPtrCompareMatch1B+0x1>
    1906:	30 97       	sbiw	r30, 0x00	; 0
    1908:	09 f0       	breq	.+2      	; 0x190c <__vector_8+0x30>
    190a:	09 95       	icall
    190c:	ff 91       	pop	r31
    190e:	ef 91       	pop	r30
    1910:	bf 91       	pop	r27
    1912:	af 91       	pop	r26
    1914:	9f 91       	pop	r25
    1916:	8f 91       	pop	r24
    1918:	7f 91       	pop	r23
    191a:	6f 91       	pop	r22
    191c:	5f 91       	pop	r21
    191e:	4f 91       	pop	r20
    1920:	3f 91       	pop	r19
    1922:	2f 91       	pop	r18
    1924:	0f 90       	pop	r0
    1926:	0f be       	out	0x3f, r0	; 63
    1928:	0f 90       	pop	r0
    192a:	1f 90       	pop	r1
    192c:	18 95       	reti

0000192e <__vector_9>:
    192e:	1f 92       	push	r1
    1930:	0f 92       	push	r0
    1932:	0f b6       	in	r0, 0x3f	; 63
    1934:	0f 92       	push	r0
    1936:	11 24       	eor	r1, r1
    1938:	2f 93       	push	r18
    193a:	3f 93       	push	r19
    193c:	4f 93       	push	r20
    193e:	5f 93       	push	r21
    1940:	6f 93       	push	r22
    1942:	7f 93       	push	r23
    1944:	8f 93       	push	r24
    1946:	9f 93       	push	r25
    1948:	af 93       	push	r26
    194a:	bf 93       	push	r27
    194c:	ef 93       	push	r30
    194e:	ff 93       	push	r31
    1950:	e0 91 68 01 	lds	r30, 0x0168	; 0x800168 <funcPtrOverflow>
    1954:	f0 91 69 01 	lds	r31, 0x0169	; 0x800169 <funcPtrOverflow+0x1>
    1958:	30 97       	sbiw	r30, 0x00	; 0
    195a:	09 f0       	breq	.+2      	; 0x195e <__vector_9+0x30>
    195c:	09 95       	icall
    195e:	ff 91       	pop	r31
    1960:	ef 91       	pop	r30
    1962:	bf 91       	pop	r27
    1964:	af 91       	pop	r26
    1966:	9f 91       	pop	r25
    1968:	8f 91       	pop	r24
    196a:	7f 91       	pop	r23
    196c:	6f 91       	pop	r22
    196e:	5f 91       	pop	r21
    1970:	4f 91       	pop	r20
    1972:	3f 91       	pop	r19
    1974:	2f 91       	pop	r18
    1976:	0f 90       	pop	r0
    1978:	0f be       	out	0x3f, r0	; 63
    197a:	0f 90       	pop	r0
    197c:	1f 90       	pop	r1
    197e:	18 95       	reti

00001980 <__vector_6>:
    1980:	1f 92       	push	r1
    1982:	0f 92       	push	r0
    1984:	0f b6       	in	r0, 0x3f	; 63
    1986:	0f 92       	push	r0
    1988:	11 24       	eor	r1, r1
    198a:	2f 93       	push	r18
    198c:	3f 93       	push	r19
    198e:	4f 93       	push	r20
    1990:	5f 93       	push	r21
    1992:	6f 93       	push	r22
    1994:	7f 93       	push	r23
    1996:	8f 93       	push	r24
    1998:	9f 93       	push	r25
    199a:	af 93       	push	r26
    199c:	bf 93       	push	r27
    199e:	ef 93       	push	r30
    19a0:	ff 93       	push	r31
    19a2:	e0 91 66 01 	lds	r30, 0x0166	; 0x800166 <funcPtrTimeStamp>
    19a6:	f0 91 67 01 	lds	r31, 0x0167	; 0x800167 <funcPtrTimeStamp+0x1>
    19aa:	30 97       	sbiw	r30, 0x00	; 0
    19ac:	09 f0       	breq	.+2      	; 0x19b0 <__vector_6+0x30>
    19ae:	09 95       	icall
    19b0:	ff 91       	pop	r31
    19b2:	ef 91       	pop	r30
    19b4:	bf 91       	pop	r27
    19b6:	af 91       	pop	r26
    19b8:	9f 91       	pop	r25
    19ba:	8f 91       	pop	r24
    19bc:	7f 91       	pop	r23
    19be:	6f 91       	pop	r22
    19c0:	5f 91       	pop	r21
    19c2:	4f 91       	pop	r20
    19c4:	3f 91       	pop	r19
    19c6:	2f 91       	pop	r18
    19c8:	0f 90       	pop	r0
    19ca:	0f be       	out	0x3f, r0	; 63
    19cc:	0f 90       	pop	r0
    19ce:	1f 90       	pop	r1
    19d0:	18 95       	reti

000019d2 <__vector_13>:
    19d2:	1f 92       	push	r1
    19d4:	0f 92       	push	r0
    19d6:	0f b6       	in	r0, 0x3f	; 63
    19d8:	0f 92       	push	r0
    19da:	11 24       	eor	r1, r1
    19dc:	2f 93       	push	r18
    19de:	3f 93       	push	r19
    19e0:	4f 93       	push	r20
    19e2:	5f 93       	push	r21
    19e4:	6f 93       	push	r22
    19e6:	7f 93       	push	r23
    19e8:	8f 93       	push	r24
    19ea:	9f 93       	push	r25
    19ec:	af 93       	push	r26
    19ee:	bf 93       	push	r27
    19f0:	ef 93       	push	r30
    19f2:	ff 93       	push	r31
    19f4:	e0 91 72 01 	lds	r30, 0x0172	; 0x800172 <RXcomplateInterruptPTR>
    19f8:	f0 91 73 01 	lds	r31, 0x0173	; 0x800173 <RXcomplateInterruptPTR+0x1>
    19fc:	30 97       	sbiw	r30, 0x00	; 0
    19fe:	09 f0       	breq	.+2      	; 0x1a02 <__vector_13+0x30>
    1a00:	09 95       	icall
    1a02:	ff 91       	pop	r31
    1a04:	ef 91       	pop	r30
    1a06:	bf 91       	pop	r27
    1a08:	af 91       	pop	r26
    1a0a:	9f 91       	pop	r25
    1a0c:	8f 91       	pop	r24
    1a0e:	7f 91       	pop	r23
    1a10:	6f 91       	pop	r22
    1a12:	5f 91       	pop	r21
    1a14:	4f 91       	pop	r20
    1a16:	3f 91       	pop	r19
    1a18:	2f 91       	pop	r18
    1a1a:	0f 90       	pop	r0
    1a1c:	0f be       	out	0x3f, r0	; 63
    1a1e:	0f 90       	pop	r0
    1a20:	1f 90       	pop	r1
    1a22:	18 95       	reti

00001a24 <__vector_15>:
    1a24:	1f 92       	push	r1
    1a26:	0f 92       	push	r0
    1a28:	0f b6       	in	r0, 0x3f	; 63
    1a2a:	0f 92       	push	r0
    1a2c:	11 24       	eor	r1, r1
    1a2e:	2f 93       	push	r18
    1a30:	3f 93       	push	r19
    1a32:	4f 93       	push	r20
    1a34:	5f 93       	push	r21
    1a36:	6f 93       	push	r22
    1a38:	7f 93       	push	r23
    1a3a:	8f 93       	push	r24
    1a3c:	9f 93       	push	r25
    1a3e:	af 93       	push	r26
    1a40:	bf 93       	push	r27
    1a42:	ef 93       	push	r30
    1a44:	ff 93       	push	r31
    1a46:	e0 91 70 01 	lds	r30, 0x0170	; 0x800170 <TXcomplateInterruptPTR>
    1a4a:	f0 91 71 01 	lds	r31, 0x0171	; 0x800171 <TXcomplateInterruptPTR+0x1>
    1a4e:	30 97       	sbiw	r30, 0x00	; 0
    1a50:	09 f0       	breq	.+2      	; 0x1a54 <__vector_15+0x30>
    1a52:	09 95       	icall
    1a54:	ff 91       	pop	r31
    1a56:	ef 91       	pop	r30
    1a58:	bf 91       	pop	r27
    1a5a:	af 91       	pop	r26
    1a5c:	9f 91       	pop	r25
    1a5e:	8f 91       	pop	r24
    1a60:	7f 91       	pop	r23
    1a62:	6f 91       	pop	r22
    1a64:	5f 91       	pop	r21
    1a66:	4f 91       	pop	r20
    1a68:	3f 91       	pop	r19
    1a6a:	2f 91       	pop	r18
    1a6c:	0f 90       	pop	r0
    1a6e:	0f be       	out	0x3f, r0	; 63
    1a70:	0f 90       	pop	r0
    1a72:	1f 90       	pop	r1
    1a74:	18 95       	reti

00001a76 <__vector_14>:
    1a76:	1f 92       	push	r1
    1a78:	0f 92       	push	r0
    1a7a:	0f b6       	in	r0, 0x3f	; 63
    1a7c:	0f 92       	push	r0
    1a7e:	11 24       	eor	r1, r1
    1a80:	2f 93       	push	r18
    1a82:	3f 93       	push	r19
    1a84:	4f 93       	push	r20
    1a86:	5f 93       	push	r21
    1a88:	6f 93       	push	r22
    1a8a:	7f 93       	push	r23
    1a8c:	8f 93       	push	r24
    1a8e:	9f 93       	push	r25
    1a90:	af 93       	push	r26
    1a92:	bf 93       	push	r27
    1a94:	ef 93       	push	r30
    1a96:	ff 93       	push	r31
    1a98:	e0 91 6e 01 	lds	r30, 0x016E	; 0x80016e <UDRemptyInterruptPTR>
    1a9c:	f0 91 6f 01 	lds	r31, 0x016F	; 0x80016f <UDRemptyInterruptPTR+0x1>
    1aa0:	30 97       	sbiw	r30, 0x00	; 0
    1aa2:	09 f0       	breq	.+2      	; 0x1aa6 <__vector_14+0x30>
    1aa4:	09 95       	icall
    1aa6:	ff 91       	pop	r31
    1aa8:	ef 91       	pop	r30
    1aaa:	bf 91       	pop	r27
    1aac:	af 91       	pop	r26
    1aae:	9f 91       	pop	r25
    1ab0:	8f 91       	pop	r24
    1ab2:	7f 91       	pop	r23
    1ab4:	6f 91       	pop	r22
    1ab6:	5f 91       	pop	r21
    1ab8:	4f 91       	pop	r20
    1aba:	3f 91       	pop	r19
    1abc:	2f 91       	pop	r18
    1abe:	0f 90       	pop	r0
    1ac0:	0f be       	out	0x3f, r0	; 63
    1ac2:	0f 90       	pop	r0
    1ac4:	1f 90       	pop	r1
    1ac6:	18 95       	reti

00001ac8 <__divsf3>:
    1ac8:	0e 94 78 0d 	call	0x1af0	; 0x1af0 <__divsf3x>
    1acc:	0c 94 7d 0e 	jmp	0x1cfa	; 0x1cfa <__fp_round>
    1ad0:	0e 94 76 0e 	call	0x1cec	; 0x1cec <__fp_pscB>
    1ad4:	58 f0       	brcs	.+22     	; 0x1aec <__divsf3+0x24>
    1ad6:	0e 94 6f 0e 	call	0x1cde	; 0x1cde <__fp_pscA>
    1ada:	40 f0       	brcs	.+16     	; 0x1aec <__divsf3+0x24>
    1adc:	29 f4       	brne	.+10     	; 0x1ae8 <__divsf3+0x20>
    1ade:	5f 3f       	cpi	r21, 0xFF	; 255
    1ae0:	29 f0       	breq	.+10     	; 0x1aec <__divsf3+0x24>
    1ae2:	0c 94 66 0e 	jmp	0x1ccc	; 0x1ccc <__fp_inf>
    1ae6:	51 11       	cpse	r21, r1
    1ae8:	0c 94 b1 0e 	jmp	0x1d62	; 0x1d62 <__fp_szero>
    1aec:	0c 94 6c 0e 	jmp	0x1cd8	; 0x1cd8 <__fp_nan>

00001af0 <__divsf3x>:
    1af0:	0e 94 8e 0e 	call	0x1d1c	; 0x1d1c <__fp_split3>
    1af4:	68 f3       	brcs	.-38     	; 0x1ad0 <__divsf3+0x8>

00001af6 <__divsf3_pse>:
    1af6:	99 23       	and	r25, r25
    1af8:	b1 f3       	breq	.-20     	; 0x1ae6 <__divsf3+0x1e>
    1afa:	55 23       	and	r21, r21
    1afc:	91 f3       	breq	.-28     	; 0x1ae2 <__divsf3+0x1a>
    1afe:	95 1b       	sub	r25, r21
    1b00:	55 0b       	sbc	r21, r21
    1b02:	bb 27       	eor	r27, r27
    1b04:	aa 27       	eor	r26, r26
    1b06:	62 17       	cp	r22, r18
    1b08:	73 07       	cpc	r23, r19
    1b0a:	84 07       	cpc	r24, r20
    1b0c:	38 f0       	brcs	.+14     	; 0x1b1c <__divsf3_pse+0x26>
    1b0e:	9f 5f       	subi	r25, 0xFF	; 255
    1b10:	5f 4f       	sbci	r21, 0xFF	; 255
    1b12:	22 0f       	add	r18, r18
    1b14:	33 1f       	adc	r19, r19
    1b16:	44 1f       	adc	r20, r20
    1b18:	aa 1f       	adc	r26, r26
    1b1a:	a9 f3       	breq	.-22     	; 0x1b06 <__divsf3_pse+0x10>
    1b1c:	35 d0       	rcall	.+106    	; 0x1b88 <__divsf3_pse+0x92>
    1b1e:	0e 2e       	mov	r0, r30
    1b20:	3a f0       	brmi	.+14     	; 0x1b30 <__divsf3_pse+0x3a>
    1b22:	e0 e8       	ldi	r30, 0x80	; 128
    1b24:	32 d0       	rcall	.+100    	; 0x1b8a <__divsf3_pse+0x94>
    1b26:	91 50       	subi	r25, 0x01	; 1
    1b28:	50 40       	sbci	r21, 0x00	; 0
    1b2a:	e6 95       	lsr	r30
    1b2c:	00 1c       	adc	r0, r0
    1b2e:	ca f7       	brpl	.-14     	; 0x1b22 <__divsf3_pse+0x2c>
    1b30:	2b d0       	rcall	.+86     	; 0x1b88 <__divsf3_pse+0x92>
    1b32:	fe 2f       	mov	r31, r30
    1b34:	29 d0       	rcall	.+82     	; 0x1b88 <__divsf3_pse+0x92>
    1b36:	66 0f       	add	r22, r22
    1b38:	77 1f       	adc	r23, r23
    1b3a:	88 1f       	adc	r24, r24
    1b3c:	bb 1f       	adc	r27, r27
    1b3e:	26 17       	cp	r18, r22
    1b40:	37 07       	cpc	r19, r23
    1b42:	48 07       	cpc	r20, r24
    1b44:	ab 07       	cpc	r26, r27
    1b46:	b0 e8       	ldi	r27, 0x80	; 128
    1b48:	09 f0       	breq	.+2      	; 0x1b4c <__divsf3_pse+0x56>
    1b4a:	bb 0b       	sbc	r27, r27
    1b4c:	80 2d       	mov	r24, r0
    1b4e:	bf 01       	movw	r22, r30
    1b50:	ff 27       	eor	r31, r31
    1b52:	93 58       	subi	r25, 0x83	; 131
    1b54:	5f 4f       	sbci	r21, 0xFF	; 255
    1b56:	3a f0       	brmi	.+14     	; 0x1b66 <__divsf3_pse+0x70>
    1b58:	9e 3f       	cpi	r25, 0xFE	; 254
    1b5a:	51 05       	cpc	r21, r1
    1b5c:	78 f0       	brcs	.+30     	; 0x1b7c <__divsf3_pse+0x86>
    1b5e:	0c 94 66 0e 	jmp	0x1ccc	; 0x1ccc <__fp_inf>
    1b62:	0c 94 b1 0e 	jmp	0x1d62	; 0x1d62 <__fp_szero>
    1b66:	5f 3f       	cpi	r21, 0xFF	; 255
    1b68:	e4 f3       	brlt	.-8      	; 0x1b62 <__divsf3_pse+0x6c>
    1b6a:	98 3e       	cpi	r25, 0xE8	; 232
    1b6c:	d4 f3       	brlt	.-12     	; 0x1b62 <__divsf3_pse+0x6c>
    1b6e:	86 95       	lsr	r24
    1b70:	77 95       	ror	r23
    1b72:	67 95       	ror	r22
    1b74:	b7 95       	ror	r27
    1b76:	f7 95       	ror	r31
    1b78:	9f 5f       	subi	r25, 0xFF	; 255
    1b7a:	c9 f7       	brne	.-14     	; 0x1b6e <__divsf3_pse+0x78>
    1b7c:	88 0f       	add	r24, r24
    1b7e:	91 1d       	adc	r25, r1
    1b80:	96 95       	lsr	r25
    1b82:	87 95       	ror	r24
    1b84:	97 f9       	bld	r25, 7
    1b86:	08 95       	ret
    1b88:	e1 e0       	ldi	r30, 0x01	; 1
    1b8a:	66 0f       	add	r22, r22
    1b8c:	77 1f       	adc	r23, r23
    1b8e:	88 1f       	adc	r24, r24
    1b90:	bb 1f       	adc	r27, r27
    1b92:	62 17       	cp	r22, r18
    1b94:	73 07       	cpc	r23, r19
    1b96:	84 07       	cpc	r24, r20
    1b98:	ba 07       	cpc	r27, r26
    1b9a:	20 f0       	brcs	.+8      	; 0x1ba4 <__divsf3_pse+0xae>
    1b9c:	62 1b       	sub	r22, r18
    1b9e:	73 0b       	sbc	r23, r19
    1ba0:	84 0b       	sbc	r24, r20
    1ba2:	ba 0b       	sbc	r27, r26
    1ba4:	ee 1f       	adc	r30, r30
    1ba6:	88 f7       	brcc	.-30     	; 0x1b8a <__divsf3_pse+0x94>
    1ba8:	e0 95       	com	r30
    1baa:	08 95       	ret

00001bac <__fixunssfsi>:
    1bac:	0e 94 96 0e 	call	0x1d2c	; 0x1d2c <__fp_splitA>
    1bb0:	88 f0       	brcs	.+34     	; 0x1bd4 <__fixunssfsi+0x28>
    1bb2:	9f 57       	subi	r25, 0x7F	; 127
    1bb4:	98 f0       	brcs	.+38     	; 0x1bdc <__fixunssfsi+0x30>
    1bb6:	b9 2f       	mov	r27, r25
    1bb8:	99 27       	eor	r25, r25
    1bba:	b7 51       	subi	r27, 0x17	; 23
    1bbc:	b0 f0       	brcs	.+44     	; 0x1bea <__fixunssfsi+0x3e>
    1bbe:	e1 f0       	breq	.+56     	; 0x1bf8 <__fixunssfsi+0x4c>
    1bc0:	66 0f       	add	r22, r22
    1bc2:	77 1f       	adc	r23, r23
    1bc4:	88 1f       	adc	r24, r24
    1bc6:	99 1f       	adc	r25, r25
    1bc8:	1a f0       	brmi	.+6      	; 0x1bd0 <__fixunssfsi+0x24>
    1bca:	ba 95       	dec	r27
    1bcc:	c9 f7       	brne	.-14     	; 0x1bc0 <__fixunssfsi+0x14>
    1bce:	14 c0       	rjmp	.+40     	; 0x1bf8 <__fixunssfsi+0x4c>
    1bd0:	b1 30       	cpi	r27, 0x01	; 1
    1bd2:	91 f0       	breq	.+36     	; 0x1bf8 <__fixunssfsi+0x4c>
    1bd4:	0e 94 b0 0e 	call	0x1d60	; 0x1d60 <__fp_zero>
    1bd8:	b1 e0       	ldi	r27, 0x01	; 1
    1bda:	08 95       	ret
    1bdc:	0c 94 b0 0e 	jmp	0x1d60	; 0x1d60 <__fp_zero>
    1be0:	67 2f       	mov	r22, r23
    1be2:	78 2f       	mov	r23, r24
    1be4:	88 27       	eor	r24, r24
    1be6:	b8 5f       	subi	r27, 0xF8	; 248
    1be8:	39 f0       	breq	.+14     	; 0x1bf8 <__fixunssfsi+0x4c>
    1bea:	b9 3f       	cpi	r27, 0xF9	; 249
    1bec:	cc f3       	brlt	.-14     	; 0x1be0 <__fixunssfsi+0x34>
    1bee:	86 95       	lsr	r24
    1bf0:	77 95       	ror	r23
    1bf2:	67 95       	ror	r22
    1bf4:	b3 95       	inc	r27
    1bf6:	d9 f7       	brne	.-10     	; 0x1bee <__fixunssfsi+0x42>
    1bf8:	3e f4       	brtc	.+14     	; 0x1c08 <__fixunssfsi+0x5c>
    1bfa:	90 95       	com	r25
    1bfc:	80 95       	com	r24
    1bfe:	70 95       	com	r23
    1c00:	61 95       	neg	r22
    1c02:	7f 4f       	sbci	r23, 0xFF	; 255
    1c04:	8f 4f       	sbci	r24, 0xFF	; 255
    1c06:	9f 4f       	sbci	r25, 0xFF	; 255
    1c08:	08 95       	ret

00001c0a <__floatunsisf>:
    1c0a:	e8 94       	clt
    1c0c:	09 c0       	rjmp	.+18     	; 0x1c20 <__floatsisf+0x12>

00001c0e <__floatsisf>:
    1c0e:	97 fb       	bst	r25, 7
    1c10:	3e f4       	brtc	.+14     	; 0x1c20 <__floatsisf+0x12>
    1c12:	90 95       	com	r25
    1c14:	80 95       	com	r24
    1c16:	70 95       	com	r23
    1c18:	61 95       	neg	r22
    1c1a:	7f 4f       	sbci	r23, 0xFF	; 255
    1c1c:	8f 4f       	sbci	r24, 0xFF	; 255
    1c1e:	9f 4f       	sbci	r25, 0xFF	; 255
    1c20:	99 23       	and	r25, r25
    1c22:	a9 f0       	breq	.+42     	; 0x1c4e <__floatsisf+0x40>
    1c24:	f9 2f       	mov	r31, r25
    1c26:	96 e9       	ldi	r25, 0x96	; 150
    1c28:	bb 27       	eor	r27, r27
    1c2a:	93 95       	inc	r25
    1c2c:	f6 95       	lsr	r31
    1c2e:	87 95       	ror	r24
    1c30:	77 95       	ror	r23
    1c32:	67 95       	ror	r22
    1c34:	b7 95       	ror	r27
    1c36:	f1 11       	cpse	r31, r1
    1c38:	f8 cf       	rjmp	.-16     	; 0x1c2a <__floatsisf+0x1c>
    1c3a:	fa f4       	brpl	.+62     	; 0x1c7a <__floatsisf+0x6c>
    1c3c:	bb 0f       	add	r27, r27
    1c3e:	11 f4       	brne	.+4      	; 0x1c44 <__floatsisf+0x36>
    1c40:	60 ff       	sbrs	r22, 0
    1c42:	1b c0       	rjmp	.+54     	; 0x1c7a <__floatsisf+0x6c>
    1c44:	6f 5f       	subi	r22, 0xFF	; 255
    1c46:	7f 4f       	sbci	r23, 0xFF	; 255
    1c48:	8f 4f       	sbci	r24, 0xFF	; 255
    1c4a:	9f 4f       	sbci	r25, 0xFF	; 255
    1c4c:	16 c0       	rjmp	.+44     	; 0x1c7a <__floatsisf+0x6c>
    1c4e:	88 23       	and	r24, r24
    1c50:	11 f0       	breq	.+4      	; 0x1c56 <__floatsisf+0x48>
    1c52:	96 e9       	ldi	r25, 0x96	; 150
    1c54:	11 c0       	rjmp	.+34     	; 0x1c78 <__floatsisf+0x6a>
    1c56:	77 23       	and	r23, r23
    1c58:	21 f0       	breq	.+8      	; 0x1c62 <__floatsisf+0x54>
    1c5a:	9e e8       	ldi	r25, 0x8E	; 142
    1c5c:	87 2f       	mov	r24, r23
    1c5e:	76 2f       	mov	r23, r22
    1c60:	05 c0       	rjmp	.+10     	; 0x1c6c <__floatsisf+0x5e>
    1c62:	66 23       	and	r22, r22
    1c64:	71 f0       	breq	.+28     	; 0x1c82 <__floatsisf+0x74>
    1c66:	96 e8       	ldi	r25, 0x86	; 134
    1c68:	86 2f       	mov	r24, r22
    1c6a:	70 e0       	ldi	r23, 0x00	; 0
    1c6c:	60 e0       	ldi	r22, 0x00	; 0
    1c6e:	2a f0       	brmi	.+10     	; 0x1c7a <__floatsisf+0x6c>
    1c70:	9a 95       	dec	r25
    1c72:	66 0f       	add	r22, r22
    1c74:	77 1f       	adc	r23, r23
    1c76:	88 1f       	adc	r24, r24
    1c78:	da f7       	brpl	.-10     	; 0x1c70 <__floatsisf+0x62>
    1c7a:	88 0f       	add	r24, r24
    1c7c:	96 95       	lsr	r25
    1c7e:	87 95       	ror	r24
    1c80:	97 f9       	bld	r25, 7
    1c82:	08 95       	ret

00001c84 <__fp_cmp>:
    1c84:	99 0f       	add	r25, r25
    1c86:	00 08       	sbc	r0, r0
    1c88:	55 0f       	add	r21, r21
    1c8a:	aa 0b       	sbc	r26, r26
    1c8c:	e0 e8       	ldi	r30, 0x80	; 128
    1c8e:	fe ef       	ldi	r31, 0xFE	; 254
    1c90:	16 16       	cp	r1, r22
    1c92:	17 06       	cpc	r1, r23
    1c94:	e8 07       	cpc	r30, r24
    1c96:	f9 07       	cpc	r31, r25
    1c98:	c0 f0       	brcs	.+48     	; 0x1cca <__fp_cmp+0x46>
    1c9a:	12 16       	cp	r1, r18
    1c9c:	13 06       	cpc	r1, r19
    1c9e:	e4 07       	cpc	r30, r20
    1ca0:	f5 07       	cpc	r31, r21
    1ca2:	98 f0       	brcs	.+38     	; 0x1cca <__fp_cmp+0x46>
    1ca4:	62 1b       	sub	r22, r18
    1ca6:	73 0b       	sbc	r23, r19
    1ca8:	84 0b       	sbc	r24, r20
    1caa:	95 0b       	sbc	r25, r21
    1cac:	39 f4       	brne	.+14     	; 0x1cbc <__fp_cmp+0x38>
    1cae:	0a 26       	eor	r0, r26
    1cb0:	61 f0       	breq	.+24     	; 0x1cca <__fp_cmp+0x46>
    1cb2:	23 2b       	or	r18, r19
    1cb4:	24 2b       	or	r18, r20
    1cb6:	25 2b       	or	r18, r21
    1cb8:	21 f4       	brne	.+8      	; 0x1cc2 <__fp_cmp+0x3e>
    1cba:	08 95       	ret
    1cbc:	0a 26       	eor	r0, r26
    1cbe:	09 f4       	brne	.+2      	; 0x1cc2 <__fp_cmp+0x3e>
    1cc0:	a1 40       	sbci	r26, 0x01	; 1
    1cc2:	a6 95       	lsr	r26
    1cc4:	8f ef       	ldi	r24, 0xFF	; 255
    1cc6:	81 1d       	adc	r24, r1
    1cc8:	81 1d       	adc	r24, r1
    1cca:	08 95       	ret

00001ccc <__fp_inf>:
    1ccc:	97 f9       	bld	r25, 7
    1cce:	9f 67       	ori	r25, 0x7F	; 127
    1cd0:	80 e8       	ldi	r24, 0x80	; 128
    1cd2:	70 e0       	ldi	r23, 0x00	; 0
    1cd4:	60 e0       	ldi	r22, 0x00	; 0
    1cd6:	08 95       	ret

00001cd8 <__fp_nan>:
    1cd8:	9f ef       	ldi	r25, 0xFF	; 255
    1cda:	80 ec       	ldi	r24, 0xC0	; 192
    1cdc:	08 95       	ret

00001cde <__fp_pscA>:
    1cde:	00 24       	eor	r0, r0
    1ce0:	0a 94       	dec	r0
    1ce2:	16 16       	cp	r1, r22
    1ce4:	17 06       	cpc	r1, r23
    1ce6:	18 06       	cpc	r1, r24
    1ce8:	09 06       	cpc	r0, r25
    1cea:	08 95       	ret

00001cec <__fp_pscB>:
    1cec:	00 24       	eor	r0, r0
    1cee:	0a 94       	dec	r0
    1cf0:	12 16       	cp	r1, r18
    1cf2:	13 06       	cpc	r1, r19
    1cf4:	14 06       	cpc	r1, r20
    1cf6:	05 06       	cpc	r0, r21
    1cf8:	08 95       	ret

00001cfa <__fp_round>:
    1cfa:	09 2e       	mov	r0, r25
    1cfc:	03 94       	inc	r0
    1cfe:	00 0c       	add	r0, r0
    1d00:	11 f4       	brne	.+4      	; 0x1d06 <__fp_round+0xc>
    1d02:	88 23       	and	r24, r24
    1d04:	52 f0       	brmi	.+20     	; 0x1d1a <__fp_round+0x20>
    1d06:	bb 0f       	add	r27, r27
    1d08:	40 f4       	brcc	.+16     	; 0x1d1a <__fp_round+0x20>
    1d0a:	bf 2b       	or	r27, r31
    1d0c:	11 f4       	brne	.+4      	; 0x1d12 <__fp_round+0x18>
    1d0e:	60 ff       	sbrs	r22, 0
    1d10:	04 c0       	rjmp	.+8      	; 0x1d1a <__fp_round+0x20>
    1d12:	6f 5f       	subi	r22, 0xFF	; 255
    1d14:	7f 4f       	sbci	r23, 0xFF	; 255
    1d16:	8f 4f       	sbci	r24, 0xFF	; 255
    1d18:	9f 4f       	sbci	r25, 0xFF	; 255
    1d1a:	08 95       	ret

00001d1c <__fp_split3>:
    1d1c:	57 fd       	sbrc	r21, 7
    1d1e:	90 58       	subi	r25, 0x80	; 128
    1d20:	44 0f       	add	r20, r20
    1d22:	55 1f       	adc	r21, r21
    1d24:	59 f0       	breq	.+22     	; 0x1d3c <__fp_splitA+0x10>
    1d26:	5f 3f       	cpi	r21, 0xFF	; 255
    1d28:	71 f0       	breq	.+28     	; 0x1d46 <__fp_splitA+0x1a>
    1d2a:	47 95       	ror	r20

00001d2c <__fp_splitA>:
    1d2c:	88 0f       	add	r24, r24
    1d2e:	97 fb       	bst	r25, 7
    1d30:	99 1f       	adc	r25, r25
    1d32:	61 f0       	breq	.+24     	; 0x1d4c <__fp_splitA+0x20>
    1d34:	9f 3f       	cpi	r25, 0xFF	; 255
    1d36:	79 f0       	breq	.+30     	; 0x1d56 <__fp_splitA+0x2a>
    1d38:	87 95       	ror	r24
    1d3a:	08 95       	ret
    1d3c:	12 16       	cp	r1, r18
    1d3e:	13 06       	cpc	r1, r19
    1d40:	14 06       	cpc	r1, r20
    1d42:	55 1f       	adc	r21, r21
    1d44:	f2 cf       	rjmp	.-28     	; 0x1d2a <__fp_split3+0xe>
    1d46:	46 95       	lsr	r20
    1d48:	f1 df       	rcall	.-30     	; 0x1d2c <__fp_splitA>
    1d4a:	08 c0       	rjmp	.+16     	; 0x1d5c <__fp_splitA+0x30>
    1d4c:	16 16       	cp	r1, r22
    1d4e:	17 06       	cpc	r1, r23
    1d50:	18 06       	cpc	r1, r24
    1d52:	99 1f       	adc	r25, r25
    1d54:	f1 cf       	rjmp	.-30     	; 0x1d38 <__fp_splitA+0xc>
    1d56:	86 95       	lsr	r24
    1d58:	71 05       	cpc	r23, r1
    1d5a:	61 05       	cpc	r22, r1
    1d5c:	08 94       	sec
    1d5e:	08 95       	ret

00001d60 <__fp_zero>:
    1d60:	e8 94       	clt

00001d62 <__fp_szero>:
    1d62:	bb 27       	eor	r27, r27
    1d64:	66 27       	eor	r22, r22
    1d66:	77 27       	eor	r23, r23
    1d68:	cb 01       	movw	r24, r22
    1d6a:	97 f9       	bld	r25, 7
    1d6c:	08 95       	ret

00001d6e <__gesf2>:
    1d6e:	0e 94 42 0e 	call	0x1c84	; 0x1c84 <__fp_cmp>
    1d72:	08 f4       	brcc	.+2      	; 0x1d76 <__gesf2+0x8>
    1d74:	8f ef       	ldi	r24, 0xFF	; 255
    1d76:	08 95       	ret

00001d78 <__mulsf3>:
    1d78:	0e 94 cf 0e 	call	0x1d9e	; 0x1d9e <__mulsf3x>
    1d7c:	0c 94 7d 0e 	jmp	0x1cfa	; 0x1cfa <__fp_round>
    1d80:	0e 94 6f 0e 	call	0x1cde	; 0x1cde <__fp_pscA>
    1d84:	38 f0       	brcs	.+14     	; 0x1d94 <__mulsf3+0x1c>
    1d86:	0e 94 76 0e 	call	0x1cec	; 0x1cec <__fp_pscB>
    1d8a:	20 f0       	brcs	.+8      	; 0x1d94 <__mulsf3+0x1c>
    1d8c:	95 23       	and	r25, r21
    1d8e:	11 f0       	breq	.+4      	; 0x1d94 <__mulsf3+0x1c>
    1d90:	0c 94 66 0e 	jmp	0x1ccc	; 0x1ccc <__fp_inf>
    1d94:	0c 94 6c 0e 	jmp	0x1cd8	; 0x1cd8 <__fp_nan>
    1d98:	11 24       	eor	r1, r1
    1d9a:	0c 94 b1 0e 	jmp	0x1d62	; 0x1d62 <__fp_szero>

00001d9e <__mulsf3x>:
    1d9e:	0e 94 8e 0e 	call	0x1d1c	; 0x1d1c <__fp_split3>
    1da2:	70 f3       	brcs	.-36     	; 0x1d80 <__mulsf3+0x8>

00001da4 <__mulsf3_pse>:
    1da4:	95 9f       	mul	r25, r21
    1da6:	c1 f3       	breq	.-16     	; 0x1d98 <__mulsf3+0x20>
    1da8:	95 0f       	add	r25, r21
    1daa:	50 e0       	ldi	r21, 0x00	; 0
    1dac:	55 1f       	adc	r21, r21
    1dae:	62 9f       	mul	r22, r18
    1db0:	f0 01       	movw	r30, r0
    1db2:	72 9f       	mul	r23, r18
    1db4:	bb 27       	eor	r27, r27
    1db6:	f0 0d       	add	r31, r0
    1db8:	b1 1d       	adc	r27, r1
    1dba:	63 9f       	mul	r22, r19
    1dbc:	aa 27       	eor	r26, r26
    1dbe:	f0 0d       	add	r31, r0
    1dc0:	b1 1d       	adc	r27, r1
    1dc2:	aa 1f       	adc	r26, r26
    1dc4:	64 9f       	mul	r22, r20
    1dc6:	66 27       	eor	r22, r22
    1dc8:	b0 0d       	add	r27, r0
    1dca:	a1 1d       	adc	r26, r1
    1dcc:	66 1f       	adc	r22, r22
    1dce:	82 9f       	mul	r24, r18
    1dd0:	22 27       	eor	r18, r18
    1dd2:	b0 0d       	add	r27, r0
    1dd4:	a1 1d       	adc	r26, r1
    1dd6:	62 1f       	adc	r22, r18
    1dd8:	73 9f       	mul	r23, r19
    1dda:	b0 0d       	add	r27, r0
    1ddc:	a1 1d       	adc	r26, r1
    1dde:	62 1f       	adc	r22, r18
    1de0:	83 9f       	mul	r24, r19
    1de2:	a0 0d       	add	r26, r0
    1de4:	61 1d       	adc	r22, r1
    1de6:	22 1f       	adc	r18, r18
    1de8:	74 9f       	mul	r23, r20
    1dea:	33 27       	eor	r19, r19
    1dec:	a0 0d       	add	r26, r0
    1dee:	61 1d       	adc	r22, r1
    1df0:	23 1f       	adc	r18, r19
    1df2:	84 9f       	mul	r24, r20
    1df4:	60 0d       	add	r22, r0
    1df6:	21 1d       	adc	r18, r1
    1df8:	82 2f       	mov	r24, r18
    1dfa:	76 2f       	mov	r23, r22
    1dfc:	6a 2f       	mov	r22, r26
    1dfe:	11 24       	eor	r1, r1
    1e00:	9f 57       	subi	r25, 0x7F	; 127
    1e02:	50 40       	sbci	r21, 0x00	; 0
    1e04:	9a f0       	brmi	.+38     	; 0x1e2c <__mulsf3_pse+0x88>
    1e06:	f1 f0       	breq	.+60     	; 0x1e44 <__mulsf3_pse+0xa0>
    1e08:	88 23       	and	r24, r24
    1e0a:	4a f0       	brmi	.+18     	; 0x1e1e <__mulsf3_pse+0x7a>
    1e0c:	ee 0f       	add	r30, r30
    1e0e:	ff 1f       	adc	r31, r31
    1e10:	bb 1f       	adc	r27, r27
    1e12:	66 1f       	adc	r22, r22
    1e14:	77 1f       	adc	r23, r23
    1e16:	88 1f       	adc	r24, r24
    1e18:	91 50       	subi	r25, 0x01	; 1
    1e1a:	50 40       	sbci	r21, 0x00	; 0
    1e1c:	a9 f7       	brne	.-22     	; 0x1e08 <__mulsf3_pse+0x64>
    1e1e:	9e 3f       	cpi	r25, 0xFE	; 254
    1e20:	51 05       	cpc	r21, r1
    1e22:	80 f0       	brcs	.+32     	; 0x1e44 <__mulsf3_pse+0xa0>
    1e24:	0c 94 66 0e 	jmp	0x1ccc	; 0x1ccc <__fp_inf>
    1e28:	0c 94 b1 0e 	jmp	0x1d62	; 0x1d62 <__fp_szero>
    1e2c:	5f 3f       	cpi	r21, 0xFF	; 255
    1e2e:	e4 f3       	brlt	.-8      	; 0x1e28 <__mulsf3_pse+0x84>
    1e30:	98 3e       	cpi	r25, 0xE8	; 232
    1e32:	d4 f3       	brlt	.-12     	; 0x1e28 <__mulsf3_pse+0x84>
    1e34:	86 95       	lsr	r24
    1e36:	77 95       	ror	r23
    1e38:	67 95       	ror	r22
    1e3a:	b7 95       	ror	r27
    1e3c:	f7 95       	ror	r31
    1e3e:	e7 95       	ror	r30
    1e40:	9f 5f       	subi	r25, 0xFF	; 255
    1e42:	c1 f7       	brne	.-16     	; 0x1e34 <__mulsf3_pse+0x90>
    1e44:	fe 2b       	or	r31, r30
    1e46:	88 0f       	add	r24, r24
    1e48:	91 1d       	adc	r25, r1
    1e4a:	96 95       	lsr	r25
    1e4c:	87 95       	ror	r24
    1e4e:	97 f9       	bld	r25, 7
    1e50:	08 95       	ret

00001e52 <__udivmodsi4>:
    1e52:	a1 e2       	ldi	r26, 0x21	; 33
    1e54:	1a 2e       	mov	r1, r26
    1e56:	aa 1b       	sub	r26, r26
    1e58:	bb 1b       	sub	r27, r27
    1e5a:	fd 01       	movw	r30, r26
    1e5c:	0d c0       	rjmp	.+26     	; 0x1e78 <__udivmodsi4_ep>

00001e5e <__udivmodsi4_loop>:
    1e5e:	aa 1f       	adc	r26, r26
    1e60:	bb 1f       	adc	r27, r27
    1e62:	ee 1f       	adc	r30, r30
    1e64:	ff 1f       	adc	r31, r31
    1e66:	a2 17       	cp	r26, r18
    1e68:	b3 07       	cpc	r27, r19
    1e6a:	e4 07       	cpc	r30, r20
    1e6c:	f5 07       	cpc	r31, r21
    1e6e:	20 f0       	brcs	.+8      	; 0x1e78 <__udivmodsi4_ep>
    1e70:	a2 1b       	sub	r26, r18
    1e72:	b3 0b       	sbc	r27, r19
    1e74:	e4 0b       	sbc	r30, r20
    1e76:	f5 0b       	sbc	r31, r21

00001e78 <__udivmodsi4_ep>:
    1e78:	66 1f       	adc	r22, r22
    1e7a:	77 1f       	adc	r23, r23
    1e7c:	88 1f       	adc	r24, r24
    1e7e:	99 1f       	adc	r25, r25
    1e80:	1a 94       	dec	r1
    1e82:	69 f7       	brne	.-38     	; 0x1e5e <__udivmodsi4_loop>
    1e84:	60 95       	com	r22
    1e86:	70 95       	com	r23
    1e88:	80 95       	com	r24
    1e8a:	90 95       	com	r25
    1e8c:	9b 01       	movw	r18, r22
    1e8e:	ac 01       	movw	r20, r24
    1e90:	bd 01       	movw	r22, r26
    1e92:	cf 01       	movw	r24, r30
    1e94:	08 95       	ret

00001e96 <__umulhisi3>:
    1e96:	a2 9f       	mul	r26, r18
    1e98:	b0 01       	movw	r22, r0
    1e9a:	b3 9f       	mul	r27, r19
    1e9c:	c0 01       	movw	r24, r0
    1e9e:	a3 9f       	mul	r26, r19
    1ea0:	70 0d       	add	r23, r0
    1ea2:	81 1d       	adc	r24, r1
    1ea4:	11 24       	eor	r1, r1
    1ea6:	91 1d       	adc	r25, r1
    1ea8:	b2 9f       	mul	r27, r18
    1eaa:	70 0d       	add	r23, r0
    1eac:	81 1d       	adc	r24, r1
    1eae:	11 24       	eor	r1, r1
    1eb0:	91 1d       	adc	r25, r1
    1eb2:	08 95       	ret

00001eb4 <__muldi3>:
    1eb4:	df 93       	push	r29
    1eb6:	cf 93       	push	r28
    1eb8:	1f 93       	push	r17
    1eba:	0f 93       	push	r16
    1ebc:	9a 9d       	mul	r25, r10
    1ebe:	f0 2d       	mov	r31, r0
    1ec0:	21 9f       	mul	r18, r17
    1ec2:	f0 0d       	add	r31, r0
    1ec4:	8b 9d       	mul	r24, r11
    1ec6:	f0 0d       	add	r31, r0
    1ec8:	8a 9d       	mul	r24, r10
    1eca:	e0 2d       	mov	r30, r0
    1ecc:	f1 0d       	add	r31, r1
    1ece:	03 9f       	mul	r16, r19
    1ed0:	f0 0d       	add	r31, r0
    1ed2:	02 9f       	mul	r16, r18
    1ed4:	e0 0d       	add	r30, r0
    1ed6:	f1 1d       	adc	r31, r1
    1ed8:	4e 9d       	mul	r20, r14
    1eda:	e0 0d       	add	r30, r0
    1edc:	f1 1d       	adc	r31, r1
    1ede:	5e 9d       	mul	r21, r14
    1ee0:	f0 0d       	add	r31, r0
    1ee2:	4f 9d       	mul	r20, r15
    1ee4:	f0 0d       	add	r31, r0
    1ee6:	7f 93       	push	r23
    1ee8:	6f 93       	push	r22
    1eea:	bf 92       	push	r11
    1eec:	af 92       	push	r10
    1eee:	5f 93       	push	r21
    1ef0:	4f 93       	push	r20
    1ef2:	d5 01       	movw	r26, r10
    1ef4:	0e 94 4b 0f 	call	0x1e96	; 0x1e96 <__umulhisi3>
    1ef8:	8b 01       	movw	r16, r22
    1efa:	ac 01       	movw	r20, r24
    1efc:	d7 01       	movw	r26, r14
    1efe:	0e 94 4b 0f 	call	0x1e96	; 0x1e96 <__umulhisi3>
    1f02:	eb 01       	movw	r28, r22
    1f04:	e8 0f       	add	r30, r24
    1f06:	f9 1f       	adc	r31, r25
    1f08:	d6 01       	movw	r26, r12
    1f0a:	0e 94 aa 0f 	call	0x1f54	; 0x1f54 <__muldi3_6>
    1f0e:	2f 91       	pop	r18
    1f10:	3f 91       	pop	r19
    1f12:	d6 01       	movw	r26, r12
    1f14:	0e 94 4b 0f 	call	0x1e96	; 0x1e96 <__umulhisi3>
    1f18:	c6 0f       	add	r28, r22
    1f1a:	d7 1f       	adc	r29, r23
    1f1c:	e8 1f       	adc	r30, r24
    1f1e:	f9 1f       	adc	r31, r25
    1f20:	af 91       	pop	r26
    1f22:	bf 91       	pop	r27
    1f24:	0e 94 aa 0f 	call	0x1f54	; 0x1f54 <__muldi3_6>
    1f28:	2f 91       	pop	r18
    1f2a:	3f 91       	pop	r19
    1f2c:	0e 94 4b 0f 	call	0x1e96	; 0x1e96 <__umulhisi3>
    1f30:	c6 0f       	add	r28, r22
    1f32:	d7 1f       	adc	r29, r23
    1f34:	e8 1f       	adc	r30, r24
    1f36:	f9 1f       	adc	r31, r25
    1f38:	d6 01       	movw	r26, r12
    1f3a:	0e 94 4b 0f 	call	0x1e96	; 0x1e96 <__umulhisi3>
    1f3e:	e6 0f       	add	r30, r22
    1f40:	f7 1f       	adc	r31, r23
    1f42:	98 01       	movw	r18, r16
    1f44:	be 01       	movw	r22, r28
    1f46:	cf 01       	movw	r24, r30
    1f48:	11 24       	eor	r1, r1
    1f4a:	0f 91       	pop	r16
    1f4c:	1f 91       	pop	r17
    1f4e:	cf 91       	pop	r28
    1f50:	df 91       	pop	r29
    1f52:	08 95       	ret

00001f54 <__muldi3_6>:
    1f54:	0e 94 4b 0f 	call	0x1e96	; 0x1e96 <__umulhisi3>
    1f58:	46 0f       	add	r20, r22
    1f5a:	57 1f       	adc	r21, r23
    1f5c:	c8 1f       	adc	r28, r24
    1f5e:	d9 1f       	adc	r29, r25
    1f60:	08 f4       	brcc	.+2      	; 0x1f64 <__muldi3_6+0x10>
    1f62:	31 96       	adiw	r30, 0x01	; 1
    1f64:	08 95       	ret

00001f66 <__umoddi3>:
    1f66:	68 94       	set
    1f68:	01 c0       	rjmp	.+2      	; 0x1f6c <__udivdi3_umoddi3>

00001f6a <__udivdi3>:
    1f6a:	e8 94       	clt

00001f6c <__udivdi3_umoddi3>:
    1f6c:	8f 92       	push	r8
    1f6e:	9f 92       	push	r9
    1f70:	cf 93       	push	r28
    1f72:	df 93       	push	r29
    1f74:	0e 94 c1 0f 	call	0x1f82	; 0x1f82 <__udivmod64>
    1f78:	df 91       	pop	r29
    1f7a:	cf 91       	pop	r28
    1f7c:	9f 90       	pop	r9
    1f7e:	8f 90       	pop	r8
    1f80:	08 95       	ret

00001f82 <__udivmod64>:
    1f82:	88 24       	eor	r8, r8
    1f84:	99 24       	eor	r9, r9
    1f86:	f4 01       	movw	r30, r8
    1f88:	e4 01       	movw	r28, r8
    1f8a:	b0 e4       	ldi	r27, 0x40	; 64
    1f8c:	9f 93       	push	r25
    1f8e:	aa 27       	eor	r26, r26
    1f90:	9a 15       	cp	r25, r10
    1f92:	8b 04       	cpc	r8, r11
    1f94:	9c 04       	cpc	r9, r12
    1f96:	ed 05       	cpc	r30, r13
    1f98:	fe 05       	cpc	r31, r14
    1f9a:	cf 05       	cpc	r28, r15
    1f9c:	d0 07       	cpc	r29, r16
    1f9e:	a1 07       	cpc	r26, r17
    1fa0:	98 f4       	brcc	.+38     	; 0x1fc8 <__udivmod64+0x46>
    1fa2:	ad 2f       	mov	r26, r29
    1fa4:	dc 2f       	mov	r29, r28
    1fa6:	cf 2f       	mov	r28, r31
    1fa8:	fe 2f       	mov	r31, r30
    1faa:	e9 2d       	mov	r30, r9
    1fac:	98 2c       	mov	r9, r8
    1fae:	89 2e       	mov	r8, r25
    1fb0:	98 2f       	mov	r25, r24
    1fb2:	87 2f       	mov	r24, r23
    1fb4:	76 2f       	mov	r23, r22
    1fb6:	65 2f       	mov	r22, r21
    1fb8:	54 2f       	mov	r21, r20
    1fba:	43 2f       	mov	r20, r19
    1fbc:	32 2f       	mov	r19, r18
    1fbe:	22 27       	eor	r18, r18
    1fc0:	b8 50       	subi	r27, 0x08	; 8
    1fc2:	31 f7       	brne	.-52     	; 0x1f90 <__udivmod64+0xe>
    1fc4:	bf 91       	pop	r27
    1fc6:	27 c0       	rjmp	.+78     	; 0x2016 <__udivmod64+0x94>
    1fc8:	1b 2e       	mov	r1, r27
    1fca:	bf 91       	pop	r27
    1fcc:	bb 27       	eor	r27, r27
    1fce:	22 0f       	add	r18, r18
    1fd0:	33 1f       	adc	r19, r19
    1fd2:	44 1f       	adc	r20, r20
    1fd4:	55 1f       	adc	r21, r21
    1fd6:	66 1f       	adc	r22, r22
    1fd8:	77 1f       	adc	r23, r23
    1fda:	88 1f       	adc	r24, r24
    1fdc:	99 1f       	adc	r25, r25
    1fde:	88 1c       	adc	r8, r8
    1fe0:	99 1c       	adc	r9, r9
    1fe2:	ee 1f       	adc	r30, r30
    1fe4:	ff 1f       	adc	r31, r31
    1fe6:	cc 1f       	adc	r28, r28
    1fe8:	dd 1f       	adc	r29, r29
    1fea:	aa 1f       	adc	r26, r26
    1fec:	bb 1f       	adc	r27, r27
    1fee:	8a 14       	cp	r8, r10
    1ff0:	9b 04       	cpc	r9, r11
    1ff2:	ec 05       	cpc	r30, r12
    1ff4:	fd 05       	cpc	r31, r13
    1ff6:	ce 05       	cpc	r28, r14
    1ff8:	df 05       	cpc	r29, r15
    1ffa:	a0 07       	cpc	r26, r16
    1ffc:	b1 07       	cpc	r27, r17
    1ffe:	48 f0       	brcs	.+18     	; 0x2012 <__udivmod64+0x90>
    2000:	8a 18       	sub	r8, r10
    2002:	9b 08       	sbc	r9, r11
    2004:	ec 09       	sbc	r30, r12
    2006:	fd 09       	sbc	r31, r13
    2008:	ce 09       	sbc	r28, r14
    200a:	df 09       	sbc	r29, r15
    200c:	a0 0b       	sbc	r26, r16
    200e:	b1 0b       	sbc	r27, r17
    2010:	21 60       	ori	r18, 0x01	; 1
    2012:	1a 94       	dec	r1
    2014:	e1 f6       	brne	.-72     	; 0x1fce <__udivmod64+0x4c>
    2016:	2e f4       	brtc	.+10     	; 0x2022 <__udivmod64+0xa0>
    2018:	94 01       	movw	r18, r8
    201a:	af 01       	movw	r20, r30
    201c:	be 01       	movw	r22, r28
    201e:	cd 01       	movw	r24, r26
    2020:	00 0c       	add	r0, r0
    2022:	08 95       	ret

00002024 <__ashldi3>:
    2024:	0f 93       	push	r16
    2026:	08 30       	cpi	r16, 0x08	; 8
    2028:	90 f0       	brcs	.+36     	; 0x204e <__ashldi3+0x2a>
    202a:	98 2f       	mov	r25, r24
    202c:	87 2f       	mov	r24, r23
    202e:	76 2f       	mov	r23, r22
    2030:	65 2f       	mov	r22, r21
    2032:	54 2f       	mov	r21, r20
    2034:	43 2f       	mov	r20, r19
    2036:	32 2f       	mov	r19, r18
    2038:	22 27       	eor	r18, r18
    203a:	08 50       	subi	r16, 0x08	; 8
    203c:	f4 cf       	rjmp	.-24     	; 0x2026 <__ashldi3+0x2>
    203e:	22 0f       	add	r18, r18
    2040:	33 1f       	adc	r19, r19
    2042:	44 1f       	adc	r20, r20
    2044:	55 1f       	adc	r21, r21
    2046:	66 1f       	adc	r22, r22
    2048:	77 1f       	adc	r23, r23
    204a:	88 1f       	adc	r24, r24
    204c:	99 1f       	adc	r25, r25
    204e:	0a 95       	dec	r16
    2050:	b2 f7       	brpl	.-20     	; 0x203e <__ashldi3+0x1a>
    2052:	0f 91       	pop	r16
    2054:	08 95       	ret

00002056 <__adddi3>:
    2056:	2a 0d       	add	r18, r10
    2058:	3b 1d       	adc	r19, r11
    205a:	4c 1d       	adc	r20, r12
    205c:	5d 1d       	adc	r21, r13
    205e:	6e 1d       	adc	r22, r14
    2060:	7f 1d       	adc	r23, r15
    2062:	80 1f       	adc	r24, r16
    2064:	91 1f       	adc	r25, r17
    2066:	08 95       	ret

00002068 <__subdi3>:
    2068:	2a 19       	sub	r18, r10
    206a:	3b 09       	sbc	r19, r11
    206c:	4c 09       	sbc	r20, r12
    206e:	5d 09       	sbc	r21, r13
    2070:	6e 09       	sbc	r22, r14
    2072:	7f 09       	sbc	r23, r15
    2074:	80 0b       	sbc	r24, r16
    2076:	91 0b       	sbc	r25, r17
    2078:	08 95       	ret

0000207a <__cmpdi2_s8>:
    207a:	00 24       	eor	r0, r0
    207c:	a7 fd       	sbrc	r26, 7
    207e:	00 94       	com	r0
    2080:	2a 17       	cp	r18, r26
    2082:	30 05       	cpc	r19, r0
    2084:	40 05       	cpc	r20, r0
    2086:	50 05       	cpc	r21, r0
    2088:	60 05       	cpc	r22, r0
    208a:	70 05       	cpc	r23, r0
    208c:	80 05       	cpc	r24, r0
    208e:	90 05       	cpc	r25, r0
    2090:	08 95       	ret

00002092 <_exit>:
    2092:	f8 94       	cli

00002094 <__stop_program>:
    2094:	ff cf       	rjmp	.-2      	; 0x2094 <__stop_program>
