
atmega32_ECU.elf:     file format elf32-avr

Sections:
Idx Name          Size      VMA       LMA       File off  Algn
  0 .text         00000d90  00000000  00000000  00000094  2**1
                  CONTENTS, ALLOC, LOAD, READONLY, CODE
  1 .data         00000026  00800060  00000d90  00000e24  2**0
                  CONTENTS, ALLOC, LOAD, DATA
  2 .bss          0000001c  00800086  00800086  00000e4a  2**0
                  ALLOC
  3 .comment      00000030  00000000  00000000  00000e4a  2**0
                  CONTENTS, READONLY
  4 .note.gnu.avr.deviceinfo 0000003c  00000000  00000000  00000e7c  2**2
                  CONTENTS, READONLY
  5 .debug_info   000004e6  00000000  00000000  00000eb8  2**0
                  CONTENTS, READONLY, DEBUGGING
  6 .debug_abbrev 000004a3  00000000  00000000  0000139e  2**0
                  CONTENTS, READONLY, DEBUGGING
  7 .debug_line   00000116  00000000  00000000  00001841  2**0
                  CONTENTS, READONLY, DEBUGGING
  8 .debug_str    00000196  00000000  00000000  00001957  2**0
                  CONTENTS, READONLY, DEBUGGING

Disassembly of section .text:

00000000 <__vectors>:
   0:	0c 94 3a 00 	jmp	0x74	; 0x74 <__ctors_end>
   4:	0c 94 25 03 	jmp	0x64a	; 0x64a <__vector_1>
   8:	0c 94 4c 03 	jmp	0x698	; 0x698 <__vector_2>
   c:	0c 94 73 03 	jmp	0x6e6	; 0x6e6 <__vector_3>
  10:	0c 94 57 00 	jmp	0xae	; 0xae <__bad_interrupt>
  14:	0c 94 57 00 	jmp	0xae	; 0xae <__bad_interrupt>
  18:	0c 94 47 05 	jmp	0xa8e	; 0xa8e <__vector_6>
  1c:	0c 94 d2 04 	jmp	0x9a4	; 0x9a4 <__vector_7>
  20:	0c 94 f9 04 	jmp	0x9f2	; 0x9f2 <__vector_8>
  24:	0c 94 20 05 	jmp	0xa40	; 0xa40 <__vector_9>
  28:	0c 94 9a 03 	jmp	0x734	; 0x734 <__vector_10>
  2c:	0c 94 c1 03 	jmp	0x782	; 0x782 <__vector_11>
  30:	0c 94 57 00 	jmp	0xae	; 0xae <__bad_interrupt>
  34:	0c 94 57 00 	jmp	0xae	; 0xae <__bad_interrupt>
  38:	0c 94 57 00 	jmp	0xae	; 0xae <__bad_interrupt>
  3c:	0c 94 57 00 	jmp	0xae	; 0xae <__bad_interrupt>
  40:	0c 94 94 01 	jmp	0x328	; 0x328 <__vector_16>
  44:	0c 94 57 00 	jmp	0xae	; 0xae <__bad_interrupt>
  48:	0c 94 57 00 	jmp	0xae	; 0xae <__bad_interrupt>
  4c:	0c 94 57 00 	jmp	0xae	; 0xae <__bad_interrupt>
  50:	0c 94 57 00 	jmp	0xae	; 0xae <__bad_interrupt>
  54:	24 04       	cpc	r2, r4
  56:	27 04       	cpc	r2, r7
  58:	2a 04       	cpc	r2, r10
  5a:	2d 04       	cpc	r2, r13
  5c:	30 04       	cpc	r3, r0
  5e:	39 04       	cpc	r3, r9
  60:	3f 04       	cpc	r3, r15
  62:	42 04       	cpc	r4, r2
  64:	45 04       	cpc	r4, r5
  66:	4b 04       	cpc	r4, r11
  68:	54 04       	cpc	r5, r4
  6a:	5a 04       	cpc	r5, r10
  6c:	60 04       	cpc	r6, r0
  6e:	7b 04       	cpc	r7, r11
  70:	63 04       	cpc	r6, r3
  72:	6f 04       	cpc	r6, r15

00000074 <__ctors_end>:
  74:	11 24       	eor	r1, r1
  76:	1f be       	out	0x3f, r1	; 63
  78:	cf e5       	ldi	r28, 0x5F	; 95
  7a:	d8 e0       	ldi	r29, 0x08	; 8
  7c:	de bf       	out	0x3e, r29	; 62
  7e:	cd bf       	out	0x3d, r28	; 61

00000080 <__do_copy_data>:
  80:	10 e0       	ldi	r17, 0x00	; 0
  82:	a0 e6       	ldi	r26, 0x60	; 96
  84:	b0 e0       	ldi	r27, 0x00	; 0
  86:	e0 e9       	ldi	r30, 0x90	; 144
  88:	fd e0       	ldi	r31, 0x0D	; 13
  8a:	02 c0       	rjmp	.+4      	; 0x90 <__do_copy_data+0x10>
  8c:	05 90       	lpm	r0, Z+
  8e:	0d 92       	st	X+, r0
  90:	a6 38       	cpi	r26, 0x86	; 134
  92:	b1 07       	cpc	r27, r17
  94:	d9 f7       	brne	.-10     	; 0x8c <__do_copy_data+0xc>

00000096 <__do_clear_bss>:
  96:	20 e0       	ldi	r18, 0x00	; 0
  98:	a6 e8       	ldi	r26, 0x86	; 134
  9a:	b0 e0       	ldi	r27, 0x00	; 0
  9c:	01 c0       	rjmp	.+2      	; 0xa0 <.do_clear_bss_start>

0000009e <.do_clear_bss_loop>:
  9e:	1d 92       	st	X+, r1

000000a0 <.do_clear_bss_start>:
  a0:	a2 3a       	cpi	r26, 0xA2	; 162
  a2:	b2 07       	cpc	r27, r18
  a4:	e1 f7       	brne	.-8      	; 0x9e <.do_clear_bss_loop>
  a6:	0e 94 30 01 	call	0x260	; 0x260 <main>
  aa:	0c 94 c6 06 	jmp	0xd8c	; 0xd8c <_exit>

000000ae <__bad_interrupt>:
  ae:	0c 94 00 00 	jmp	0	; 0x0 <__vectors>

000000b2 <LCD_WriteCommand>:
  b2:	cf 93       	push	r28
  b4:	c8 2f       	mov	r28, r24
  b6:	60 e0       	ldi	r22, 0x00	; 0
  b8:	89 e1       	ldi	r24, 0x19	; 25
  ba:	0e 94 9a 02 	call	0x534	; 0x534 <DIO_WritePin>
  be:	6c 2f       	mov	r22, r28
  c0:	82 e0       	ldi	r24, 0x02	; 2
  c2:	0e 94 15 03 	call	0x62a	; 0x62a <DIO_WritePORT>
  c6:	61 e0       	ldi	r22, 0x01	; 1
  c8:	88 e1       	ldi	r24, 0x18	; 24
  ca:	0e 94 9a 02 	call	0x534	; 0x534 <DIO_WritePin>
  ce:	8f ec       	ldi	r24, 0xCF	; 207
  d0:	97 e0       	ldi	r25, 0x07	; 7
  d2:	01 97       	sbiw	r24, 0x01	; 1
  d4:	f1 f7       	brne	.-4      	; 0xd2 <LCD_WriteCommand+0x20>
  d6:	00 c0       	rjmp	.+0      	; 0xd8 <LCD_WriteCommand+0x26>
  d8:	00 00       	nop
  da:	60 e0       	ldi	r22, 0x00	; 0
  dc:	88 e1       	ldi	r24, 0x18	; 24
  de:	0e 94 9a 02 	call	0x534	; 0x534 <DIO_WritePin>
  e2:	8f ec       	ldi	r24, 0xCF	; 207
  e4:	97 e0       	ldi	r25, 0x07	; 7
  e6:	01 97       	sbiw	r24, 0x01	; 1
  e8:	f1 f7       	brne	.-4      	; 0xe6 <LCD_WriteCommand+0x34>
  ea:	00 c0       	rjmp	.+0      	; 0xec <LCD_WriteCommand+0x3a>
  ec:	00 00       	nop
  ee:	cf 91       	pop	r28
  f0:	08 95       	ret

000000f2 <LCD_WriteData>:
  f2:	cf 93       	push	r28
  f4:	c8 2f       	mov	r28, r24
  f6:	61 e0       	ldi	r22, 0x01	; 1
  f8:	89 e1       	ldi	r24, 0x19	; 25
  fa:	0e 94 9a 02 	call	0x534	; 0x534 <DIO_WritePin>
  fe:	6c 2f       	mov	r22, r28
 100:	82 e0       	ldi	r24, 0x02	; 2
 102:	0e 94 15 03 	call	0x62a	; 0x62a <DIO_WritePORT>
 106:	61 e0       	ldi	r22, 0x01	; 1
 108:	88 e1       	ldi	r24, 0x18	; 24
 10a:	0e 94 9a 02 	call	0x534	; 0x534 <DIO_WritePin>
 10e:	8f ec       	ldi	r24, 0xCF	; 207
 110:	97 e0       	ldi	r25, 0x07	; 7
 112:	01 97       	sbiw	r24, 0x01	; 1
 114:	f1 f7       	brne	.-4      	; 0x112 <LCD_WriteData+0x20>
 116:	00 c0       	rjmp	.+0      	; 0x118 <LCD_WriteData+0x26>
 118:	00 00       	nop
 11a:	60 e0       	ldi	r22, 0x00	; 0
 11c:	88 e1       	ldi	r24, 0x18	; 24
 11e:	0e 94 9a 02 	call	0x534	; 0x534 <DIO_WritePin>
 122:	8f ec       	ldi	r24, 0xCF	; 207
 124:	97 e0       	ldi	r25, 0x07	; 7
 126:	01 97       	sbiw	r24, 0x01	; 1
 128:	f1 f7       	brne	.-4      	; 0x126 <LCD_WriteData+0x34>
 12a:	00 c0       	rjmp	.+0      	; 0x12c <LCD_WriteData+0x3a>
 12c:	00 00       	nop
 12e:	cf 91       	pop	r28
 130:	08 95       	ret

00000132 <LCD_Init>:
 132:	2f e7       	ldi	r18, 0x7F	; 127
 134:	88 e3       	ldi	r24, 0x38	; 56
 136:	91 e0       	ldi	r25, 0x01	; 1
 138:	21 50       	subi	r18, 0x01	; 1
 13a:	80 40       	sbci	r24, 0x00	; 0
 13c:	90 40       	sbci	r25, 0x00	; 0
 13e:	e1 f7       	brne	.-8      	; 0x138 <LCD_Init+0x6>
 140:	00 c0       	rjmp	.+0      	; 0x142 <LCD_Init+0x10>
 142:	00 00       	nop
 144:	88 e3       	ldi	r24, 0x38	; 56
 146:	0e 94 59 00 	call	0xb2	; 0xb2 <LCD_WriteCommand>
 14a:	8c e0       	ldi	r24, 0x0C	; 12
 14c:	0e 94 59 00 	call	0xb2	; 0xb2 <LCD_WriteCommand>
 150:	81 e0       	ldi	r24, 0x01	; 1
 152:	0e 94 59 00 	call	0xb2	; 0xb2 <LCD_WriteCommand>
 156:	8f ec       	ldi	r24, 0xCF	; 207
 158:	97 e0       	ldi	r25, 0x07	; 7
 15a:	01 97       	sbiw	r24, 0x01	; 1
 15c:	f1 f7       	brne	.-4      	; 0x15a <LCD_Init+0x28>
 15e:	00 c0       	rjmp	.+0      	; 0x160 <LCD_Init+0x2e>
 160:	00 00       	nop
 162:	86 e0       	ldi	r24, 0x06	; 6
 164:	0c 94 59 00 	jmp	0xb2	; 0xb2 <LCD_WriteCommand>

00000168 <LCD_GoTo>:
 168:	81 11       	cpse	r24, r1
 16a:	03 c0       	rjmp	.+6      	; 0x172 <LCD_GoTo+0xa>
 16c:	86 2f       	mov	r24, r22
 16e:	80 68       	ori	r24, 0x80	; 128
 170:	04 c0       	rjmp	.+8      	; 0x17a <LCD_GoTo+0x12>
 172:	81 30       	cpi	r24, 0x01	; 1
 174:	21 f4       	brne	.+8      	; 0x17e <LCD_GoTo+0x16>
 176:	86 2f       	mov	r24, r22
 178:	80 6c       	ori	r24, 0xC0	; 192
 17a:	0c 94 59 00 	jmp	0xb2	; 0xb2 <LCD_WriteCommand>
 17e:	08 95       	ret

00000180 <LCD_WriteString>:
 180:	cf 93       	push	r28
 182:	df 93       	push	r29
 184:	ec 01       	movw	r28, r24
 186:	89 91       	ld	r24, Y+
 188:	88 23       	and	r24, r24
 18a:	19 f0       	breq	.+6      	; 0x192 <LCD_WriteString+0x12>
 18c:	0e 94 79 00 	call	0xf2	; 0xf2 <LCD_WriteData>
 190:	fa cf       	rjmp	.-12     	; 0x186 <LCD_WriteString+0x6>
 192:	df 91       	pop	r29
 194:	cf 91       	pop	r28
 196:	08 95       	ret

00000198 <LCD_WriteNumber_4Digit>:
 198:	0f 93       	push	r16
 19a:	1f 93       	push	r17
 19c:	cf 93       	push	r28
 19e:	df 93       	push	r29
 1a0:	8c 01       	movw	r16, r24
 1a2:	68 ee       	ldi	r22, 0xE8	; 232
 1a4:	73 e0       	ldi	r23, 0x03	; 3
 1a6:	0e 94 98 06 	call	0xd30	; 0xd30 <__divmodhi4>
 1aa:	cb 01       	movw	r24, r22
 1ac:	ca e0       	ldi	r28, 0x0A	; 10
 1ae:	d0 e0       	ldi	r29, 0x00	; 0
 1b0:	be 01       	movw	r22, r28
 1b2:	0e 94 98 06 	call	0xd30	; 0xd30 <__divmodhi4>
 1b6:	80 5d       	subi	r24, 0xD0	; 208
 1b8:	0e 94 79 00 	call	0xf2	; 0xf2 <LCD_WriteData>
 1bc:	c8 01       	movw	r24, r16
 1be:	64 e6       	ldi	r22, 0x64	; 100
 1c0:	70 e0       	ldi	r23, 0x00	; 0
 1c2:	0e 94 98 06 	call	0xd30	; 0xd30 <__divmodhi4>
 1c6:	cb 01       	movw	r24, r22
 1c8:	be 01       	movw	r22, r28
 1ca:	0e 94 98 06 	call	0xd30	; 0xd30 <__divmodhi4>
 1ce:	80 5d       	subi	r24, 0xD0	; 208
 1d0:	0e 94 79 00 	call	0xf2	; 0xf2 <LCD_WriteData>
 1d4:	c8 01       	movw	r24, r16
 1d6:	be 01       	movw	r22, r28
 1d8:	0e 94 98 06 	call	0xd30	; 0xd30 <__divmodhi4>
 1dc:	18 2f       	mov	r17, r24
 1de:	cb 01       	movw	r24, r22
 1e0:	be 01       	movw	r22, r28
 1e2:	0e 94 98 06 	call	0xd30	; 0xd30 <__divmodhi4>
 1e6:	80 5d       	subi	r24, 0xD0	; 208
 1e8:	0e 94 79 00 	call	0xf2	; 0xf2 <LCD_WriteData>
 1ec:	80 e3       	ldi	r24, 0x30	; 48
 1ee:	81 0f       	add	r24, r17
 1f0:	df 91       	pop	r29
 1f2:	cf 91       	pop	r28
 1f4:	1f 91       	pop	r17
 1f6:	0f 91       	pop	r16
 1f8:	0c 94 79 00 	jmp	0xf2	; 0xf2 <LCD_WriteData>

000001fc <overflowFunction>:
 1fc:	80 91 8a 00 	lds	r24, 0x008A	; 0x80008a <overflowCounter>
 200:	90 91 8b 00 	lds	r25, 0x008B	; 0x80008b <overflowCounter+0x1>
 204:	a0 91 8c 00 	lds	r26, 0x008C	; 0x80008c <overflowCounter+0x2>
 208:	b0 91 8d 00 	lds	r27, 0x008D	; 0x80008d <overflowCounter+0x3>
 20c:	01 96       	adiw	r24, 0x01	; 1
 20e:	a1 1d       	adc	r26, r1
 210:	b1 1d       	adc	r27, r1
 212:	80 93 8a 00 	sts	0x008A, r24	; 0x80008a <overflowCounter>
 216:	90 93 8b 00 	sts	0x008B, r25	; 0x80008b <overflowCounter+0x1>
 21a:	a0 93 8c 00 	sts	0x008C, r26	; 0x80008c <overflowCounter+0x2>
 21e:	b0 93 8d 00 	sts	0x008D, r27	; 0x80008d <overflowCounter+0x3>
 222:	08 95       	ret

00000224 <ICUFunction>:
 224:	80 91 60 00 	lds	r24, 0x0060	; 0x800060 <__DATA_REGION_ORIGIN__>
 228:	81 30       	cpi	r24, 0x01	; 1
 22a:	61 f4       	brne	.+24     	; 0x244 <ICUFunction+0x20>
 22c:	82 e0       	ldi	r24, 0x02	; 2
 22e:	80 93 60 00 	sts	0x0060, r24	; 0x800060 <__DATA_REGION_ORIGIN__>
 232:	86 b5       	in	r24, 0x26	; 38
 234:	97 b5       	in	r25, 0x27	; 39
 236:	90 93 89 00 	sts	0x0089, r25	; 0x800089 <ICUvalue1+0x1>
 23a:	80 93 88 00 	sts	0x0088, r24	; 0x800088 <ICUvalue1>
 23e:	80 e0       	ldi	r24, 0x00	; 0
 240:	0c 94 b0 04 	jmp	0x960	; 0x960 <TIMER1_ICPedgeMode>
 244:	82 30       	cpi	r24, 0x02	; 2
 246:	59 f4       	brne	.+22     	; 0x25e <ICUFunction+0x3a>
 248:	83 e0       	ldi	r24, 0x03	; 3
 24a:	80 93 60 00 	sts	0x0060, r24	; 0x800060 <__DATA_REGION_ORIGIN__>
 24e:	86 b5       	in	r24, 0x26	; 38
 250:	97 b5       	in	r25, 0x27	; 39
 252:	90 93 87 00 	sts	0x0087, r25	; 0x800087 <__data_end+0x1>
 256:	80 93 86 00 	sts	0x0086, r24	; 0x800086 <__data_end>
 25a:	0c 94 c4 04 	jmp	0x988	; 0x988 <TIMER1_timeStamp_interruptDisable>
 25e:	08 95       	ret

00000260 <main>:
 260:	0e 94 bb 01 	call	0x376	; 0x376 <DIO_Init>
 264:	20 e0       	ldi	r18, 0x00	; 0
 266:	40 e0       	ldi	r20, 0x00	; 0
 268:	60 e0       	ldi	r22, 0x00	; 0
 26a:	82 e0       	ldi	r24, 0x02	; 2
 26c:	0e 94 e8 03 	call	0x7d0	; 0x7d0 <TIMER1_Init>
 270:	81 e0       	ldi	r24, 0x01	; 1
 272:	0e 94 b0 04 	call	0x960	; 0x960 <TIMER1_ICPedgeMode>
 276:	0e 94 99 00 	call	0x132	; 0x132 <LCD_Init>
 27a:	78 94       	sei
 27c:	0e 94 c0 04 	call	0x980	; 0x980 <TIMER1_timeStamp_interruptEnable>
 280:	0e 94 bc 04 	call	0x978	; 0x978 <TIMER1_overflow_interruptEnable>
 284:	82 e1       	ldi	r24, 0x12	; 18
 286:	91 e0       	ldi	r25, 0x01	; 1
 288:	0e 94 cd 04 	call	0x99a	; 0x99a <TIMER1_timeStampInterruptSet>
 28c:	8e ef       	ldi	r24, 0xFE	; 254
 28e:	90 e0       	ldi	r25, 0x00	; 0
 290:	0e 94 c8 04 	call	0x990	; 0x990 <TIMER1_overflowInterruptSet>
 294:	1d bc       	out	0x2d, r1	; 45
 296:	1c bc       	out	0x2c, r1	; 44
 298:	61 e0       	ldi	r22, 0x01	; 1
 29a:	88 e0       	ldi	r24, 0x08	; 8
 29c:	0e 94 9a 02 	call	0x534	; 0x534 <DIO_WritePin>
 2a0:	8a e1       	ldi	r24, 0x1A	; 26
 2a2:	8a 95       	dec	r24
 2a4:	f1 f7       	brne	.-4      	; 0x2a2 <main+0x42>
 2a6:	00 c0       	rjmp	.+0      	; 0x2a8 <main+0x48>
 2a8:	60 e0       	ldi	r22, 0x00	; 0
 2aa:	88 e0       	ldi	r24, 0x08	; 8
 2ac:	0e 94 9a 02 	call	0x534	; 0x534 <DIO_WritePin>
 2b0:	80 91 60 00 	lds	r24, 0x0060	; 0x800060 <__DATA_REGION_ORIGIN__>
 2b4:	83 30       	cpi	r24, 0x03	; 3
 2b6:	f0 f3       	brcs	.-4      	; 0x2b4 <main+0x54>
 2b8:	60 91 86 00 	lds	r22, 0x0086	; 0x800086 <__data_end>
 2bc:	70 91 87 00 	lds	r23, 0x0087	; 0x800087 <__data_end+0x1>
 2c0:	80 91 88 00 	lds	r24, 0x0088	; 0x800088 <ICUvalue1>
 2c4:	90 91 89 00 	lds	r25, 0x0089	; 0x800089 <ICUvalue1+0x1>
 2c8:	68 1b       	sub	r22, r24
 2ca:	79 0b       	sbc	r23, r25
 2cc:	80 e0       	ldi	r24, 0x00	; 0
 2ce:	90 e0       	ldi	r25, 0x00	; 0
 2d0:	0e 94 9d 05 	call	0xb3a	; 0xb3a <__floatunsisf>
 2d4:	20 e0       	ldi	r18, 0x00	; 0
 2d6:	30 e0       	ldi	r19, 0x00	; 0
 2d8:	40 e0       	ldi	r20, 0x00	; 0
 2da:	5f e3       	ldi	r21, 0x3F	; 63
 2dc:	0e 94 2b 06 	call	0xc56	; 0xc56 <__mulsf3>
 2e0:	26 e9       	ldi	r18, 0x96	; 150
 2e2:	33 e4       	ldi	r19, 0x43	; 67
 2e4:	4b e0       	ldi	r20, 0x0B	; 11
 2e6:	5d e3       	ldi	r21, 0x3D	; 61
 2e8:	0e 94 2b 06 	call	0xc56	; 0xc56 <__mulsf3>
 2ec:	6b 01       	movw	r12, r22
 2ee:	7c 01       	movw	r14, r24
 2f0:	60 e0       	ldi	r22, 0x00	; 0
 2f2:	81 e0       	ldi	r24, 0x01	; 1
 2f4:	0e 94 b4 00 	call	0x168	; 0x168 <LCD_GoTo>
 2f8:	c7 01       	movw	r24, r14
 2fa:	b6 01       	movw	r22, r12
 2fc:	0e 94 6e 05 	call	0xadc	; 0xadc <__fixunssfsi>
 300:	cb 01       	movw	r24, r22
 302:	0e 94 cc 00 	call	0x198	; 0x198 <LCD_WriteNumber_4Digit>
 306:	81 e6       	ldi	r24, 0x61	; 97
 308:	90 e0       	ldi	r25, 0x00	; 0
 30a:	0e 94 c0 00 	call	0x180	; 0x180 <LCD_WriteString>
 30e:	83 e6       	ldi	r24, 0x63	; 99
 310:	90 e0       	ldi	r25, 0x00	; 0
 312:	0e 94 c0 00 	call	0x180	; 0x180 <LCD_WriteString>
 316:	81 e0       	ldi	r24, 0x01	; 1
 318:	80 93 60 00 	sts	0x0060, r24	; 0x800060 <__DATA_REGION_ORIGIN__>
 31c:	0e 94 c0 04 	call	0x980	; 0x980 <TIMER1_timeStamp_interruptEnable>
 320:	81 e0       	ldi	r24, 0x01	; 1
 322:	0e 94 b0 04 	call	0x960	; 0x960 <TIMER1_ICPedgeMode>
 326:	b6 cf       	rjmp	.-148    	; 0x294 <main+0x34>

00000328 <__vector_16>:
 328:	1f 92       	push	r1
 32a:	0f 92       	push	r0
 32c:	0f b6       	in	r0, 0x3f	; 63
 32e:	0f 92       	push	r0
 330:	11 24       	eor	r1, r1
 332:	2f 93       	push	r18
 334:	3f 93       	push	r19
 336:	4f 93       	push	r20
 338:	5f 93       	push	r21
 33a:	6f 93       	push	r22
 33c:	7f 93       	push	r23
 33e:	8f 93       	push	r24
 340:	9f 93       	push	r25
 342:	af 93       	push	r26
 344:	bf 93       	push	r27
 346:	ef 93       	push	r30
 348:	ff 93       	push	r31
 34a:	e0 91 8e 00 	lds	r30, 0x008E	; 0x80008e <funcptr>
 34e:	f0 91 8f 00 	lds	r31, 0x008F	; 0x80008f <funcptr+0x1>
 352:	09 95       	icall
 354:	ff 91       	pop	r31
 356:	ef 91       	pop	r30
 358:	bf 91       	pop	r27
 35a:	af 91       	pop	r26
 35c:	9f 91       	pop	r25
 35e:	8f 91       	pop	r24
 360:	7f 91       	pop	r23
 362:	6f 91       	pop	r22
 364:	5f 91       	pop	r21
 366:	4f 91       	pop	r20
 368:	3f 91       	pop	r19
 36a:	2f 91       	pop	r18
 36c:	0f 90       	pop	r0
 36e:	0f be       	out	0x3f, r0	; 63
 370:	0f 90       	pop	r0
 372:	1f 90       	pop	r1
 374:	18 95       	reti

00000376 <DIO_Init>:
 376:	cf 93       	push	r28
 378:	df 93       	push	r29
 37a:	e6 e6       	ldi	r30, 0x66	; 102
 37c:	f0 e0       	ldi	r31, 0x00	; 0
 37e:	20 ef       	ldi	r18, 0xF0	; 240
 380:	a8 ee       	ldi	r26, 0xE8	; 232
 382:	38 ef       	ldi	r19, 0xF8	; 248
 384:	40 e0       	ldi	r20, 0x00	; 0
 386:	50 e0       	ldi	r21, 0x00	; 0
 388:	81 e0       	ldi	r24, 0x01	; 1
 38a:	90 e0       	ldi	r25, 0x00	; 0
 38c:	71 91       	ld	r23, Z+
 38e:	71 11       	cpse	r23, r1
 390:	3c c0       	rjmp	.+120    	; 0x40a <__EEPROM_REGION_LENGTH__+0xa>
 392:	48 30       	cpi	r20, 0x08	; 8
 394:	78 f4       	brcc	.+30     	; 0x3b4 <DIO_Init+0x3e>
 396:	ba b3       	in	r27, 0x1a	; 26
 398:	ec 01       	movw	r28, r24
 39a:	04 2e       	mov	r0, r20
 39c:	02 c0       	rjmp	.+4      	; 0x3a2 <DIO_Init+0x2c>
 39e:	cc 0f       	add	r28, r28
 3a0:	dd 1f       	adc	r29, r29
 3a2:	0a 94       	dec	r0
 3a4:	e2 f7       	brpl	.-8      	; 0x39e <DIO_Init+0x28>
 3a6:	be 01       	movw	r22, r28
 3a8:	7b 2f       	mov	r23, r27
 3aa:	76 2b       	or	r23, r22
 3ac:	7a bb       	out	0x1a, r23	; 26
 3ae:	7b b3       	in	r23, 0x1b	; 27
 3b0:	60 95       	com	r22
 3b2:	3e c0       	rjmp	.+124    	; 0x430 <__EEPROM_REGION_LENGTH__+0x30>
 3b4:	38 30       	cpi	r19, 0x08	; 8
 3b6:	68 f4       	brcc	.+26     	; 0x3d2 <DIO_Init+0x5c>
 3b8:	b7 b3       	in	r27, 0x17	; 23
 3ba:	bc 01       	movw	r22, r24
 3bc:	03 2e       	mov	r0, r19
 3be:	01 c0       	rjmp	.+2      	; 0x3c2 <DIO_Init+0x4c>
 3c0:	66 0f       	add	r22, r22
 3c2:	0a 94       	dec	r0
 3c4:	ea f7       	brpl	.-6      	; 0x3c0 <DIO_Init+0x4a>
 3c6:	7b 2f       	mov	r23, r27
 3c8:	76 2b       	or	r23, r22
 3ca:	77 bb       	out	0x17, r23	; 23
 3cc:	78 b3       	in	r23, 0x18	; 24
 3ce:	60 95       	com	r22
 3d0:	3f c0       	rjmp	.+126    	; 0x450 <__EEPROM_REGION_LENGTH__+0x50>
 3d2:	28 30       	cpi	r18, 0x08	; 8
 3d4:	68 f4       	brcc	.+26     	; 0x3f0 <DIO_Init+0x7a>
 3d6:	b4 b3       	in	r27, 0x14	; 20
 3d8:	bc 01       	movw	r22, r24
 3da:	02 2e       	mov	r0, r18
 3dc:	01 c0       	rjmp	.+2      	; 0x3e0 <DIO_Init+0x6a>
 3de:	66 0f       	add	r22, r22
 3e0:	0a 94       	dec	r0
 3e2:	ea f7       	brpl	.-6      	; 0x3de <DIO_Init+0x68>
 3e4:	7b 2f       	mov	r23, r27
 3e6:	76 2b       	or	r23, r22
 3e8:	74 bb       	out	0x14, r23	; 20
 3ea:	75 b3       	in	r23, 0x15	; 21
 3ec:	60 95       	com	r22
 3ee:	40 c0       	rjmp	.+128    	; 0x470 <__EEPROM_REGION_LENGTH__+0x70>
 3f0:	b1 b3       	in	r27, 0x11	; 17
 3f2:	bc 01       	movw	r22, r24
 3f4:	0a 2e       	mov	r0, r26
 3f6:	01 c0       	rjmp	.+2      	; 0x3fa <DIO_Init+0x84>
 3f8:	66 0f       	add	r22, r22
 3fa:	0a 94       	dec	r0
 3fc:	ea f7       	brpl	.-6      	; 0x3f8 <DIO_Init+0x82>
 3fe:	7b 2f       	mov	r23, r27
 400:	76 2b       	or	r23, r22
 402:	71 bb       	out	0x11, r23	; 17
 404:	72 b3       	in	r23, 0x12	; 18
 406:	60 95       	com	r22
 408:	41 c0       	rjmp	.+130    	; 0x48c <__EEPROM_REGION_LENGTH__+0x8c>
 40a:	71 30       	cpi	r23, 0x01	; 1
 40c:	09 f0       	breq	.+2      	; 0x410 <__EEPROM_REGION_LENGTH__+0x10>
 40e:	40 c0       	rjmp	.+128    	; 0x490 <__EEPROM_REGION_LENGTH__+0x90>
 410:	48 30       	cpi	r20, 0x08	; 8
 412:	80 f4       	brcc	.+32     	; 0x434 <__EEPROM_REGION_LENGTH__+0x34>
 414:	ba b3       	in	r27, 0x1a	; 26
 416:	ec 01       	movw	r28, r24
 418:	04 2e       	mov	r0, r20
 41a:	02 c0       	rjmp	.+4      	; 0x420 <__EEPROM_REGION_LENGTH__+0x20>
 41c:	cc 0f       	add	r28, r28
 41e:	dd 1f       	adc	r29, r29
 420:	0a 94       	dec	r0
 422:	e2 f7       	brpl	.-8      	; 0x41c <__EEPROM_REGION_LENGTH__+0x1c>
 424:	be 01       	movw	r22, r28
 426:	60 95       	com	r22
 428:	7b 2f       	mov	r23, r27
 42a:	76 23       	and	r23, r22
 42c:	7a bb       	out	0x1a, r23	; 26
 42e:	7b b3       	in	r23, 0x1b	; 27
 430:	67 23       	and	r22, r23
 432:	42 c0       	rjmp	.+132    	; 0x4b8 <__EEPROM_REGION_LENGTH__+0xb8>
 434:	38 30       	cpi	r19, 0x08	; 8
 436:	70 f4       	brcc	.+28     	; 0x454 <__EEPROM_REGION_LENGTH__+0x54>
 438:	b7 b3       	in	r27, 0x17	; 23
 43a:	bc 01       	movw	r22, r24
 43c:	03 2e       	mov	r0, r19
 43e:	01 c0       	rjmp	.+2      	; 0x442 <__EEPROM_REGION_LENGTH__+0x42>
 440:	66 0f       	add	r22, r22
 442:	0a 94       	dec	r0
 444:	ea f7       	brpl	.-6      	; 0x440 <__EEPROM_REGION_LENGTH__+0x40>
 446:	60 95       	com	r22
 448:	7b 2f       	mov	r23, r27
 44a:	76 23       	and	r23, r22
 44c:	77 bb       	out	0x17, r23	; 23
 44e:	78 b3       	in	r23, 0x18	; 24
 450:	67 23       	and	r22, r23
 452:	43 c0       	rjmp	.+134    	; 0x4da <__EEPROM_REGION_LENGTH__+0xda>
 454:	28 30       	cpi	r18, 0x08	; 8
 456:	70 f4       	brcc	.+28     	; 0x474 <__EEPROM_REGION_LENGTH__+0x74>
 458:	b4 b3       	in	r27, 0x14	; 20
 45a:	bc 01       	movw	r22, r24
 45c:	02 2e       	mov	r0, r18
 45e:	01 c0       	rjmp	.+2      	; 0x462 <__EEPROM_REGION_LENGTH__+0x62>
 460:	66 0f       	add	r22, r22
 462:	0a 94       	dec	r0
 464:	ea f7       	brpl	.-6      	; 0x460 <__EEPROM_REGION_LENGTH__+0x60>
 466:	60 95       	com	r22
 468:	7b 2f       	mov	r23, r27
 46a:	76 23       	and	r23, r22
 46c:	74 bb       	out	0x14, r23	; 20
 46e:	75 b3       	in	r23, 0x15	; 21
 470:	67 23       	and	r22, r23
 472:	44 c0       	rjmp	.+136    	; 0x4fc <__EEPROM_REGION_LENGTH__+0xfc>
 474:	b1 b3       	in	r27, 0x11	; 17
 476:	bc 01       	movw	r22, r24
 478:	0a 2e       	mov	r0, r26
 47a:	01 c0       	rjmp	.+2      	; 0x47e <__EEPROM_REGION_LENGTH__+0x7e>
 47c:	66 0f       	add	r22, r22
 47e:	0a 94       	dec	r0
 480:	ea f7       	brpl	.-6      	; 0x47c <__EEPROM_REGION_LENGTH__+0x7c>
 482:	60 95       	com	r22
 484:	7b 2f       	mov	r23, r27
 486:	76 23       	and	r23, r22
 488:	71 bb       	out	0x11, r23	; 17
 48a:	72 b3       	in	r23, 0x12	; 18
 48c:	67 23       	and	r22, r23
 48e:	45 c0       	rjmp	.+138    	; 0x51a <__EEPROM_REGION_LENGTH__+0x11a>
 490:	72 30       	cpi	r23, 0x02	; 2
 492:	09 f0       	breq	.+2      	; 0x496 <__EEPROM_REGION_LENGTH__+0x96>
 494:	43 c0       	rjmp	.+134    	; 0x51c <__EEPROM_REGION_LENGTH__+0x11c>
 496:	48 30       	cpi	r20, 0x08	; 8
 498:	88 f4       	brcc	.+34     	; 0x4bc <__EEPROM_REGION_LENGTH__+0xbc>
 49a:	ba b3       	in	r27, 0x1a	; 26
 49c:	ec 01       	movw	r28, r24
 49e:	04 2e       	mov	r0, r20
 4a0:	02 c0       	rjmp	.+4      	; 0x4a6 <__EEPROM_REGION_LENGTH__+0xa6>
 4a2:	cc 0f       	add	r28, r28
 4a4:	dd 1f       	adc	r29, r29
 4a6:	0a 94       	dec	r0
 4a8:	e2 f7       	brpl	.-8      	; 0x4a2 <__EEPROM_REGION_LENGTH__+0xa2>
 4aa:	be 01       	movw	r22, r28
 4ac:	7c 2f       	mov	r23, r28
 4ae:	70 95       	com	r23
 4b0:	7b 23       	and	r23, r27
 4b2:	7a bb       	out	0x1a, r23	; 26
 4b4:	7b b3       	in	r23, 0x1b	; 27
 4b6:	67 2b       	or	r22, r23
 4b8:	6b bb       	out	0x1b, r22	; 27
 4ba:	30 c0       	rjmp	.+96     	; 0x51c <__EEPROM_REGION_LENGTH__+0x11c>
 4bc:	38 30       	cpi	r19, 0x08	; 8
 4be:	78 f4       	brcc	.+30     	; 0x4de <__EEPROM_REGION_LENGTH__+0xde>
 4c0:	b7 b3       	in	r27, 0x17	; 23
 4c2:	bc 01       	movw	r22, r24
 4c4:	03 2e       	mov	r0, r19
 4c6:	01 c0       	rjmp	.+2      	; 0x4ca <__EEPROM_REGION_LENGTH__+0xca>
 4c8:	66 0f       	add	r22, r22
 4ca:	0a 94       	dec	r0
 4cc:	ea f7       	brpl	.-6      	; 0x4c8 <__EEPROM_REGION_LENGTH__+0xc8>
 4ce:	76 2f       	mov	r23, r22
 4d0:	70 95       	com	r23
 4d2:	7b 23       	and	r23, r27
 4d4:	77 bb       	out	0x17, r23	; 23
 4d6:	78 b3       	in	r23, 0x18	; 24
 4d8:	67 2b       	or	r22, r23
 4da:	68 bb       	out	0x18, r22	; 24
 4dc:	1f c0       	rjmp	.+62     	; 0x51c <__EEPROM_REGION_LENGTH__+0x11c>
 4de:	28 30       	cpi	r18, 0x08	; 8
 4e0:	78 f4       	brcc	.+30     	; 0x500 <__EEPROM_REGION_LENGTH__+0x100>
 4e2:	b4 b3       	in	r27, 0x14	; 20
 4e4:	bc 01       	movw	r22, r24
 4e6:	02 2e       	mov	r0, r18
 4e8:	01 c0       	rjmp	.+2      	; 0x4ec <__EEPROM_REGION_LENGTH__+0xec>
 4ea:	66 0f       	add	r22, r22
 4ec:	0a 94       	dec	r0
 4ee:	ea f7       	brpl	.-6      	; 0x4ea <__EEPROM_REGION_LENGTH__+0xea>
 4f0:	76 2f       	mov	r23, r22
 4f2:	70 95       	com	r23
 4f4:	7b 23       	and	r23, r27
 4f6:	74 bb       	out	0x14, r23	; 20
 4f8:	75 b3       	in	r23, 0x15	; 21
 4fa:	67 2b       	or	r22, r23
 4fc:	65 bb       	out	0x15, r22	; 21
 4fe:	0e c0       	rjmp	.+28     	; 0x51c <__EEPROM_REGION_LENGTH__+0x11c>
 500:	b1 b3       	in	r27, 0x11	; 17
 502:	bc 01       	movw	r22, r24
 504:	0a 2e       	mov	r0, r26
 506:	01 c0       	rjmp	.+2      	; 0x50a <__EEPROM_REGION_LENGTH__+0x10a>
 508:	66 0f       	add	r22, r22
 50a:	0a 94       	dec	r0
 50c:	ea f7       	brpl	.-6      	; 0x508 <__EEPROM_REGION_LENGTH__+0x108>
 50e:	76 2f       	mov	r23, r22
 510:	70 95       	com	r23
 512:	7b 23       	and	r23, r27
 514:	71 bb       	out	0x11, r23	; 17
 516:	72 b3       	in	r23, 0x12	; 18
 518:	67 2b       	or	r22, r23
 51a:	62 bb       	out	0x12, r22	; 18
 51c:	4f 5f       	subi	r20, 0xFF	; 255
 51e:	5f 4f       	sbci	r21, 0xFF	; 255
 520:	3f 5f       	subi	r19, 0xFF	; 255
 522:	af 5f       	subi	r26, 0xFF	; 255
 524:	2f 5f       	subi	r18, 0xFF	; 255
 526:	40 32       	cpi	r20, 0x20	; 32
 528:	51 05       	cpc	r21, r1
 52a:	09 f0       	breq	.+2      	; 0x52e <__EEPROM_REGION_LENGTH__+0x12e>
 52c:	2f cf       	rjmp	.-418    	; 0x38c <DIO_Init+0x16>
 52e:	df 91       	pop	r29
 530:	cf 91       	pop	r28
 532:	08 95       	ret

00000534 <DIO_WritePin>:
 534:	61 11       	cpse	r22, r1
 536:	3c c0       	rjmp	.+120    	; 0x5b0 <DIO_WritePin+0x7c>
 538:	88 30       	cpi	r24, 0x08	; 8
 53a:	68 f4       	brcc	.+26     	; 0x556 <DIO_WritePin+0x22>
 53c:	4b b3       	in	r20, 0x1b	; 27
 53e:	21 e0       	ldi	r18, 0x01	; 1
 540:	30 e0       	ldi	r19, 0x00	; 0
 542:	b9 01       	movw	r22, r18
 544:	02 c0       	rjmp	.+4      	; 0x54a <DIO_WritePin+0x16>
 546:	66 0f       	add	r22, r22
 548:	77 1f       	adc	r23, r23
 54a:	8a 95       	dec	r24
 54c:	e2 f7       	brpl	.-8      	; 0x546 <DIO_WritePin+0x12>
 54e:	cb 01       	movw	r24, r22
 550:	80 95       	com	r24
 552:	84 23       	and	r24, r20
 554:	3c c0       	rjmp	.+120    	; 0x5ce <DIO_WritePin+0x9a>
 556:	38 ef       	ldi	r19, 0xF8	; 248
 558:	38 0f       	add	r19, r24
 55a:	38 30       	cpi	r19, 0x08	; 8
 55c:	50 f4       	brcc	.+20     	; 0x572 <DIO_WritePin+0x3e>
 55e:	28 b3       	in	r18, 0x18	; 24
 560:	81 e0       	ldi	r24, 0x01	; 1
 562:	90 e0       	ldi	r25, 0x00	; 0
 564:	01 c0       	rjmp	.+2      	; 0x568 <DIO_WritePin+0x34>
 566:	88 0f       	add	r24, r24
 568:	3a 95       	dec	r19
 56a:	ea f7       	brpl	.-6      	; 0x566 <DIO_WritePin+0x32>
 56c:	80 95       	com	r24
 56e:	82 23       	and	r24, r18
 570:	3c c0       	rjmp	.+120    	; 0x5ea <DIO_WritePin+0xb6>
 572:	30 ef       	ldi	r19, 0xF0	; 240
 574:	38 0f       	add	r19, r24
 576:	38 30       	cpi	r19, 0x08	; 8
 578:	50 f4       	brcc	.+20     	; 0x58e <DIO_WritePin+0x5a>
 57a:	25 b3       	in	r18, 0x15	; 21
 57c:	81 e0       	ldi	r24, 0x01	; 1
 57e:	90 e0       	ldi	r25, 0x00	; 0
 580:	01 c0       	rjmp	.+2      	; 0x584 <DIO_WritePin+0x50>
 582:	88 0f       	add	r24, r24
 584:	3a 95       	dec	r19
 586:	ea f7       	brpl	.-6      	; 0x582 <DIO_WritePin+0x4e>
 588:	80 95       	com	r24
 58a:	82 23       	and	r24, r18
 58c:	3c c0       	rjmp	.+120    	; 0x606 <DIO_WritePin+0xd2>
 58e:	88 51       	subi	r24, 0x18	; 24
 590:	88 30       	cpi	r24, 0x08	; 8
 592:	08 f0       	brcs	.+2      	; 0x596 <DIO_WritePin+0x62>
 594:	49 c0       	rjmp	.+146    	; 0x628 <DIO_WritePin+0xf4>
 596:	42 b3       	in	r20, 0x12	; 18
 598:	21 e0       	ldi	r18, 0x01	; 1
 59a:	30 e0       	ldi	r19, 0x00	; 0
 59c:	b9 01       	movw	r22, r18
 59e:	02 c0       	rjmp	.+4      	; 0x5a4 <DIO_WritePin+0x70>
 5a0:	66 0f       	add	r22, r22
 5a2:	77 1f       	adc	r23, r23
 5a4:	8a 95       	dec	r24
 5a6:	e2 f7       	brpl	.-8      	; 0x5a0 <DIO_WritePin+0x6c>
 5a8:	cb 01       	movw	r24, r22
 5aa:	80 95       	com	r24
 5ac:	84 23       	and	r24, r20
 5ae:	3b c0       	rjmp	.+118    	; 0x626 <DIO_WritePin+0xf2>
 5b0:	61 30       	cpi	r22, 0x01	; 1
 5b2:	d1 f5       	brne	.+116    	; 0x628 <DIO_WritePin+0xf4>
 5b4:	88 30       	cpi	r24, 0x08	; 8
 5b6:	68 f4       	brcc	.+26     	; 0x5d2 <DIO_WritePin+0x9e>
 5b8:	4b b3       	in	r20, 0x1b	; 27
 5ba:	21 e0       	ldi	r18, 0x01	; 1
 5bc:	30 e0       	ldi	r19, 0x00	; 0
 5be:	b9 01       	movw	r22, r18
 5c0:	02 c0       	rjmp	.+4      	; 0x5c6 <DIO_WritePin+0x92>
 5c2:	66 0f       	add	r22, r22
 5c4:	77 1f       	adc	r23, r23
 5c6:	8a 95       	dec	r24
 5c8:	e2 f7       	brpl	.-8      	; 0x5c2 <DIO_WritePin+0x8e>
 5ca:	cb 01       	movw	r24, r22
 5cc:	84 2b       	or	r24, r20
 5ce:	8b bb       	out	0x1b, r24	; 27
 5d0:	08 95       	ret
 5d2:	28 ef       	ldi	r18, 0xF8	; 248
 5d4:	28 0f       	add	r18, r24
 5d6:	28 30       	cpi	r18, 0x08	; 8
 5d8:	50 f4       	brcc	.+20     	; 0x5ee <DIO_WritePin+0xba>
 5da:	38 b3       	in	r19, 0x18	; 24
 5dc:	81 e0       	ldi	r24, 0x01	; 1
 5de:	90 e0       	ldi	r25, 0x00	; 0
 5e0:	01 c0       	rjmp	.+2      	; 0x5e4 <DIO_WritePin+0xb0>
 5e2:	88 0f       	add	r24, r24
 5e4:	2a 95       	dec	r18
 5e6:	ea f7       	brpl	.-6      	; 0x5e2 <DIO_WritePin+0xae>
 5e8:	83 2b       	or	r24, r19
 5ea:	88 bb       	out	0x18, r24	; 24
 5ec:	08 95       	ret
 5ee:	20 ef       	ldi	r18, 0xF0	; 240
 5f0:	28 0f       	add	r18, r24
 5f2:	28 30       	cpi	r18, 0x08	; 8
 5f4:	50 f4       	brcc	.+20     	; 0x60a <DIO_WritePin+0xd6>
 5f6:	35 b3       	in	r19, 0x15	; 21
 5f8:	81 e0       	ldi	r24, 0x01	; 1
 5fa:	90 e0       	ldi	r25, 0x00	; 0
 5fc:	01 c0       	rjmp	.+2      	; 0x600 <DIO_WritePin+0xcc>
 5fe:	88 0f       	add	r24, r24
 600:	2a 95       	dec	r18
 602:	ea f7       	brpl	.-6      	; 0x5fe <DIO_WritePin+0xca>
 604:	83 2b       	or	r24, r19
 606:	85 bb       	out	0x15, r24	; 21
 608:	08 95       	ret
 60a:	88 51       	subi	r24, 0x18	; 24
 60c:	88 30       	cpi	r24, 0x08	; 8
 60e:	60 f4       	brcc	.+24     	; 0x628 <DIO_WritePin+0xf4>
 610:	42 b3       	in	r20, 0x12	; 18
 612:	21 e0       	ldi	r18, 0x01	; 1
 614:	30 e0       	ldi	r19, 0x00	; 0
 616:	b9 01       	movw	r22, r18
 618:	02 c0       	rjmp	.+4      	; 0x61e <DIO_WritePin+0xea>
 61a:	66 0f       	add	r22, r22
 61c:	77 1f       	adc	r23, r23
 61e:	8a 95       	dec	r24
 620:	e2 f7       	brpl	.-8      	; 0x61a <DIO_WritePin+0xe6>
 622:	cb 01       	movw	r24, r22
 624:	84 2b       	or	r24, r20
 626:	82 bb       	out	0x12, r24	; 18
 628:	08 95       	ret

0000062a <DIO_WritePORT>:
 62a:	81 30       	cpi	r24, 0x01	; 1
 62c:	41 f0       	breq	.+16     	; 0x63e <DIO_WritePORT+0x14>
 62e:	28 f0       	brcs	.+10     	; 0x63a <DIO_WritePORT+0x10>
 630:	82 30       	cpi	r24, 0x02	; 2
 632:	39 f0       	breq	.+14     	; 0x642 <DIO_WritePORT+0x18>
 634:	83 30       	cpi	r24, 0x03	; 3
 636:	39 f0       	breq	.+14     	; 0x646 <DIO_WritePORT+0x1c>
 638:	08 95       	ret
 63a:	6b bb       	out	0x1b, r22	; 27
 63c:	08 95       	ret
 63e:	68 bb       	out	0x18, r22	; 24
 640:	08 95       	ret
 642:	65 bb       	out	0x15, r22	; 21
 644:	08 95       	ret
 646:	62 bb       	out	0x12, r22	; 18
 648:	08 95       	ret

0000064a <__vector_1>:
 64a:	1f 92       	push	r1
 64c:	0f 92       	push	r0
 64e:	0f b6       	in	r0, 0x3f	; 63
 650:	0f 92       	push	r0
 652:	11 24       	eor	r1, r1
 654:	2f 93       	push	r18
 656:	3f 93       	push	r19
 658:	4f 93       	push	r20
 65a:	5f 93       	push	r21
 65c:	6f 93       	push	r22
 65e:	7f 93       	push	r23
 660:	8f 93       	push	r24
 662:	9f 93       	push	r25
 664:	af 93       	push	r26
 666:	bf 93       	push	r27
 668:	ef 93       	push	r30
 66a:	ff 93       	push	r31
 66c:	e0 91 94 00 	lds	r30, 0x0094	; 0x800094 <FUNC_PTR0>
 670:	f0 91 95 00 	lds	r31, 0x0095	; 0x800095 <FUNC_PTR0+0x1>
 674:	09 95       	icall
 676:	ff 91       	pop	r31
 678:	ef 91       	pop	r30
 67a:	bf 91       	pop	r27
 67c:	af 91       	pop	r26
 67e:	9f 91       	pop	r25
 680:	8f 91       	pop	r24
 682:	7f 91       	pop	r23
 684:	6f 91       	pop	r22
 686:	5f 91       	pop	r21
 688:	4f 91       	pop	r20
 68a:	3f 91       	pop	r19
 68c:	2f 91       	pop	r18
 68e:	0f 90       	pop	r0
 690:	0f be       	out	0x3f, r0	; 63
 692:	0f 90       	pop	r0
 694:	1f 90       	pop	r1
 696:	18 95       	reti

00000698 <__vector_2>:
 698:	1f 92       	push	r1
 69a:	0f 92       	push	r0
 69c:	0f b6       	in	r0, 0x3f	; 63
 69e:	0f 92       	push	r0
 6a0:	11 24       	eor	r1, r1
 6a2:	2f 93       	push	r18
 6a4:	3f 93       	push	r19
 6a6:	4f 93       	push	r20
 6a8:	5f 93       	push	r21
 6aa:	6f 93       	push	r22
 6ac:	7f 93       	push	r23
 6ae:	8f 93       	push	r24
 6b0:	9f 93       	push	r25
 6b2:	af 93       	push	r26
 6b4:	bf 93       	push	r27
 6b6:	ef 93       	push	r30
 6b8:	ff 93       	push	r31
 6ba:	e0 91 92 00 	lds	r30, 0x0092	; 0x800092 <FUNC_PTR1>
 6be:	f0 91 93 00 	lds	r31, 0x0093	; 0x800093 <FUNC_PTR1+0x1>
 6c2:	09 95       	icall
 6c4:	ff 91       	pop	r31
 6c6:	ef 91       	pop	r30
 6c8:	bf 91       	pop	r27
 6ca:	af 91       	pop	r26
 6cc:	9f 91       	pop	r25
 6ce:	8f 91       	pop	r24
 6d0:	7f 91       	pop	r23
 6d2:	6f 91       	pop	r22
 6d4:	5f 91       	pop	r21
 6d6:	4f 91       	pop	r20
 6d8:	3f 91       	pop	r19
 6da:	2f 91       	pop	r18
 6dc:	0f 90       	pop	r0
 6de:	0f be       	out	0x3f, r0	; 63
 6e0:	0f 90       	pop	r0
 6e2:	1f 90       	pop	r1
 6e4:	18 95       	reti

000006e6 <__vector_3>:
 6e6:	1f 92       	push	r1
 6e8:	0f 92       	push	r0
 6ea:	0f b6       	in	r0, 0x3f	; 63
 6ec:	0f 92       	push	r0
 6ee:	11 24       	eor	r1, r1
 6f0:	2f 93       	push	r18
 6f2:	3f 93       	push	r19
 6f4:	4f 93       	push	r20
 6f6:	5f 93       	push	r21
 6f8:	6f 93       	push	r22
 6fa:	7f 93       	push	r23
 6fc:	8f 93       	push	r24
 6fe:	9f 93       	push	r25
 700:	af 93       	push	r26
 702:	bf 93       	push	r27
 704:	ef 93       	push	r30
 706:	ff 93       	push	r31
 708:	e0 91 90 00 	lds	r30, 0x0090	; 0x800090 <FUNC_PTR2>
 70c:	f0 91 91 00 	lds	r31, 0x0091	; 0x800091 <FUNC_PTR2+0x1>
 710:	09 95       	icall
 712:	ff 91       	pop	r31
 714:	ef 91       	pop	r30
 716:	bf 91       	pop	r27
 718:	af 91       	pop	r26
 71a:	9f 91       	pop	r25
 71c:	8f 91       	pop	r24
 71e:	7f 91       	pop	r23
 720:	6f 91       	pop	r22
 722:	5f 91       	pop	r21
 724:	4f 91       	pop	r20
 726:	3f 91       	pop	r19
 728:	2f 91       	pop	r18
 72a:	0f 90       	pop	r0
 72c:	0f be       	out	0x3f, r0	; 63
 72e:	0f 90       	pop	r0
 730:	1f 90       	pop	r1
 732:	18 95       	reti

00000734 <__vector_10>:
 734:	1f 92       	push	r1
 736:	0f 92       	push	r0
 738:	0f b6       	in	r0, 0x3f	; 63
 73a:	0f 92       	push	r0
 73c:	11 24       	eor	r1, r1
 73e:	2f 93       	push	r18
 740:	3f 93       	push	r19
 742:	4f 93       	push	r20
 744:	5f 93       	push	r21
 746:	6f 93       	push	r22
 748:	7f 93       	push	r23
 74a:	8f 93       	push	r24
 74c:	9f 93       	push	r25
 74e:	af 93       	push	r26
 750:	bf 93       	push	r27
 752:	ef 93       	push	r30
 754:	ff 93       	push	r31
 756:	e0 91 98 00 	lds	r30, 0x0098	; 0x800098 <funcPtrCompareMatch>
 75a:	f0 91 99 00 	lds	r31, 0x0099	; 0x800099 <funcPtrCompareMatch+0x1>
 75e:	09 95       	icall
 760:	ff 91       	pop	r31
 762:	ef 91       	pop	r30
 764:	bf 91       	pop	r27
 766:	af 91       	pop	r26
 768:	9f 91       	pop	r25
 76a:	8f 91       	pop	r24
 76c:	7f 91       	pop	r23
 76e:	6f 91       	pop	r22
 770:	5f 91       	pop	r21
 772:	4f 91       	pop	r20
 774:	3f 91       	pop	r19
 776:	2f 91       	pop	r18
 778:	0f 90       	pop	r0
 77a:	0f be       	out	0x3f, r0	; 63
 77c:	0f 90       	pop	r0
 77e:	1f 90       	pop	r1
 780:	18 95       	reti

00000782 <__vector_11>:
 782:	1f 92       	push	r1
 784:	0f 92       	push	r0
 786:	0f b6       	in	r0, 0x3f	; 63
 788:	0f 92       	push	r0
 78a:	11 24       	eor	r1, r1
 78c:	2f 93       	push	r18
 78e:	3f 93       	push	r19
 790:	4f 93       	push	r20
 792:	5f 93       	push	r21
 794:	6f 93       	push	r22
 796:	7f 93       	push	r23
 798:	8f 93       	push	r24
 79a:	9f 93       	push	r25
 79c:	af 93       	push	r26
 79e:	bf 93       	push	r27
 7a0:	ef 93       	push	r30
 7a2:	ff 93       	push	r31
 7a4:	e0 91 96 00 	lds	r30, 0x0096	; 0x800096 <funcPtrOverflow>
 7a8:	f0 91 97 00 	lds	r31, 0x0097	; 0x800097 <funcPtrOverflow+0x1>
 7ac:	09 95       	icall
 7ae:	ff 91       	pop	r31
 7b0:	ef 91       	pop	r30
 7b2:	bf 91       	pop	r27
 7b4:	af 91       	pop	r26
 7b6:	9f 91       	pop	r25
 7b8:	8f 91       	pop	r24
 7ba:	7f 91       	pop	r23
 7bc:	6f 91       	pop	r22
 7be:	5f 91       	pop	r21
 7c0:	4f 91       	pop	r20
 7c2:	3f 91       	pop	r19
 7c4:	2f 91       	pop	r18
 7c6:	0f 90       	pop	r0
 7c8:	0f be       	out	0x3f, r0	; 63
 7ca:	0f 90       	pop	r0
 7cc:	1f 90       	pop	r1
 7ce:	18 95       	reti

000007d0 <TIMER1_Init>:
 7d0:	82 30       	cpi	r24, 0x02	; 2
 7d2:	99 f0       	breq	.+38     	; 0x7fa <TIMER1_Init+0x2a>
 7d4:	38 f4       	brcc	.+14     	; 0x7e4 <TIMER1_Init+0x14>
 7d6:	88 23       	and	r24, r24
 7d8:	69 f0       	breq	.+26     	; 0x7f4 <TIMER1_Init+0x24>
 7da:	81 30       	cpi	r24, 0x01	; 1
 7dc:	51 f5       	brne	.+84     	; 0x832 <__DATA_REGION_LENGTH__+0x32>
 7de:	8e b5       	in	r24, 0x2e	; 46
 7e0:	8b 7f       	andi	r24, 0xFB	; 251
 7e2:	20 c0       	rjmp	.+64     	; 0x824 <__DATA_REGION_LENGTH__+0x24>
 7e4:	84 30       	cpi	r24, 0x04	; 4
 7e6:	a9 f0       	breq	.+42     	; 0x812 <__DATA_REGION_LENGTH__+0x12>
 7e8:	70 f0       	brcs	.+28     	; 0x806 <__DATA_REGION_LENGTH__+0x6>
 7ea:	85 30       	cpi	r24, 0x05	; 5
 7ec:	11 f5       	brne	.+68     	; 0x832 <__DATA_REGION_LENGTH__+0x32>
 7ee:	8e b5       	in	r24, 0x2e	; 46
 7f0:	84 60       	ori	r24, 0x04	; 4
 7f2:	18 c0       	rjmp	.+48     	; 0x824 <__DATA_REGION_LENGTH__+0x24>
 7f4:	8e b5       	in	r24, 0x2e	; 46
 7f6:	8b 7f       	andi	r24, 0xFB	; 251
 7f8:	0e c0       	rjmp	.+28     	; 0x816 <__DATA_REGION_LENGTH__+0x16>
 7fa:	8e b5       	in	r24, 0x2e	; 46
 7fc:	8b 7f       	andi	r24, 0xFB	; 251
 7fe:	8e bd       	out	0x2e, r24	; 46
 800:	8e b5       	in	r24, 0x2e	; 46
 802:	82 60       	ori	r24, 0x02	; 2
 804:	0b c0       	rjmp	.+22     	; 0x81c <__DATA_REGION_LENGTH__+0x1c>
 806:	8e b5       	in	r24, 0x2e	; 46
 808:	8b 7f       	andi	r24, 0xFB	; 251
 80a:	8e bd       	out	0x2e, r24	; 46
 80c:	8e b5       	in	r24, 0x2e	; 46
 80e:	82 60       	ori	r24, 0x02	; 2
 810:	0c c0       	rjmp	.+24     	; 0x82a <__DATA_REGION_LENGTH__+0x2a>
 812:	8e b5       	in	r24, 0x2e	; 46
 814:	84 60       	ori	r24, 0x04	; 4
 816:	8e bd       	out	0x2e, r24	; 46
 818:	8e b5       	in	r24, 0x2e	; 46
 81a:	8d 7f       	andi	r24, 0xFD	; 253
 81c:	8e bd       	out	0x2e, r24	; 46
 81e:	8e b5       	in	r24, 0x2e	; 46
 820:	8e 7f       	andi	r24, 0xFE	; 254
 822:	06 c0       	rjmp	.+12     	; 0x830 <__DATA_REGION_LENGTH__+0x30>
 824:	8e bd       	out	0x2e, r24	; 46
 826:	8e b5       	in	r24, 0x2e	; 46
 828:	8d 7f       	andi	r24, 0xFD	; 253
 82a:	8e bd       	out	0x2e, r24	; 46
 82c:	8e b5       	in	r24, 0x2e	; 46
 82e:	81 60       	ori	r24, 0x01	; 1
 830:	8e bd       	out	0x2e, r24	; 46
 832:	86 2f       	mov	r24, r22
 834:	90 e0       	ldi	r25, 0x00	; 0
 836:	80 31       	cpi	r24, 0x10	; 16
 838:	91 05       	cpc	r25, r1
 83a:	08 f0       	brcs	.+2      	; 0x83e <__DATA_REGION_LENGTH__+0x3e>
 83c:	5c c0       	rjmp	.+184    	; 0x8f6 <__stack+0x97>
 83e:	fc 01       	movw	r30, r24
 840:	e6 5d       	subi	r30, 0xD6	; 214
 842:	ff 4f       	sbci	r31, 0xFF	; 255
 844:	0c 94 ac 06 	jmp	0xd58	; 0xd58 <__tablejump2__>
 848:	8e b5       	in	r24, 0x2e	; 46
 84a:	8f 7e       	andi	r24, 0xEF	; 239
 84c:	20 c0       	rjmp	.+64     	; 0x88e <__stack+0x2f>
 84e:	8e b5       	in	r24, 0x2e	; 46
 850:	8f 7e       	andi	r24, 0xEF	; 239
 852:	23 c0       	rjmp	.+70     	; 0x89a <__stack+0x3b>
 854:	8e b5       	in	r24, 0x2e	; 46
 856:	8f 7e       	andi	r24, 0xEF	; 239
 858:	29 c0       	rjmp	.+82     	; 0x8ac <__stack+0x4d>
 85a:	8e b5       	in	r24, 0x2e	; 46
 85c:	8f 7e       	andi	r24, 0xEF	; 239
 85e:	2c c0       	rjmp	.+88     	; 0x8b8 <__stack+0x59>
 860:	8e b5       	in	r24, 0x2e	; 46
 862:	8f 7e       	andi	r24, 0xEF	; 239
 864:	8e bd       	out	0x2e, r24	; 46
 866:	8e b5       	in	r24, 0x2e	; 46
 868:	88 60       	ori	r24, 0x08	; 8
 86a:	8e bd       	out	0x2e, r24	; 46
 86c:	8f b5       	in	r24, 0x2f	; 47
 86e:	8d 7f       	andi	r24, 0xFD	; 253
 870:	32 c0       	rjmp	.+100    	; 0x8d6 <__stack+0x77>
 872:	8e b5       	in	r24, 0x2e	; 46
 874:	8f 7e       	andi	r24, 0xEF	; 239
 876:	8e bd       	out	0x2e, r24	; 46
 878:	8e b5       	in	r24, 0x2e	; 46
 87a:	88 60       	ori	r24, 0x08	; 8
 87c:	11 c0       	rjmp	.+34     	; 0x8a0 <__stack+0x41>
 87e:	8e b5       	in	r24, 0x2e	; 46
 880:	8f 7e       	andi	r24, 0xEF	; 239
 882:	23 c0       	rjmp	.+70     	; 0x8ca <__stack+0x6b>
 884:	8e b5       	in	r24, 0x2e	; 46
 886:	8f 7e       	andi	r24, 0xEF	; 239
 888:	2c c0       	rjmp	.+88     	; 0x8e2 <__stack+0x83>
 88a:	8e b5       	in	r24, 0x2e	; 46
 88c:	80 61       	ori	r24, 0x10	; 16
 88e:	8e bd       	out	0x2e, r24	; 46
 890:	8e b5       	in	r24, 0x2e	; 46
 892:	87 7f       	andi	r24, 0xF7	; 247
 894:	ea cf       	rjmp	.-44     	; 0x86a <__stack+0xb>
 896:	8e b5       	in	r24, 0x2e	; 46
 898:	80 61       	ori	r24, 0x10	; 16
 89a:	8e bd       	out	0x2e, r24	; 46
 89c:	8e b5       	in	r24, 0x2e	; 46
 89e:	87 7f       	andi	r24, 0xF7	; 247
 8a0:	8e bd       	out	0x2e, r24	; 46
 8a2:	8f b5       	in	r24, 0x2f	; 47
 8a4:	8d 7f       	andi	r24, 0xFD	; 253
 8a6:	23 c0       	rjmp	.+70     	; 0x8ee <__stack+0x8f>
 8a8:	8e b5       	in	r24, 0x2e	; 46
 8aa:	80 61       	ori	r24, 0x10	; 16
 8ac:	8e bd       	out	0x2e, r24	; 46
 8ae:	8e b5       	in	r24, 0x2e	; 46
 8b0:	87 7f       	andi	r24, 0xF7	; 247
 8b2:	0e c0       	rjmp	.+28     	; 0x8d0 <__stack+0x71>
 8b4:	8e b5       	in	r24, 0x2e	; 46
 8b6:	80 61       	ori	r24, 0x10	; 16
 8b8:	8e bd       	out	0x2e, r24	; 46
 8ba:	8e b5       	in	r24, 0x2e	; 46
 8bc:	87 7f       	andi	r24, 0xF7	; 247
 8be:	14 c0       	rjmp	.+40     	; 0x8e8 <__stack+0x89>
 8c0:	8e b5       	in	r24, 0x2e	; 46
 8c2:	80 61       	ori	r24, 0x10	; 16
 8c4:	cf cf       	rjmp	.-98     	; 0x864 <__stack+0x5>
 8c6:	8e b5       	in	r24, 0x2e	; 46
 8c8:	80 61       	ori	r24, 0x10	; 16
 8ca:	8e bd       	out	0x2e, r24	; 46
 8cc:	8e b5       	in	r24, 0x2e	; 46
 8ce:	88 60       	ori	r24, 0x08	; 8
 8d0:	8e bd       	out	0x2e, r24	; 46
 8d2:	8f b5       	in	r24, 0x2f	; 47
 8d4:	82 60       	ori	r24, 0x02	; 2
 8d6:	8f bd       	out	0x2f, r24	; 47
 8d8:	8f b5       	in	r24, 0x2f	; 47
 8da:	8e 7f       	andi	r24, 0xFE	; 254
 8dc:	0b c0       	rjmp	.+22     	; 0x8f4 <__stack+0x95>
 8de:	8e b5       	in	r24, 0x2e	; 46
 8e0:	80 61       	ori	r24, 0x10	; 16
 8e2:	8e bd       	out	0x2e, r24	; 46
 8e4:	8e b5       	in	r24, 0x2e	; 46
 8e6:	88 60       	ori	r24, 0x08	; 8
 8e8:	8e bd       	out	0x2e, r24	; 46
 8ea:	8f b5       	in	r24, 0x2f	; 47
 8ec:	82 60       	ori	r24, 0x02	; 2
 8ee:	8f bd       	out	0x2f, r24	; 47
 8f0:	8f b5       	in	r24, 0x2f	; 47
 8f2:	81 60       	ori	r24, 0x01	; 1
 8f4:	8f bd       	out	0x2f, r24	; 47
 8f6:	41 30       	cpi	r20, 0x01	; 1
 8f8:	59 f0       	breq	.+22     	; 0x910 <__stack+0xb1>
 8fa:	38 f0       	brcs	.+14     	; 0x90a <__stack+0xab>
 8fc:	42 30       	cpi	r20, 0x02	; 2
 8fe:	59 f0       	breq	.+22     	; 0x916 <__stack+0xb7>
 900:	43 30       	cpi	r20, 0x03	; 3
 902:	99 f4       	brne	.+38     	; 0x92a <__stack+0xcb>
 904:	8f b5       	in	r24, 0x2f	; 47
 906:	80 68       	ori	r24, 0x80	; 128
 908:	0c c0       	rjmp	.+24     	; 0x922 <__stack+0xc3>
 90a:	8f b5       	in	r24, 0x2f	; 47
 90c:	8f 77       	andi	r24, 0x7F	; 127
 90e:	05 c0       	rjmp	.+10     	; 0x91a <__stack+0xbb>
 910:	8f b5       	in	r24, 0x2f	; 47
 912:	8f 77       	andi	r24, 0x7F	; 127
 914:	06 c0       	rjmp	.+12     	; 0x922 <__stack+0xc3>
 916:	8f b5       	in	r24, 0x2f	; 47
 918:	80 68       	ori	r24, 0x80	; 128
 91a:	8f bd       	out	0x2f, r24	; 47
 91c:	8f b5       	in	r24, 0x2f	; 47
 91e:	8f 7b       	andi	r24, 0xBF	; 191
 920:	03 c0       	rjmp	.+6      	; 0x928 <__stack+0xc9>
 922:	8f bd       	out	0x2f, r24	; 47
 924:	8f b5       	in	r24, 0x2f	; 47
 926:	80 64       	ori	r24, 0x40	; 64
 928:	8f bd       	out	0x2f, r24	; 47
 92a:	21 30       	cpi	r18, 0x01	; 1
 92c:	49 f0       	breq	.+18     	; 0x940 <__stack+0xe1>
 92e:	28 f0       	brcs	.+10     	; 0x93a <__stack+0xdb>
 930:	22 30       	cpi	r18, 0x02	; 2
 932:	49 f0       	breq	.+18     	; 0x946 <__stack+0xe7>
 934:	23 30       	cpi	r18, 0x03	; 3
 936:	69 f0       	breq	.+26     	; 0x952 <__stack+0xf3>
 938:	08 95       	ret
 93a:	8f b5       	in	r24, 0x2f	; 47
 93c:	8f 7d       	andi	r24, 0xDF	; 223
 93e:	05 c0       	rjmp	.+10     	; 0x94a <__stack+0xeb>
 940:	8f b5       	in	r24, 0x2f	; 47
 942:	8f 7d       	andi	r24, 0xDF	; 223
 944:	08 c0       	rjmp	.+16     	; 0x956 <__stack+0xf7>
 946:	8f b5       	in	r24, 0x2f	; 47
 948:	80 62       	ori	r24, 0x20	; 32
 94a:	8f bd       	out	0x2f, r24	; 47
 94c:	8f b5       	in	r24, 0x2f	; 47
 94e:	8f 7e       	andi	r24, 0xEF	; 239
 950:	05 c0       	rjmp	.+10     	; 0x95c <__stack+0xfd>
 952:	8f b5       	in	r24, 0x2f	; 47
 954:	80 62       	ori	r24, 0x20	; 32
 956:	8f bd       	out	0x2f, r24	; 47
 958:	8f b5       	in	r24, 0x2f	; 47
 95a:	80 61       	ori	r24, 0x10	; 16
 95c:	8f bd       	out	0x2f, r24	; 47
 95e:	08 95       	ret

00000960 <TIMER1_ICPedgeMode>:
 960:	88 23       	and	r24, r24
 962:	19 f0       	breq	.+6      	; 0x96a <TIMER1_ICPedgeMode+0xa>
 964:	81 30       	cpi	r24, 0x01	; 1
 966:	21 f0       	breq	.+8      	; 0x970 <TIMER1_ICPedgeMode+0x10>
 968:	08 95       	ret
 96a:	8e b5       	in	r24, 0x2e	; 46
 96c:	8f 7b       	andi	r24, 0xBF	; 191
 96e:	02 c0       	rjmp	.+4      	; 0x974 <TIMER1_ICPedgeMode+0x14>
 970:	8e b5       	in	r24, 0x2e	; 46
 972:	80 64       	ori	r24, 0x40	; 64
 974:	8e bd       	out	0x2e, r24	; 46
 976:	08 95       	ret

00000978 <TIMER1_overflow_interruptEnable>:
 978:	89 b7       	in	r24, 0x39	; 57
 97a:	84 60       	ori	r24, 0x04	; 4
 97c:	89 bf       	out	0x39, r24	; 57
 97e:	08 95       	ret

00000980 <TIMER1_timeStamp_interruptEnable>:
 980:	89 b7       	in	r24, 0x39	; 57
 982:	80 62       	ori	r24, 0x20	; 32
 984:	89 bf       	out	0x39, r24	; 57
 986:	08 95       	ret

00000988 <TIMER1_timeStamp_interruptDisable>:
 988:	89 b7       	in	r24, 0x39	; 57
 98a:	8f 7d       	andi	r24, 0xDF	; 223
 98c:	89 bf       	out	0x39, r24	; 57
 98e:	08 95       	ret

00000990 <TIMER1_overflowInterruptSet>:
 990:	90 93 9d 00 	sts	0x009D, r25	; 0x80009d <funcPtrOverflow+0x1>
 994:	80 93 9c 00 	sts	0x009C, r24	; 0x80009c <funcPtrOverflow>
 998:	08 95       	ret

0000099a <TIMER1_timeStampInterruptSet>:
 99a:	90 93 9b 00 	sts	0x009B, r25	; 0x80009b <funcPtrTimeStamp+0x1>
 99e:	80 93 9a 00 	sts	0x009A, r24	; 0x80009a <funcPtrTimeStamp>
 9a2:	08 95       	ret

000009a4 <__vector_7>:
 9a4:	1f 92       	push	r1
 9a6:	0f 92       	push	r0
 9a8:	0f b6       	in	r0, 0x3f	; 63
 9aa:	0f 92       	push	r0
 9ac:	11 24       	eor	r1, r1
 9ae:	2f 93       	push	r18
 9b0:	3f 93       	push	r19
 9b2:	4f 93       	push	r20
 9b4:	5f 93       	push	r21
 9b6:	6f 93       	push	r22
 9b8:	7f 93       	push	r23
 9ba:	8f 93       	push	r24
 9bc:	9f 93       	push	r25
 9be:	af 93       	push	r26
 9c0:	bf 93       	push	r27
 9c2:	ef 93       	push	r30
 9c4:	ff 93       	push	r31
 9c6:	e0 91 a0 00 	lds	r30, 0x00A0	; 0x8000a0 <funcPtrCompareMatch1A>
 9ca:	f0 91 a1 00 	lds	r31, 0x00A1	; 0x8000a1 <funcPtrCompareMatch1A+0x1>
 9ce:	09 95       	icall
 9d0:	ff 91       	pop	r31
 9d2:	ef 91       	pop	r30
 9d4:	bf 91       	pop	r27
 9d6:	af 91       	pop	r26
 9d8:	9f 91       	pop	r25
 9da:	8f 91       	pop	r24
 9dc:	7f 91       	pop	r23
 9de:	6f 91       	pop	r22
 9e0:	5f 91       	pop	r21
 9e2:	4f 91       	pop	r20
 9e4:	3f 91       	pop	r19
 9e6:	2f 91       	pop	r18
 9e8:	0f 90       	pop	r0
 9ea:	0f be       	out	0x3f, r0	; 63
 9ec:	0f 90       	pop	r0
 9ee:	1f 90       	pop	r1
 9f0:	18 95       	reti

000009f2 <__vector_8>:
 9f2:	1f 92       	push	r1
 9f4:	0f 92       	push	r0
 9f6:	0f b6       	in	r0, 0x3f	; 63
 9f8:	0f 92       	push	r0
 9fa:	11 24       	eor	r1, r1
 9fc:	2f 93       	push	r18
 9fe:	3f 93       	push	r19
 a00:	4f 93       	push	r20
 a02:	5f 93       	push	r21
 a04:	6f 93       	push	r22
 a06:	7f 93       	push	r23
 a08:	8f 93       	push	r24
 a0a:	9f 93       	push	r25
 a0c:	af 93       	push	r26
 a0e:	bf 93       	push	r27
 a10:	ef 93       	push	r30
 a12:	ff 93       	push	r31
 a14:	e0 91 9e 00 	lds	r30, 0x009E	; 0x80009e <funcPtrCompareMatch1B>
 a18:	f0 91 9f 00 	lds	r31, 0x009F	; 0x80009f <funcPtrCompareMatch1B+0x1>
 a1c:	09 95       	icall
 a1e:	ff 91       	pop	r31
 a20:	ef 91       	pop	r30
 a22:	bf 91       	pop	r27
 a24:	af 91       	pop	r26
 a26:	9f 91       	pop	r25
 a28:	8f 91       	pop	r24
 a2a:	7f 91       	pop	r23
 a2c:	6f 91       	pop	r22
 a2e:	5f 91       	pop	r21
 a30:	4f 91       	pop	r20
 a32:	3f 91       	pop	r19
 a34:	2f 91       	pop	r18
 a36:	0f 90       	pop	r0
 a38:	0f be       	out	0x3f, r0	; 63
 a3a:	0f 90       	pop	r0
 a3c:	1f 90       	pop	r1
 a3e:	18 95       	reti

00000a40 <__vector_9>:
 a40:	1f 92       	push	r1
 a42:	0f 92       	push	r0
 a44:	0f b6       	in	r0, 0x3f	; 63
 a46:	0f 92       	push	r0
 a48:	11 24       	eor	r1, r1
 a4a:	2f 93       	push	r18
 a4c:	3f 93       	push	r19
 a4e:	4f 93       	push	r20
 a50:	5f 93       	push	r21
 a52:	6f 93       	push	r22
 a54:	7f 93       	push	r23
 a56:	8f 93       	push	r24
 a58:	9f 93       	push	r25
 a5a:	af 93       	push	r26
 a5c:	bf 93       	push	r27
 a5e:	ef 93       	push	r30
 a60:	ff 93       	push	r31
 a62:	e0 91 9c 00 	lds	r30, 0x009C	; 0x80009c <funcPtrOverflow>
 a66:	f0 91 9d 00 	lds	r31, 0x009D	; 0x80009d <funcPtrOverflow+0x1>
 a6a:	09 95       	icall
 a6c:	ff 91       	pop	r31
 a6e:	ef 91       	pop	r30
 a70:	bf 91       	pop	r27
 a72:	af 91       	pop	r26
 a74:	9f 91       	pop	r25
 a76:	8f 91       	pop	r24
 a78:	7f 91       	pop	r23
 a7a:	6f 91       	pop	r22
 a7c:	5f 91       	pop	r21
 a7e:	4f 91       	pop	r20
 a80:	3f 91       	pop	r19
 a82:	2f 91       	pop	r18
 a84:	0f 90       	pop	r0
 a86:	0f be       	out	0x3f, r0	; 63
 a88:	0f 90       	pop	r0
 a8a:	1f 90       	pop	r1
 a8c:	18 95       	reti

00000a8e <__vector_6>:
 a8e:	1f 92       	push	r1
 a90:	0f 92       	push	r0
 a92:	0f b6       	in	r0, 0x3f	; 63
 a94:	0f 92       	push	r0
 a96:	11 24       	eor	r1, r1
 a98:	2f 93       	push	r18
 a9a:	3f 93       	push	r19
 a9c:	4f 93       	push	r20
 a9e:	5f 93       	push	r21
 aa0:	6f 93       	push	r22
 aa2:	7f 93       	push	r23
 aa4:	8f 93       	push	r24
 aa6:	9f 93       	push	r25
 aa8:	af 93       	push	r26
 aaa:	bf 93       	push	r27
 aac:	ef 93       	push	r30
 aae:	ff 93       	push	r31
 ab0:	e0 91 9a 00 	lds	r30, 0x009A	; 0x80009a <funcPtrTimeStamp>
 ab4:	f0 91 9b 00 	lds	r31, 0x009B	; 0x80009b <funcPtrTimeStamp+0x1>
 ab8:	09 95       	icall
 aba:	ff 91       	pop	r31
 abc:	ef 91       	pop	r30
 abe:	bf 91       	pop	r27
 ac0:	af 91       	pop	r26
 ac2:	9f 91       	pop	r25
 ac4:	8f 91       	pop	r24
 ac6:	7f 91       	pop	r23
 ac8:	6f 91       	pop	r22
 aca:	5f 91       	pop	r21
 acc:	4f 91       	pop	r20
 ace:	3f 91       	pop	r19
 ad0:	2f 91       	pop	r18
 ad2:	0f 90       	pop	r0
 ad4:	0f be       	out	0x3f, r0	; 63
 ad6:	0f 90       	pop	r0
 ad8:	1f 90       	pop	r1
 ada:	18 95       	reti

00000adc <__fixunssfsi>:
 adc:	0e 94 0a 06 	call	0xc14	; 0xc14 <__fp_splitA>
 ae0:	88 f0       	brcs	.+34     	; 0xb04 <__fixunssfsi+0x28>
 ae2:	9f 57       	subi	r25, 0x7F	; 127
 ae4:	98 f0       	brcs	.+38     	; 0xb0c <__fixunssfsi+0x30>
 ae6:	b9 2f       	mov	r27, r25
 ae8:	99 27       	eor	r25, r25
 aea:	b7 51       	subi	r27, 0x17	; 23
 aec:	b0 f0       	brcs	.+44     	; 0xb1a <__fixunssfsi+0x3e>
 aee:	e1 f0       	breq	.+56     	; 0xb28 <__fixunssfsi+0x4c>
 af0:	66 0f       	add	r22, r22
 af2:	77 1f       	adc	r23, r23
 af4:	88 1f       	adc	r24, r24
 af6:	99 1f       	adc	r25, r25
 af8:	1a f0       	brmi	.+6      	; 0xb00 <__fixunssfsi+0x24>
 afa:	ba 95       	dec	r27
 afc:	c9 f7       	brne	.-14     	; 0xaf0 <__fixunssfsi+0x14>
 afe:	14 c0       	rjmp	.+40     	; 0xb28 <__fixunssfsi+0x4c>
 b00:	b1 30       	cpi	r27, 0x01	; 1
 b02:	91 f0       	breq	.+36     	; 0xb28 <__fixunssfsi+0x4c>
 b04:	0e 94 24 06 	call	0xc48	; 0xc48 <__fp_zero>
 b08:	b1 e0       	ldi	r27, 0x01	; 1
 b0a:	08 95       	ret
 b0c:	0c 94 24 06 	jmp	0xc48	; 0xc48 <__fp_zero>
 b10:	67 2f       	mov	r22, r23
 b12:	78 2f       	mov	r23, r24
 b14:	88 27       	eor	r24, r24
 b16:	b8 5f       	subi	r27, 0xF8	; 248
 b18:	39 f0       	breq	.+14     	; 0xb28 <__fixunssfsi+0x4c>
 b1a:	b9 3f       	cpi	r27, 0xF9	; 249
 b1c:	cc f3       	brlt	.-14     	; 0xb10 <__fixunssfsi+0x34>
 b1e:	86 95       	lsr	r24
 b20:	77 95       	ror	r23
 b22:	67 95       	ror	r22
 b24:	b3 95       	inc	r27
 b26:	d9 f7       	brne	.-10     	; 0xb1e <__fixunssfsi+0x42>
 b28:	3e f4       	brtc	.+14     	; 0xb38 <__fixunssfsi+0x5c>
 b2a:	90 95       	com	r25
 b2c:	80 95       	com	r24
 b2e:	70 95       	com	r23
 b30:	61 95       	neg	r22
 b32:	7f 4f       	sbci	r23, 0xFF	; 255
 b34:	8f 4f       	sbci	r24, 0xFF	; 255
 b36:	9f 4f       	sbci	r25, 0xFF	; 255
 b38:	08 95       	ret

00000b3a <__floatunsisf>:
 b3a:	e8 94       	clt
 b3c:	09 c0       	rjmp	.+18     	; 0xb50 <__floatsisf+0x12>

00000b3e <__floatsisf>:
 b3e:	97 fb       	bst	r25, 7
 b40:	3e f4       	brtc	.+14     	; 0xb50 <__floatsisf+0x12>
 b42:	90 95       	com	r25
 b44:	80 95       	com	r24
 b46:	70 95       	com	r23
 b48:	61 95       	neg	r22
 b4a:	7f 4f       	sbci	r23, 0xFF	; 255
 b4c:	8f 4f       	sbci	r24, 0xFF	; 255
 b4e:	9f 4f       	sbci	r25, 0xFF	; 255
 b50:	99 23       	and	r25, r25
 b52:	a9 f0       	breq	.+42     	; 0xb7e <__floatsisf+0x40>
 b54:	f9 2f       	mov	r31, r25
 b56:	96 e9       	ldi	r25, 0x96	; 150
 b58:	bb 27       	eor	r27, r27
 b5a:	93 95       	inc	r25
 b5c:	f6 95       	lsr	r31
 b5e:	87 95       	ror	r24
 b60:	77 95       	ror	r23
 b62:	67 95       	ror	r22
 b64:	b7 95       	ror	r27
 b66:	f1 11       	cpse	r31, r1
 b68:	f8 cf       	rjmp	.-16     	; 0xb5a <__floatsisf+0x1c>
 b6a:	fa f4       	brpl	.+62     	; 0xbaa <__floatsisf+0x6c>
 b6c:	bb 0f       	add	r27, r27
 b6e:	11 f4       	brne	.+4      	; 0xb74 <__floatsisf+0x36>
 b70:	60 ff       	sbrs	r22, 0
 b72:	1b c0       	rjmp	.+54     	; 0xbaa <__floatsisf+0x6c>
 b74:	6f 5f       	subi	r22, 0xFF	; 255
 b76:	7f 4f       	sbci	r23, 0xFF	; 255
 b78:	8f 4f       	sbci	r24, 0xFF	; 255
 b7a:	9f 4f       	sbci	r25, 0xFF	; 255
 b7c:	16 c0       	rjmp	.+44     	; 0xbaa <__floatsisf+0x6c>
 b7e:	88 23       	and	r24, r24
 b80:	11 f0       	breq	.+4      	; 0xb86 <__floatsisf+0x48>
 b82:	96 e9       	ldi	r25, 0x96	; 150
 b84:	11 c0       	rjmp	.+34     	; 0xba8 <__floatsisf+0x6a>
 b86:	77 23       	and	r23, r23
 b88:	21 f0       	breq	.+8      	; 0xb92 <__floatsisf+0x54>
 b8a:	9e e8       	ldi	r25, 0x8E	; 142
 b8c:	87 2f       	mov	r24, r23
 b8e:	76 2f       	mov	r23, r22
 b90:	05 c0       	rjmp	.+10     	; 0xb9c <__floatsisf+0x5e>
 b92:	66 23       	and	r22, r22
 b94:	71 f0       	breq	.+28     	; 0xbb2 <__floatsisf+0x74>
 b96:	96 e8       	ldi	r25, 0x86	; 134
 b98:	86 2f       	mov	r24, r22
 b9a:	70 e0       	ldi	r23, 0x00	; 0
 b9c:	60 e0       	ldi	r22, 0x00	; 0
 b9e:	2a f0       	brmi	.+10     	; 0xbaa <__floatsisf+0x6c>
 ba0:	9a 95       	dec	r25
 ba2:	66 0f       	add	r22, r22
 ba4:	77 1f       	adc	r23, r23
 ba6:	88 1f       	adc	r24, r24
 ba8:	da f7       	brpl	.-10     	; 0xba0 <__floatsisf+0x62>
 baa:	88 0f       	add	r24, r24
 bac:	96 95       	lsr	r25
 bae:	87 95       	ror	r24
 bb0:	97 f9       	bld	r25, 7
 bb2:	08 95       	ret

00000bb4 <__fp_inf>:
 bb4:	97 f9       	bld	r25, 7
 bb6:	9f 67       	ori	r25, 0x7F	; 127
 bb8:	80 e8       	ldi	r24, 0x80	; 128
 bba:	70 e0       	ldi	r23, 0x00	; 0
 bbc:	60 e0       	ldi	r22, 0x00	; 0
 bbe:	08 95       	ret

00000bc0 <__fp_nan>:
 bc0:	9f ef       	ldi	r25, 0xFF	; 255
 bc2:	80 ec       	ldi	r24, 0xC0	; 192
 bc4:	08 95       	ret

00000bc6 <__fp_pscA>:
 bc6:	00 24       	eor	r0, r0
 bc8:	0a 94       	dec	r0
 bca:	16 16       	cp	r1, r22
 bcc:	17 06       	cpc	r1, r23
 bce:	18 06       	cpc	r1, r24
 bd0:	09 06       	cpc	r0, r25
 bd2:	08 95       	ret

00000bd4 <__fp_pscB>:
 bd4:	00 24       	eor	r0, r0
 bd6:	0a 94       	dec	r0
 bd8:	12 16       	cp	r1, r18
 bda:	13 06       	cpc	r1, r19
 bdc:	14 06       	cpc	r1, r20
 bde:	05 06       	cpc	r0, r21
 be0:	08 95       	ret

00000be2 <__fp_round>:
 be2:	09 2e       	mov	r0, r25
 be4:	03 94       	inc	r0
 be6:	00 0c       	add	r0, r0
 be8:	11 f4       	brne	.+4      	; 0xbee <__fp_round+0xc>
 bea:	88 23       	and	r24, r24
 bec:	52 f0       	brmi	.+20     	; 0xc02 <__fp_round+0x20>
 bee:	bb 0f       	add	r27, r27
 bf0:	40 f4       	brcc	.+16     	; 0xc02 <__fp_round+0x20>
 bf2:	bf 2b       	or	r27, r31
 bf4:	11 f4       	brne	.+4      	; 0xbfa <__fp_round+0x18>
 bf6:	60 ff       	sbrs	r22, 0
 bf8:	04 c0       	rjmp	.+8      	; 0xc02 <__fp_round+0x20>
 bfa:	6f 5f       	subi	r22, 0xFF	; 255
 bfc:	7f 4f       	sbci	r23, 0xFF	; 255
 bfe:	8f 4f       	sbci	r24, 0xFF	; 255
 c00:	9f 4f       	sbci	r25, 0xFF	; 255
 c02:	08 95       	ret

00000c04 <__fp_split3>:
 c04:	57 fd       	sbrc	r21, 7
 c06:	90 58       	subi	r25, 0x80	; 128
 c08:	44 0f       	add	r20, r20
 c0a:	55 1f       	adc	r21, r21
 c0c:	59 f0       	breq	.+22     	; 0xc24 <__fp_splitA+0x10>
 c0e:	5f 3f       	cpi	r21, 0xFF	; 255
 c10:	71 f0       	breq	.+28     	; 0xc2e <__fp_splitA+0x1a>
 c12:	47 95       	ror	r20

00000c14 <__fp_splitA>:
 c14:	88 0f       	add	r24, r24
 c16:	97 fb       	bst	r25, 7
 c18:	99 1f       	adc	r25, r25
 c1a:	61 f0       	breq	.+24     	; 0xc34 <__fp_splitA+0x20>
 c1c:	9f 3f       	cpi	r25, 0xFF	; 255
 c1e:	79 f0       	breq	.+30     	; 0xc3e <__fp_splitA+0x2a>
 c20:	87 95       	ror	r24
 c22:	08 95       	ret
 c24:	12 16       	cp	r1, r18
 c26:	13 06       	cpc	r1, r19
 c28:	14 06       	cpc	r1, r20
 c2a:	55 1f       	adc	r21, r21
 c2c:	f2 cf       	rjmp	.-28     	; 0xc12 <__fp_split3+0xe>
 c2e:	46 95       	lsr	r20
 c30:	f1 df       	rcall	.-30     	; 0xc14 <__fp_splitA>
 c32:	08 c0       	rjmp	.+16     	; 0xc44 <__fp_splitA+0x30>
 c34:	16 16       	cp	r1, r22
 c36:	17 06       	cpc	r1, r23
 c38:	18 06       	cpc	r1, r24
 c3a:	99 1f       	adc	r25, r25
 c3c:	f1 cf       	rjmp	.-30     	; 0xc20 <__fp_splitA+0xc>
 c3e:	86 95       	lsr	r24
 c40:	71 05       	cpc	r23, r1
 c42:	61 05       	cpc	r22, r1
 c44:	08 94       	sec
 c46:	08 95       	ret

00000c48 <__fp_zero>:
 c48:	e8 94       	clt

00000c4a <__fp_szero>:
 c4a:	bb 27       	eor	r27, r27
 c4c:	66 27       	eor	r22, r22
 c4e:	77 27       	eor	r23, r23
 c50:	cb 01       	movw	r24, r22
 c52:	97 f9       	bld	r25, 7
 c54:	08 95       	ret

00000c56 <__mulsf3>:
 c56:	0e 94 3e 06 	call	0xc7c	; 0xc7c <__mulsf3x>
 c5a:	0c 94 f1 05 	jmp	0xbe2	; 0xbe2 <__fp_round>
 c5e:	0e 94 e3 05 	call	0xbc6	; 0xbc6 <__fp_pscA>
 c62:	38 f0       	brcs	.+14     	; 0xc72 <__mulsf3+0x1c>
 c64:	0e 94 ea 05 	call	0xbd4	; 0xbd4 <__fp_pscB>
 c68:	20 f0       	brcs	.+8      	; 0xc72 <__mulsf3+0x1c>
 c6a:	95 23       	and	r25, r21
 c6c:	11 f0       	breq	.+4      	; 0xc72 <__mulsf3+0x1c>
 c6e:	0c 94 da 05 	jmp	0xbb4	; 0xbb4 <__fp_inf>
 c72:	0c 94 e0 05 	jmp	0xbc0	; 0xbc0 <__fp_nan>
 c76:	11 24       	eor	r1, r1
 c78:	0c 94 25 06 	jmp	0xc4a	; 0xc4a <__fp_szero>

00000c7c <__mulsf3x>:
 c7c:	0e 94 02 06 	call	0xc04	; 0xc04 <__fp_split3>
 c80:	70 f3       	brcs	.-36     	; 0xc5e <__mulsf3+0x8>

00000c82 <__mulsf3_pse>:
 c82:	95 9f       	mul	r25, r21
 c84:	c1 f3       	breq	.-16     	; 0xc76 <__mulsf3+0x20>
 c86:	95 0f       	add	r25, r21
 c88:	50 e0       	ldi	r21, 0x00	; 0
 c8a:	55 1f       	adc	r21, r21
 c8c:	62 9f       	mul	r22, r18
 c8e:	f0 01       	movw	r30, r0
 c90:	72 9f       	mul	r23, r18
 c92:	bb 27       	eor	r27, r27
 c94:	f0 0d       	add	r31, r0
 c96:	b1 1d       	adc	r27, r1
 c98:	63 9f       	mul	r22, r19
 c9a:	aa 27       	eor	r26, r26
 c9c:	f0 0d       	add	r31, r0
 c9e:	b1 1d       	adc	r27, r1
 ca0:	aa 1f       	adc	r26, r26
 ca2:	64 9f       	mul	r22, r20
 ca4:	66 27       	eor	r22, r22
 ca6:	b0 0d       	add	r27, r0
 ca8:	a1 1d       	adc	r26, r1
 caa:	66 1f       	adc	r22, r22
 cac:	82 9f       	mul	r24, r18
 cae:	22 27       	eor	r18, r18
 cb0:	b0 0d       	add	r27, r0
 cb2:	a1 1d       	adc	r26, r1
 cb4:	62 1f       	adc	r22, r18
 cb6:	73 9f       	mul	r23, r19
 cb8:	b0 0d       	add	r27, r0
 cba:	a1 1d       	adc	r26, r1
 cbc:	62 1f       	adc	r22, r18
 cbe:	83 9f       	mul	r24, r19
 cc0:	a0 0d       	add	r26, r0
 cc2:	61 1d       	adc	r22, r1
 cc4:	22 1f       	adc	r18, r18
 cc6:	74 9f       	mul	r23, r20
 cc8:	33 27       	eor	r19, r19
 cca:	a0 0d       	add	r26, r0
 ccc:	61 1d       	adc	r22, r1
 cce:	23 1f       	adc	r18, r19
 cd0:	84 9f       	mul	r24, r20
 cd2:	60 0d       	add	r22, r0
 cd4:	21 1d       	adc	r18, r1
 cd6:	82 2f       	mov	r24, r18
 cd8:	76 2f       	mov	r23, r22
 cda:	6a 2f       	mov	r22, r26
 cdc:	11 24       	eor	r1, r1
 cde:	9f 57       	subi	r25, 0x7F	; 127
 ce0:	50 40       	sbci	r21, 0x00	; 0
 ce2:	9a f0       	brmi	.+38     	; 0xd0a <__mulsf3_pse+0x88>
 ce4:	f1 f0       	breq	.+60     	; 0xd22 <__mulsf3_pse+0xa0>
 ce6:	88 23       	and	r24, r24
 ce8:	4a f0       	brmi	.+18     	; 0xcfc <__mulsf3_pse+0x7a>
 cea:	ee 0f       	add	r30, r30
 cec:	ff 1f       	adc	r31, r31
 cee:	bb 1f       	adc	r27, r27
 cf0:	66 1f       	adc	r22, r22
 cf2:	77 1f       	adc	r23, r23
 cf4:	88 1f       	adc	r24, r24
 cf6:	91 50       	subi	r25, 0x01	; 1
 cf8:	50 40       	sbci	r21, 0x00	; 0
 cfa:	a9 f7       	brne	.-22     	; 0xce6 <__mulsf3_pse+0x64>
 cfc:	9e 3f       	cpi	r25, 0xFE	; 254
 cfe:	51 05       	cpc	r21, r1
 d00:	80 f0       	brcs	.+32     	; 0xd22 <__mulsf3_pse+0xa0>
 d02:	0c 94 da 05 	jmp	0xbb4	; 0xbb4 <__fp_inf>
 d06:	0c 94 25 06 	jmp	0xc4a	; 0xc4a <__fp_szero>
 d0a:	5f 3f       	cpi	r21, 0xFF	; 255
 d0c:	e4 f3       	brlt	.-8      	; 0xd06 <__mulsf3_pse+0x84>
 d0e:	98 3e       	cpi	r25, 0xE8	; 232
 d10:	d4 f3       	brlt	.-12     	; 0xd06 <__mulsf3_pse+0x84>
 d12:	86 95       	lsr	r24
 d14:	77 95       	ror	r23
 d16:	67 95       	ror	r22
 d18:	b7 95       	ror	r27
 d1a:	f7 95       	ror	r31
 d1c:	e7 95       	ror	r30
 d1e:	9f 5f       	subi	r25, 0xFF	; 255
 d20:	c1 f7       	brne	.-16     	; 0xd12 <__mulsf3_pse+0x90>
 d22:	fe 2b       	or	r31, r30
 d24:	88 0f       	add	r24, r24
 d26:	91 1d       	adc	r25, r1
 d28:	96 95       	lsr	r25
 d2a:	87 95       	ror	r24
 d2c:	97 f9       	bld	r25, 7
 d2e:	08 95       	ret

00000d30 <__divmodhi4>:
 d30:	97 fb       	bst	r25, 7
 d32:	07 2e       	mov	r0, r23
 d34:	16 f4       	brtc	.+4      	; 0xd3a <__divmodhi4+0xa>
 d36:	00 94       	com	r0
 d38:	07 d0       	rcall	.+14     	; 0xd48 <__divmodhi4_neg1>
 d3a:	77 fd       	sbrc	r23, 7
 d3c:	09 d0       	rcall	.+18     	; 0xd50 <__divmodhi4_neg2>
 d3e:	0e 94 b2 06 	call	0xd64	; 0xd64 <__udivmodhi4>
 d42:	07 fc       	sbrc	r0, 7
 d44:	05 d0       	rcall	.+10     	; 0xd50 <__divmodhi4_neg2>
 d46:	3e f4       	brtc	.+14     	; 0xd56 <__divmodhi4_exit>

00000d48 <__divmodhi4_neg1>:
 d48:	90 95       	com	r25
 d4a:	81 95       	neg	r24
 d4c:	9f 4f       	sbci	r25, 0xFF	; 255
 d4e:	08 95       	ret

00000d50 <__divmodhi4_neg2>:
 d50:	70 95       	com	r23
 d52:	61 95       	neg	r22
 d54:	7f 4f       	sbci	r23, 0xFF	; 255

00000d56 <__divmodhi4_exit>:
 d56:	08 95       	ret

00000d58 <__tablejump2__>:
 d58:	ee 0f       	add	r30, r30
 d5a:	ff 1f       	adc	r31, r31
 d5c:	05 90       	lpm	r0, Z+
 d5e:	f4 91       	lpm	r31, Z
 d60:	e0 2d       	mov	r30, r0
 d62:	09 94       	ijmp

00000d64 <__udivmodhi4>:
 d64:	aa 1b       	sub	r26, r26
 d66:	bb 1b       	sub	r27, r27
 d68:	51 e1       	ldi	r21, 0x11	; 17
 d6a:	07 c0       	rjmp	.+14     	; 0xd7a <__udivmodhi4_ep>

00000d6c <__udivmodhi4_loop>:
 d6c:	aa 1f       	adc	r26, r26
 d6e:	bb 1f       	adc	r27, r27
 d70:	a6 17       	cp	r26, r22
 d72:	b7 07       	cpc	r27, r23
 d74:	10 f0       	brcs	.+4      	; 0xd7a <__udivmodhi4_ep>
 d76:	a6 1b       	sub	r26, r22
 d78:	b7 0b       	sbc	r27, r23

00000d7a <__udivmodhi4_ep>:
 d7a:	88 1f       	adc	r24, r24
 d7c:	99 1f       	adc	r25, r25
 d7e:	5a 95       	dec	r21
 d80:	a9 f7       	brne	.-22     	; 0xd6c <__udivmodhi4_loop>
 d82:	80 95       	com	r24
 d84:	90 95       	com	r25
 d86:	bc 01       	movw	r22, r24
 d88:	cd 01       	movw	r24, r26
 d8a:	08 95       	ret

00000d8c <_exit>:
 d8c:	f8 94       	cli

00000d8e <__stop_program>:
 d8e:	ff cf       	rjmp	.-2      	; 0xd8e <__stop_program>
