
atmega32_ECU.elf:     file format elf32-avr

Sections:
Idx Name          Size      VMA       LMA       File off  Algn
  0 .text         00000bd8  00000000  00000000  00000094  2**1
                  CONTENTS, ALLOC, LOAD, READONLY, CODE
  1 .data         00000032  00800060  00000bd8  00000c6c  2**0
                  CONTENTS, ALLOC, LOAD, DATA
  2 .bss          00000025  00800092  00800092  00000c9e  2**0
                  ALLOC
  3 .comment      00000030  00000000  00000000  00000c9e  2**0
                  CONTENTS, READONLY
  4 .note.gnu.avr.deviceinfo 0000003c  00000000  00000000  00000cd0  2**2
                  CONTENTS, READONLY
  5 .debug_info   000004e6  00000000  00000000  00000d0c  2**0
                  CONTENTS, READONLY, DEBUGGING
  6 .debug_abbrev 000004a3  00000000  00000000  000011f2  2**0
                  CONTENTS, READONLY, DEBUGGING
  7 .debug_line   00000116  00000000  00000000  00001695  2**0
                  CONTENTS, READONLY, DEBUGGING
  8 .debug_str    00000196  00000000  00000000  000017ab  2**0
                  CONTENTS, READONLY, DEBUGGING

Disassembly of section .text:

00000000 <__vectors>:
   0:	0c 94 2a 00 	jmp	0x54	; 0x54 <__ctors_end>
   4:	0c 94 c9 03 	jmp	0x792	; 0x792 <__vector_1>
   8:	0c 94 f2 03 	jmp	0x7e4	; 0x7e4 <__vector_2>
   c:	0c 94 1b 04 	jmp	0x836	; 0x836 <__vector_3>
  10:	0c 94 47 00 	jmp	0x8e	; 0x8e <__bad_interrupt>
  14:	0c 94 47 00 	jmp	0x8e	; 0x8e <__bad_interrupt>
  18:	0c 94 3a 05 	jmp	0xa74	; 0xa74 <__vector_6>
  1c:	0c 94 bf 04 	jmp	0x97e	; 0x97e <__vector_7>
  20:	0c 94 e8 04 	jmp	0x9d0	; 0x9d0 <__vector_8>
  24:	0c 94 11 05 	jmp	0xa22	; 0xa22 <__vector_9>
  28:	0c 94 6d 04 	jmp	0x8da	; 0x8da <__vector_10>
  2c:	0c 94 96 04 	jmp	0x92c	; 0x92c <__vector_11>
  30:	0c 94 44 04 	jmp	0x888	; 0x888 <__vector_12>
  34:	0c 94 63 05 	jmp	0xac6	; 0xac6 <__vector_13>
  38:	0c 94 b5 05 	jmp	0xb6a	; 0xb6a <__vector_14>
  3c:	0c 94 8c 05 	jmp	0xb18	; 0xb18 <__vector_15>
  40:	0c 94 e6 01 	jmp	0x3cc	; 0x3cc <__vector_16>
  44:	0c 94 47 00 	jmp	0x8e	; 0x8e <__bad_interrupt>
  48:	0c 94 47 00 	jmp	0x8e	; 0x8e <__bad_interrupt>
  4c:	0c 94 47 00 	jmp	0x8e	; 0x8e <__bad_interrupt>
  50:	0c 94 47 00 	jmp	0x8e	; 0x8e <__bad_interrupt>

00000054 <__ctors_end>:
  54:	11 24       	eor	r1, r1
  56:	1f be       	out	0x3f, r1	; 63
  58:	cf e5       	ldi	r28, 0x5F	; 95
  5a:	d8 e0       	ldi	r29, 0x08	; 8
  5c:	de bf       	out	0x3e, r29	; 62
  5e:	cd bf       	out	0x3d, r28	; 61

00000060 <__do_copy_data>:
  60:	10 e0       	ldi	r17, 0x00	; 0
  62:	a0 e6       	ldi	r26, 0x60	; 96
  64:	b0 e0       	ldi	r27, 0x00	; 0
  66:	e8 ed       	ldi	r30, 0xD8	; 216
  68:	fb e0       	ldi	r31, 0x0B	; 11
  6a:	02 c0       	rjmp	.+4      	; 0x70 <__do_copy_data+0x10>
  6c:	05 90       	lpm	r0, Z+
  6e:	0d 92       	st	X+, r0
  70:	a2 39       	cpi	r26, 0x92	; 146
  72:	b1 07       	cpc	r27, r17
  74:	d9 f7       	brne	.-10     	; 0x6c <__do_copy_data+0xc>

00000076 <__do_clear_bss>:
  76:	20 e0       	ldi	r18, 0x00	; 0
  78:	a2 e9       	ldi	r26, 0x92	; 146
  7a:	b0 e0       	ldi	r27, 0x00	; 0
  7c:	01 c0       	rjmp	.+2      	; 0x80 <.do_clear_bss_start>

0000007e <.do_clear_bss_loop>:
  7e:	1d 92       	st	X+, r1

00000080 <.do_clear_bss_start>:
  80:	a7 3b       	cpi	r26, 0xB7	; 183
  82:	b2 07       	cpc	r27, r18
  84:	e1 f7       	brne	.-8      	; 0x7e <.do_clear_bss_loop>
  86:	0e 94 df 01 	call	0x3be	; 0x3be <main>
  8a:	0c 94 ea 05 	jmp	0xbd4	; 0xbd4 <_exit>

0000008e <__bad_interrupt>:
  8e:	0c 94 00 00 	jmp	0	; 0x0 <__vectors>

00000092 <STOP_Watch_increaseLeftSegment>:
  92:	80 91 97 00 	lds	r24, 0x0097	; 0x800097 <leftSegment>
  96:	8f 5f       	subi	r24, 0xFF	; 255
  98:	8a 30       	cpi	r24, 0x0A	; 10
  9a:	19 f0       	breq	.+6      	; 0xa2 <STOP_Watch_increaseLeftSegment+0x10>
  9c:	80 93 97 00 	sts	0x0097, r24	; 0x800097 <leftSegment>
  a0:	02 c0       	rjmp	.+4      	; 0xa6 <STOP_Watch_increaseLeftSegment+0x14>
  a2:	10 92 97 00 	sts	0x0097, r1	; 0x800097 <leftSegment>
  a6:	80 91 97 00 	lds	r24, 0x0097	; 0x800097 <leftSegment>
  aa:	80 93 95 00 	sts	0x0095, r24	; 0x800095 <setLeftSegment>
  ae:	08 95       	ret

000000b0 <STOP_Watch_increaseRightSegment>:
  b0:	80 91 96 00 	lds	r24, 0x0096	; 0x800096 <rightSegment>
  b4:	8f 5f       	subi	r24, 0xFF	; 255
  b6:	8a 30       	cpi	r24, 0x0A	; 10
  b8:	19 f0       	breq	.+6      	; 0xc0 <STOP_Watch_increaseRightSegment+0x10>
  ba:	80 93 96 00 	sts	0x0096, r24	; 0x800096 <rightSegment>
  be:	02 c0       	rjmp	.+4      	; 0xc4 <STOP_Watch_increaseRightSegment+0x14>
  c0:	10 92 96 00 	sts	0x0096, r1	; 0x800096 <rightSegment>
  c4:	80 91 96 00 	lds	r24, 0x0096	; 0x800096 <rightSegment>
  c8:	80 93 94 00 	sts	0x0094, r24	; 0x800094 <setRightSegment>
  cc:	08 95       	ret

000000ce <STOP_Watch_reset>:
  ce:	80 91 95 00 	lds	r24, 0x0095	; 0x800095 <setLeftSegment>
  d2:	80 93 97 00 	sts	0x0097, r24	; 0x800097 <leftSegment>
  d6:	80 91 94 00 	lds	r24, 0x0094	; 0x800094 <setRightSegment>
  da:	80 93 96 00 	sts	0x0096, r24	; 0x800096 <rightSegment>
  de:	10 92 93 00 	sts	0x0093, r1	; 0x800093 <pause_resume_flag>
  e2:	81 e0       	ldi	r24, 0x01	; 1
  e4:	80 93 92 00 	sts	0x0092, r24	; 0x800092 <__data_end>
  e8:	08 95       	ret

000000ea <STOP_Watch_pause_resume>:
  ea:	81 e0       	ldi	r24, 0x01	; 1
  ec:	90 91 93 00 	lds	r25, 0x0093	; 0x800093 <pause_resume_flag>
  f0:	91 11       	cpse	r25, r1
  f2:	80 e0       	ldi	r24, 0x00	; 0
  f4:	80 93 93 00 	sts	0x0093, r24	; 0x800093 <pause_resume_flag>
  f8:	08 95       	ret

000000fa <STOP_Watch_switchMode>:
  fa:	88 e1       	ldi	r24, 0x18	; 24
  fc:	0e 94 69 03 	call	0x6d2	; 0x6d2 <DIO_TogglePin>
 100:	81 e0       	ldi	r24, 0x01	; 1
 102:	90 91 60 00 	lds	r25, 0x0060	; 0x800060 <__DATA_REGION_ORIGIN__>
 106:	91 11       	cpse	r25, r1
 108:	80 e0       	ldi	r24, 0x00	; 0
 10a:	80 93 60 00 	sts	0x0060, r24	; 0x800060 <__DATA_REGION_ORIGIN__>
 10e:	08 95       	ret

00000110 <STOP_Watch_segments>:
 110:	90 91 97 00 	lds	r25, 0x0097	; 0x800097 <leftSegment>
 114:	80 91 96 00 	lds	r24, 0x0096	; 0x800096 <rightSegment>
 118:	2a e0       	ldi	r18, 0x0A	; 10
 11a:	92 9f       	mul	r25, r18
 11c:	80 0d       	add	r24, r0
 11e:	11 24       	eor	r1, r1
 120:	0c 94 6f 01 	jmp	0x2de	; 0x2de <SEGMENTS_STOP_Watch>

00000124 <STOP_Watch_countingDown>:
 124:	80 91 93 00 	lds	r24, 0x0093	; 0x800093 <pause_resume_flag>
 128:	81 30       	cpi	r24, 0x01	; 1
 12a:	91 f4       	brne	.+36     	; 0x150 <STOP_Watch_countingDown+0x2c>
 12c:	90 91 97 00 	lds	r25, 0x0097	; 0x800097 <leftSegment>
 130:	80 91 96 00 	lds	r24, 0x0096	; 0x800096 <rightSegment>
 134:	2a e0       	ldi	r18, 0x0A	; 10
 136:	92 9f       	mul	r25, r18
 138:	80 0d       	add	r24, r0
 13a:	11 24       	eor	r1, r1
 13c:	88 23       	and	r24, r24
 13e:	41 f0       	breq	.+16     	; 0x150 <STOP_Watch_countingDown+0x2c>
 140:	81 50       	subi	r24, 0x01	; 1
 142:	6a e0       	ldi	r22, 0x0A	; 10
 144:	0e 94 de 05 	call	0xbbc	; 0xbbc <__udivmodqi4>
 148:	80 93 97 00 	sts	0x0097, r24	; 0x800097 <leftSegment>
 14c:	90 93 96 00 	sts	0x0096, r25	; 0x800096 <rightSegment>
 150:	08 95       	ret

00000152 <STOP_watch_delay_s>:
 152:	cf 93       	push	r28
 154:	df 93       	push	r29
 156:	c0 e0       	ldi	r28, 0x00	; 0
 158:	d0 e0       	ldi	r29, 0x00	; 0
 15a:	80 91 60 00 	lds	r24, 0x0060	; 0x800060 <__DATA_REGION_ORIGIN__>
 15e:	81 30       	cpi	r24, 0x01	; 1
 160:	b9 f4       	brne	.+46     	; 0x190 <STOP_watch_delay_s+0x3e>
 162:	80 91 92 00 	lds	r24, 0x0092	; 0x800092 <__data_end>
 166:	81 11       	cpse	r24, r1
 168:	13 c0       	rjmp	.+38     	; 0x190 <STOP_watch_delay_s+0x3e>
 16a:	85 e7       	ldi	r24, 0x75	; 117
 16c:	90 e0       	ldi	r25, 0x00	; 0
 16e:	0e 94 ed 00 	call	0x1da	; 0x1da <BUTTON1_IfPressed_PeriodicCheck>
 172:	87 e6       	ldi	r24, 0x67	; 103
 174:	90 e0       	ldi	r25, 0x00	; 0
 176:	0e 94 05 01 	call	0x20a	; 0x20a <BUTTON2_IfPressed_PeriodicCheck>
 17a:	8d e7       	ldi	r24, 0x7D	; 125
 17c:	90 e0       	ldi	r25, 0x00	; 0
 17e:	0e 94 1d 01 	call	0x23a	; 0x23a <BUTTON_mode_IfPressed_PeriodicCheck>
 182:	0e 94 88 00 	call	0x110	; 0x110 <STOP_Watch_segments>
 186:	21 96       	adiw	r28, 0x01	; 1
 188:	c4 3f       	cpi	r28, 0xF4	; 244
 18a:	81 e0       	ldi	r24, 0x01	; 1
 18c:	d8 07       	cpc	r29, r24
 18e:	29 f7       	brne	.-54     	; 0x15a <STOP_watch_delay_s+0x8>
 190:	df 91       	pop	r29
 192:	cf 91       	pop	r28
 194:	08 95       	ret

00000196 <STOP_Watch_workingMode>:
 196:	80 91 60 00 	lds	r24, 0x0060	; 0x800060 <__DATA_REGION_ORIGIN__>
 19a:	81 30       	cpi	r24, 0x01	; 1
 19c:	51 f4       	brne	.+20     	; 0x1b2 <STOP_Watch_workingMode+0x1c>
 19e:	0e 94 a9 00 	call	0x152	; 0x152 <STOP_watch_delay_s>
 1a2:	80 91 92 00 	lds	r24, 0x0092	; 0x800092 <__data_end>
 1a6:	81 11       	cpse	r24, r1
 1a8:	02 c0       	rjmp	.+4      	; 0x1ae <STOP_Watch_workingMode+0x18>
 1aa:	0e 94 92 00 	call	0x124	; 0x124 <STOP_Watch_countingDown>
 1ae:	10 92 92 00 	sts	0x0092, r1	; 0x800092 <__data_end>
 1b2:	08 95       	ret

000001b4 <STOP_Watch_AdjustMode>:
 1b4:	80 91 60 00 	lds	r24, 0x0060	; 0x800060 <__DATA_REGION_ORIGIN__>
 1b8:	81 11       	cpse	r24, r1
 1ba:	0e c0       	rjmp	.+28     	; 0x1d8 <STOP_Watch_AdjustMode+0x24>
 1bc:	89 e4       	ldi	r24, 0x49	; 73
 1be:	90 e0       	ldi	r25, 0x00	; 0
 1c0:	0e 94 ed 00 	call	0x1da	; 0x1da <BUTTON1_IfPressed_PeriodicCheck>
 1c4:	88 e5       	ldi	r24, 0x58	; 88
 1c6:	90 e0       	ldi	r25, 0x00	; 0
 1c8:	0e 94 05 01 	call	0x20a	; 0x20a <BUTTON2_IfPressed_PeriodicCheck>
 1cc:	8d e7       	ldi	r24, 0x7D	; 125
 1ce:	90 e0       	ldi	r25, 0x00	; 0
 1d0:	0e 94 1d 01 	call	0x23a	; 0x23a <BUTTON_mode_IfPressed_PeriodicCheck>
 1d4:	0c 94 88 00 	jmp	0x110	; 0x110 <STOP_Watch_segments>
 1d8:	08 95       	ret

000001da <BUTTON1_IfPressed_PeriodicCheck>:
 1da:	cf 93       	push	r28
 1dc:	df 93       	push	r29
 1de:	ec 01       	movw	r28, r24
 1e0:	80 e1       	ldi	r24, 0x10	; 16
 1e2:	0e 94 a4 03 	call	0x748	; 0x748 <DIO_ReadPin>
 1e6:	81 11       	cpse	r24, r1
 1e8:	0b c0       	rjmp	.+22     	; 0x200 <BUTTON1_IfPressed_PeriodicCheck+0x26>
 1ea:	80 91 9a 00 	lds	r24, 0x009A	; 0x80009a <pressedFlag.1806>
 1ee:	81 11       	cpse	r24, r1
 1f0:	09 c0       	rjmp	.+18     	; 0x204 <BUTTON1_IfPressed_PeriodicCheck+0x2a>
 1f2:	81 e0       	ldi	r24, 0x01	; 1
 1f4:	80 93 9a 00 	sts	0x009A, r24	; 0x80009a <pressedFlag.1806>
 1f8:	fe 01       	movw	r30, r28
 1fa:	df 91       	pop	r29
 1fc:	cf 91       	pop	r28
 1fe:	09 94       	ijmp
 200:	10 92 9a 00 	sts	0x009A, r1	; 0x80009a <pressedFlag.1806>
 204:	df 91       	pop	r29
 206:	cf 91       	pop	r28
 208:	08 95       	ret

0000020a <BUTTON2_IfPressed_PeriodicCheck>:
 20a:	cf 93       	push	r28
 20c:	df 93       	push	r29
 20e:	ec 01       	movw	r28, r24
 210:	84 e1       	ldi	r24, 0x14	; 20
 212:	0e 94 a4 03 	call	0x748	; 0x748 <DIO_ReadPin>
 216:	81 11       	cpse	r24, r1
 218:	0b c0       	rjmp	.+22     	; 0x230 <BUTTON2_IfPressed_PeriodicCheck+0x26>
 21a:	80 91 99 00 	lds	r24, 0x0099	; 0x800099 <pressedFlag.1811>
 21e:	81 11       	cpse	r24, r1
 220:	09 c0       	rjmp	.+18     	; 0x234 <BUTTON2_IfPressed_PeriodicCheck+0x2a>
 222:	81 e0       	ldi	r24, 0x01	; 1
 224:	80 93 99 00 	sts	0x0099, r24	; 0x800099 <pressedFlag.1811>
 228:	fe 01       	movw	r30, r28
 22a:	df 91       	pop	r29
 22c:	cf 91       	pop	r28
 22e:	09 94       	ijmp
 230:	10 92 99 00 	sts	0x0099, r1	; 0x800099 <pressedFlag.1811>
 234:	df 91       	pop	r29
 236:	cf 91       	pop	r28
 238:	08 95       	ret

0000023a <BUTTON_mode_IfPressed_PeriodicCheck>:
 23a:	cf 93       	push	r28
 23c:	df 93       	push	r29
 23e:	ec 01       	movw	r28, r24
 240:	8f e1       	ldi	r24, 0x1F	; 31
 242:	0e 94 a4 03 	call	0x748	; 0x748 <DIO_ReadPin>
 246:	81 11       	cpse	r24, r1
 248:	0b c0       	rjmp	.+22     	; 0x260 <BUTTON_mode_IfPressed_PeriodicCheck+0x26>
 24a:	80 91 98 00 	lds	r24, 0x0098	; 0x800098 <pressedFlag.1816>
 24e:	81 11       	cpse	r24, r1
 250:	09 c0       	rjmp	.+18     	; 0x264 <BUTTON_mode_IfPressed_PeriodicCheck+0x2a>
 252:	81 e0       	ldi	r24, 0x01	; 1
 254:	80 93 98 00 	sts	0x0098, r24	; 0x800098 <pressedFlag.1816>
 258:	fe 01       	movw	r30, r28
 25a:	df 91       	pop	r29
 25c:	cf 91       	pop	r28
 25e:	09 94       	ijmp
 260:	10 92 98 00 	sts	0x0098, r1	; 0x800098 <pressedFlag.1816>
 264:	df 91       	pop	r29
 266:	cf 91       	pop	r28
 268:	08 95       	ret

0000026a <SEGMENTS_EachPin_Of7Pins>:
 26a:	af 92       	push	r10
 26c:	cf 92       	push	r12
 26e:	ef 92       	push	r14
 270:	0f 93       	push	r16
 272:	1f 93       	push	r17
 274:	cf 93       	push	r28
 276:	df 93       	push	r29
 278:	c8 2f       	mov	r28, r24
 27a:	86 2f       	mov	r24, r22
 27c:	14 2f       	mov	r17, r20
 27e:	d2 2f       	mov	r29, r18
 280:	6c 2f       	mov	r22, r28
 282:	61 70       	andi	r22, 0x01	; 1
 284:	0e 94 ee 02 	call	0x5dc	; 0x5dc <DIO_WritePin>
 288:	c1 fb       	bst	r28, 1
 28a:	66 27       	eor	r22, r22
 28c:	60 f9       	bld	r22, 0
 28e:	81 2f       	mov	r24, r17
 290:	0e 94 ee 02 	call	0x5dc	; 0x5dc <DIO_WritePin>
 294:	c2 fb       	bst	r28, 2
 296:	66 27       	eor	r22, r22
 298:	60 f9       	bld	r22, 0
 29a:	8d 2f       	mov	r24, r29
 29c:	0e 94 ee 02 	call	0x5dc	; 0x5dc <DIO_WritePin>
 2a0:	c3 fb       	bst	r28, 3
 2a2:	66 27       	eor	r22, r22
 2a4:	60 f9       	bld	r22, 0
 2a6:	80 2f       	mov	r24, r16
 2a8:	0e 94 ee 02 	call	0x5dc	; 0x5dc <DIO_WritePin>
 2ac:	c4 fb       	bst	r28, 4
 2ae:	66 27       	eor	r22, r22
 2b0:	60 f9       	bld	r22, 0
 2b2:	8e 2d       	mov	r24, r14
 2b4:	0e 94 ee 02 	call	0x5dc	; 0x5dc <DIO_WritePin>
 2b8:	c5 fb       	bst	r28, 5
 2ba:	66 27       	eor	r22, r22
 2bc:	60 f9       	bld	r22, 0
 2be:	8c 2d       	mov	r24, r12
 2c0:	0e 94 ee 02 	call	0x5dc	; 0x5dc <DIO_WritePin>
 2c4:	c6 fb       	bst	r28, 6
 2c6:	66 27       	eor	r22, r22
 2c8:	60 f9       	bld	r22, 0
 2ca:	8a 2d       	mov	r24, r10
 2cc:	df 91       	pop	r29
 2ce:	cf 91       	pop	r28
 2d0:	1f 91       	pop	r17
 2d2:	0f 91       	pop	r16
 2d4:	ef 90       	pop	r14
 2d6:	cf 90       	pop	r12
 2d8:	af 90       	pop	r10
 2da:	0c 94 ee 02 	jmp	0x5dc	; 0x5dc <DIO_WritePin>

000002de <SEGMENTS_STOP_Watch>:
 2de:	af 92       	push	r10
 2e0:	cf 92       	push	r12
 2e2:	ef 92       	push	r14
 2e4:	0f 93       	push	r16
 2e6:	cf 93       	push	r28
 2e8:	c8 2f       	mov	r28, r24
 2ea:	61 e0       	ldi	r22, 0x01	; 1
 2ec:	89 e0       	ldi	r24, 0x09	; 9
 2ee:	c4 36       	cpi	r28, 0x64	; 100
 2f0:	98 f5       	brcc	.+102    	; 0x358 <SEGMENTS_STOP_Watch+0x7a>
 2f2:	0e 94 ee 02 	call	0x5dc	; 0x5dc <DIO_WritePin>
 2f6:	60 e0       	ldi	r22, 0x00	; 0
 2f8:	88 e0       	ldi	r24, 0x08	; 8
 2fa:	0e 94 ee 02 	call	0x5dc	; 0x5dc <DIO_WritePin>
 2fe:	8c 2f       	mov	r24, r28
 300:	6a e0       	ldi	r22, 0x0A	; 10
 302:	0e 94 de 05 	call	0xbbc	; 0xbbc <__udivmodqi4>
 306:	c9 2f       	mov	r28, r25
 308:	e8 2f       	mov	r30, r24
 30a:	f0 e0       	ldi	r31, 0x00	; 0
 30c:	ef 59       	subi	r30, 0x9F	; 159
 30e:	ff 4f       	sbci	r31, 0xFF	; 255
 310:	37 e0       	ldi	r19, 0x07	; 7
 312:	a3 2e       	mov	r10, r19
 314:	46 e0       	ldi	r20, 0x06	; 6
 316:	c4 2e       	mov	r12, r20
 318:	55 e0       	ldi	r21, 0x05	; 5
 31a:	e5 2e       	mov	r14, r21
 31c:	04 e0       	ldi	r16, 0x04	; 4
 31e:	23 e0       	ldi	r18, 0x03	; 3
 320:	42 e0       	ldi	r20, 0x02	; 2
 322:	61 e0       	ldi	r22, 0x01	; 1
 324:	80 81       	ld	r24, Z
 326:	0e 94 35 01 	call	0x26a	; 0x26a <SEGMENTS_EachPin_Of7Pins>
 32a:	8f ec       	ldi	r24, 0xCF	; 207
 32c:	97 e0       	ldi	r25, 0x07	; 7
 32e:	01 97       	sbiw	r24, 0x01	; 1
 330:	f1 f7       	brne	.-4      	; 0x32e <SEGMENTS_STOP_Watch+0x50>
 332:	00 c0       	rjmp	.+0      	; 0x334 <SEGMENTS_STOP_Watch+0x56>
 334:	00 00       	nop
 336:	61 e0       	ldi	r22, 0x01	; 1
 338:	88 e0       	ldi	r24, 0x08	; 8
 33a:	0e 94 ee 02 	call	0x5dc	; 0x5dc <DIO_WritePin>
 33e:	60 e0       	ldi	r22, 0x00	; 0
 340:	89 e0       	ldi	r24, 0x09	; 9
 342:	0e 94 ee 02 	call	0x5dc	; 0x5dc <DIO_WritePin>
 346:	ec 2f       	mov	r30, r28
 348:	f0 e0       	ldi	r31, 0x00	; 0
 34a:	ef 59       	subi	r30, 0x9F	; 159
 34c:	ff 4f       	sbci	r31, 0xFF	; 255
 34e:	23 e0       	ldi	r18, 0x03	; 3
 350:	42 e0       	ldi	r20, 0x02	; 2
 352:	61 e0       	ldi	r22, 0x01	; 1
 354:	80 81       	ld	r24, Z
 356:	25 c0       	rjmp	.+74     	; 0x3a2 <SEGMENTS_STOP_Watch+0xc4>
 358:	0e 94 ee 02 	call	0x5dc	; 0x5dc <DIO_WritePin>
 35c:	60 e0       	ldi	r22, 0x00	; 0
 35e:	88 e0       	ldi	r24, 0x08	; 8
 360:	0e 94 ee 02 	call	0x5dc	; 0x5dc <DIO_WritePin>
 364:	87 e0       	ldi	r24, 0x07	; 7
 366:	a8 2e       	mov	r10, r24
 368:	96 e0       	ldi	r25, 0x06	; 6
 36a:	c9 2e       	mov	r12, r25
 36c:	25 e0       	ldi	r18, 0x05	; 5
 36e:	e2 2e       	mov	r14, r18
 370:	04 e0       	ldi	r16, 0x04	; 4
 372:	23 e0       	ldi	r18, 0x03	; 3
 374:	42 e0       	ldi	r20, 0x02	; 2
 376:	61 e0       	ldi	r22, 0x01	; 1
 378:	80 e0       	ldi	r24, 0x00	; 0
 37a:	0e 94 35 01 	call	0x26a	; 0x26a <SEGMENTS_EachPin_Of7Pins>
 37e:	8f ec       	ldi	r24, 0xCF	; 207
 380:	97 e0       	ldi	r25, 0x07	; 7
 382:	01 97       	sbiw	r24, 0x01	; 1
 384:	f1 f7       	brne	.-4      	; 0x382 <SEGMENTS_STOP_Watch+0xa4>
 386:	00 c0       	rjmp	.+0      	; 0x388 <SEGMENTS_STOP_Watch+0xaa>
 388:	00 00       	nop
 38a:	61 e0       	ldi	r22, 0x01	; 1
 38c:	88 e0       	ldi	r24, 0x08	; 8
 38e:	0e 94 ee 02 	call	0x5dc	; 0x5dc <DIO_WritePin>
 392:	60 e0       	ldi	r22, 0x00	; 0
 394:	89 e0       	ldi	r24, 0x09	; 9
 396:	0e 94 ee 02 	call	0x5dc	; 0x5dc <DIO_WritePin>
 39a:	23 e0       	ldi	r18, 0x03	; 3
 39c:	42 e0       	ldi	r20, 0x02	; 2
 39e:	61 e0       	ldi	r22, 0x01	; 1
 3a0:	80 e0       	ldi	r24, 0x00	; 0
 3a2:	0e 94 35 01 	call	0x26a	; 0x26a <SEGMENTS_EachPin_Of7Pins>
 3a6:	8f ec       	ldi	r24, 0xCF	; 207
 3a8:	97 e0       	ldi	r25, 0x07	; 7
 3aa:	01 97       	sbiw	r24, 0x01	; 1
 3ac:	f1 f7       	brne	.-4      	; 0x3aa <SEGMENTS_STOP_Watch+0xcc>
 3ae:	00 c0       	rjmp	.+0      	; 0x3b0 <SEGMENTS_STOP_Watch+0xd2>
 3b0:	00 00       	nop
 3b2:	cf 91       	pop	r28
 3b4:	0f 91       	pop	r16
 3b6:	ef 90       	pop	r14
 3b8:	cf 90       	pop	r12
 3ba:	af 90       	pop	r10
 3bc:	08 95       	ret

000003be <main>:
 3be:	0e 94 0f 02 	call	0x41e	; 0x41e <DIO_Init>
 3c2:	0e 94 cb 00 	call	0x196	; 0x196 <STOP_Watch_workingMode>
 3c6:	0e 94 da 00 	call	0x1b4	; 0x1b4 <STOP_Watch_AdjustMode>
 3ca:	fb cf       	rjmp	.-10     	; 0x3c2 <main+0x4>

000003cc <__vector_16>:
 3cc:	1f 92       	push	r1
 3ce:	0f 92       	push	r0
 3d0:	0f b6       	in	r0, 0x3f	; 63
 3d2:	0f 92       	push	r0
 3d4:	11 24       	eor	r1, r1
 3d6:	2f 93       	push	r18
 3d8:	3f 93       	push	r19
 3da:	4f 93       	push	r20
 3dc:	5f 93       	push	r21
 3de:	6f 93       	push	r22
 3e0:	7f 93       	push	r23
 3e2:	8f 93       	push	r24
 3e4:	9f 93       	push	r25
 3e6:	af 93       	push	r26
 3e8:	bf 93       	push	r27
 3ea:	ef 93       	push	r30
 3ec:	ff 93       	push	r31
 3ee:	e0 91 9b 00 	lds	r30, 0x009B	; 0x80009b <funcptr>
 3f2:	f0 91 9c 00 	lds	r31, 0x009C	; 0x80009c <funcptr+0x1>
 3f6:	30 97       	sbiw	r30, 0x00	; 0
 3f8:	09 f0       	breq	.+2      	; 0x3fc <__vector_16+0x30>
 3fa:	09 95       	icall
 3fc:	ff 91       	pop	r31
 3fe:	ef 91       	pop	r30
 400:	bf 91       	pop	r27
 402:	af 91       	pop	r26
 404:	9f 91       	pop	r25
 406:	8f 91       	pop	r24
 408:	7f 91       	pop	r23
 40a:	6f 91       	pop	r22
 40c:	5f 91       	pop	r21
 40e:	4f 91       	pop	r20
 410:	3f 91       	pop	r19
 412:	2f 91       	pop	r18
 414:	0f 90       	pop	r0
 416:	0f be       	out	0x3f, r0	; 63
 418:	0f 90       	pop	r0
 41a:	1f 90       	pop	r1
 41c:	18 95       	reti

0000041e <DIO_Init>:
 41e:	cf 93       	push	r28
 420:	df 93       	push	r29
 422:	e1 e7       	ldi	r30, 0x71	; 113
 424:	f0 e0       	ldi	r31, 0x00	; 0
 426:	20 ef       	ldi	r18, 0xF0	; 240
 428:	a8 ee       	ldi	r26, 0xE8	; 232
 42a:	38 ef       	ldi	r19, 0xF8	; 248
 42c:	40 e0       	ldi	r20, 0x00	; 0
 42e:	50 e0       	ldi	r21, 0x00	; 0
 430:	81 e0       	ldi	r24, 0x01	; 1
 432:	90 e0       	ldi	r25, 0x00	; 0
 434:	71 91       	ld	r23, Z+
 436:	71 11       	cpse	r23, r1
 438:	3c c0       	rjmp	.+120    	; 0x4b2 <DIO_Init+0x94>
 43a:	48 30       	cpi	r20, 0x08	; 8
 43c:	78 f4       	brcc	.+30     	; 0x45c <DIO_Init+0x3e>
 43e:	ba b3       	in	r27, 0x1a	; 26
 440:	ec 01       	movw	r28, r24
 442:	04 2e       	mov	r0, r20
 444:	02 c0       	rjmp	.+4      	; 0x44a <DIO_Init+0x2c>
 446:	cc 0f       	add	r28, r28
 448:	dd 1f       	adc	r29, r29
 44a:	0a 94       	dec	r0
 44c:	e2 f7       	brpl	.-8      	; 0x446 <DIO_Init+0x28>
 44e:	be 01       	movw	r22, r28
 450:	7b 2f       	mov	r23, r27
 452:	76 2b       	or	r23, r22
 454:	7a bb       	out	0x1a, r23	; 26
 456:	7b b3       	in	r23, 0x1b	; 27
 458:	60 95       	com	r22
 45a:	3e c0       	rjmp	.+124    	; 0x4d8 <DIO_Init+0xba>
 45c:	38 30       	cpi	r19, 0x08	; 8
 45e:	68 f4       	brcc	.+26     	; 0x47a <DIO_Init+0x5c>
 460:	b7 b3       	in	r27, 0x17	; 23
 462:	bc 01       	movw	r22, r24
 464:	03 2e       	mov	r0, r19
 466:	01 c0       	rjmp	.+2      	; 0x46a <DIO_Init+0x4c>
 468:	66 0f       	add	r22, r22
 46a:	0a 94       	dec	r0
 46c:	ea f7       	brpl	.-6      	; 0x468 <DIO_Init+0x4a>
 46e:	7b 2f       	mov	r23, r27
 470:	76 2b       	or	r23, r22
 472:	77 bb       	out	0x17, r23	; 23
 474:	78 b3       	in	r23, 0x18	; 24
 476:	60 95       	com	r22
 478:	3f c0       	rjmp	.+126    	; 0x4f8 <DIO_Init+0xda>
 47a:	28 30       	cpi	r18, 0x08	; 8
 47c:	68 f4       	brcc	.+26     	; 0x498 <DIO_Init+0x7a>
 47e:	b4 b3       	in	r27, 0x14	; 20
 480:	bc 01       	movw	r22, r24
 482:	02 2e       	mov	r0, r18
 484:	01 c0       	rjmp	.+2      	; 0x488 <DIO_Init+0x6a>
 486:	66 0f       	add	r22, r22
 488:	0a 94       	dec	r0
 48a:	ea f7       	brpl	.-6      	; 0x486 <DIO_Init+0x68>
 48c:	7b 2f       	mov	r23, r27
 48e:	76 2b       	or	r23, r22
 490:	74 bb       	out	0x14, r23	; 20
 492:	75 b3       	in	r23, 0x15	; 21
 494:	60 95       	com	r22
 496:	40 c0       	rjmp	.+128    	; 0x518 <DIO_Init+0xfa>
 498:	b1 b3       	in	r27, 0x11	; 17
 49a:	bc 01       	movw	r22, r24
 49c:	0a 2e       	mov	r0, r26
 49e:	01 c0       	rjmp	.+2      	; 0x4a2 <DIO_Init+0x84>
 4a0:	66 0f       	add	r22, r22
 4a2:	0a 94       	dec	r0
 4a4:	ea f7       	brpl	.-6      	; 0x4a0 <DIO_Init+0x82>
 4a6:	7b 2f       	mov	r23, r27
 4a8:	76 2b       	or	r23, r22
 4aa:	71 bb       	out	0x11, r23	; 17
 4ac:	72 b3       	in	r23, 0x12	; 18
 4ae:	60 95       	com	r22
 4b0:	41 c0       	rjmp	.+130    	; 0x534 <DIO_Init+0x116>
 4b2:	71 30       	cpi	r23, 0x01	; 1
 4b4:	09 f0       	breq	.+2      	; 0x4b8 <DIO_Init+0x9a>
 4b6:	40 c0       	rjmp	.+128    	; 0x538 <DIO_Init+0x11a>
 4b8:	48 30       	cpi	r20, 0x08	; 8
 4ba:	80 f4       	brcc	.+32     	; 0x4dc <DIO_Init+0xbe>
 4bc:	ba b3       	in	r27, 0x1a	; 26
 4be:	ec 01       	movw	r28, r24
 4c0:	04 2e       	mov	r0, r20
 4c2:	02 c0       	rjmp	.+4      	; 0x4c8 <DIO_Init+0xaa>
 4c4:	cc 0f       	add	r28, r28
 4c6:	dd 1f       	adc	r29, r29
 4c8:	0a 94       	dec	r0
 4ca:	e2 f7       	brpl	.-8      	; 0x4c4 <DIO_Init+0xa6>
 4cc:	be 01       	movw	r22, r28
 4ce:	60 95       	com	r22
 4d0:	7b 2f       	mov	r23, r27
 4d2:	76 23       	and	r23, r22
 4d4:	7a bb       	out	0x1a, r23	; 26
 4d6:	7b b3       	in	r23, 0x1b	; 27
 4d8:	67 23       	and	r22, r23
 4da:	42 c0       	rjmp	.+132    	; 0x560 <DIO_Init+0x142>
 4dc:	38 30       	cpi	r19, 0x08	; 8
 4de:	70 f4       	brcc	.+28     	; 0x4fc <DIO_Init+0xde>
 4e0:	b7 b3       	in	r27, 0x17	; 23
 4e2:	bc 01       	movw	r22, r24
 4e4:	03 2e       	mov	r0, r19
 4e6:	01 c0       	rjmp	.+2      	; 0x4ea <DIO_Init+0xcc>
 4e8:	66 0f       	add	r22, r22
 4ea:	0a 94       	dec	r0
 4ec:	ea f7       	brpl	.-6      	; 0x4e8 <DIO_Init+0xca>
 4ee:	60 95       	com	r22
 4f0:	7b 2f       	mov	r23, r27
 4f2:	76 23       	and	r23, r22
 4f4:	77 bb       	out	0x17, r23	; 23
 4f6:	78 b3       	in	r23, 0x18	; 24
 4f8:	67 23       	and	r22, r23
 4fa:	43 c0       	rjmp	.+134    	; 0x582 <DIO_Init+0x164>
 4fc:	28 30       	cpi	r18, 0x08	; 8
 4fe:	70 f4       	brcc	.+28     	; 0x51c <DIO_Init+0xfe>
 500:	b4 b3       	in	r27, 0x14	; 20
 502:	bc 01       	movw	r22, r24
 504:	02 2e       	mov	r0, r18
 506:	01 c0       	rjmp	.+2      	; 0x50a <DIO_Init+0xec>
 508:	66 0f       	add	r22, r22
 50a:	0a 94       	dec	r0
 50c:	ea f7       	brpl	.-6      	; 0x508 <DIO_Init+0xea>
 50e:	60 95       	com	r22
 510:	7b 2f       	mov	r23, r27
 512:	76 23       	and	r23, r22
 514:	74 bb       	out	0x14, r23	; 20
 516:	75 b3       	in	r23, 0x15	; 21
 518:	67 23       	and	r22, r23
 51a:	44 c0       	rjmp	.+136    	; 0x5a4 <DIO_Init+0x186>
 51c:	b1 b3       	in	r27, 0x11	; 17
 51e:	bc 01       	movw	r22, r24
 520:	0a 2e       	mov	r0, r26
 522:	01 c0       	rjmp	.+2      	; 0x526 <DIO_Init+0x108>
 524:	66 0f       	add	r22, r22
 526:	0a 94       	dec	r0
 528:	ea f7       	brpl	.-6      	; 0x524 <DIO_Init+0x106>
 52a:	60 95       	com	r22
 52c:	7b 2f       	mov	r23, r27
 52e:	76 23       	and	r23, r22
 530:	71 bb       	out	0x11, r23	; 17
 532:	72 b3       	in	r23, 0x12	; 18
 534:	67 23       	and	r22, r23
 536:	45 c0       	rjmp	.+138    	; 0x5c2 <DIO_Init+0x1a4>
 538:	72 30       	cpi	r23, 0x02	; 2
 53a:	09 f0       	breq	.+2      	; 0x53e <DIO_Init+0x120>
 53c:	43 c0       	rjmp	.+134    	; 0x5c4 <DIO_Init+0x1a6>
 53e:	48 30       	cpi	r20, 0x08	; 8
 540:	88 f4       	brcc	.+34     	; 0x564 <DIO_Init+0x146>
 542:	ba b3       	in	r27, 0x1a	; 26
 544:	ec 01       	movw	r28, r24
 546:	04 2e       	mov	r0, r20
 548:	02 c0       	rjmp	.+4      	; 0x54e <DIO_Init+0x130>
 54a:	cc 0f       	add	r28, r28
 54c:	dd 1f       	adc	r29, r29
 54e:	0a 94       	dec	r0
 550:	e2 f7       	brpl	.-8      	; 0x54a <DIO_Init+0x12c>
 552:	be 01       	movw	r22, r28
 554:	7c 2f       	mov	r23, r28
 556:	70 95       	com	r23
 558:	7b 23       	and	r23, r27
 55a:	7a bb       	out	0x1a, r23	; 26
 55c:	7b b3       	in	r23, 0x1b	; 27
 55e:	67 2b       	or	r22, r23
 560:	6b bb       	out	0x1b, r22	; 27
 562:	30 c0       	rjmp	.+96     	; 0x5c4 <DIO_Init+0x1a6>
 564:	38 30       	cpi	r19, 0x08	; 8
 566:	78 f4       	brcc	.+30     	; 0x586 <DIO_Init+0x168>
 568:	b7 b3       	in	r27, 0x17	; 23
 56a:	bc 01       	movw	r22, r24
 56c:	03 2e       	mov	r0, r19
 56e:	01 c0       	rjmp	.+2      	; 0x572 <DIO_Init+0x154>
 570:	66 0f       	add	r22, r22
 572:	0a 94       	dec	r0
 574:	ea f7       	brpl	.-6      	; 0x570 <DIO_Init+0x152>
 576:	76 2f       	mov	r23, r22
 578:	70 95       	com	r23
 57a:	7b 23       	and	r23, r27
 57c:	77 bb       	out	0x17, r23	; 23
 57e:	78 b3       	in	r23, 0x18	; 24
 580:	67 2b       	or	r22, r23
 582:	68 bb       	out	0x18, r22	; 24
 584:	1f c0       	rjmp	.+62     	; 0x5c4 <DIO_Init+0x1a6>
 586:	28 30       	cpi	r18, 0x08	; 8
 588:	78 f4       	brcc	.+30     	; 0x5a8 <DIO_Init+0x18a>
 58a:	b4 b3       	in	r27, 0x14	; 20
 58c:	bc 01       	movw	r22, r24
 58e:	02 2e       	mov	r0, r18
 590:	01 c0       	rjmp	.+2      	; 0x594 <DIO_Init+0x176>
 592:	66 0f       	add	r22, r22
 594:	0a 94       	dec	r0
 596:	ea f7       	brpl	.-6      	; 0x592 <DIO_Init+0x174>
 598:	76 2f       	mov	r23, r22
 59a:	70 95       	com	r23
 59c:	7b 23       	and	r23, r27
 59e:	74 bb       	out	0x14, r23	; 20
 5a0:	75 b3       	in	r23, 0x15	; 21
 5a2:	67 2b       	or	r22, r23
 5a4:	65 bb       	out	0x15, r22	; 21
 5a6:	0e c0       	rjmp	.+28     	; 0x5c4 <DIO_Init+0x1a6>
 5a8:	b1 b3       	in	r27, 0x11	; 17
 5aa:	bc 01       	movw	r22, r24
 5ac:	0a 2e       	mov	r0, r26
 5ae:	01 c0       	rjmp	.+2      	; 0x5b2 <DIO_Init+0x194>
 5b0:	66 0f       	add	r22, r22
 5b2:	0a 94       	dec	r0
 5b4:	ea f7       	brpl	.-6      	; 0x5b0 <DIO_Init+0x192>
 5b6:	76 2f       	mov	r23, r22
 5b8:	70 95       	com	r23
 5ba:	7b 23       	and	r23, r27
 5bc:	71 bb       	out	0x11, r23	; 17
 5be:	72 b3       	in	r23, 0x12	; 18
 5c0:	67 2b       	or	r22, r23
 5c2:	62 bb       	out	0x12, r22	; 18
 5c4:	4f 5f       	subi	r20, 0xFF	; 255
 5c6:	5f 4f       	sbci	r21, 0xFF	; 255
 5c8:	3f 5f       	subi	r19, 0xFF	; 255
 5ca:	af 5f       	subi	r26, 0xFF	; 255
 5cc:	2f 5f       	subi	r18, 0xFF	; 255
 5ce:	40 32       	cpi	r20, 0x20	; 32
 5d0:	51 05       	cpc	r21, r1
 5d2:	09 f0       	breq	.+2      	; 0x5d6 <DIO_Init+0x1b8>
 5d4:	2f cf       	rjmp	.-418    	; 0x434 <DIO_Init+0x16>
 5d6:	df 91       	pop	r29
 5d8:	cf 91       	pop	r28
 5da:	08 95       	ret

000005dc <DIO_WritePin>:
 5dc:	61 11       	cpse	r22, r1
 5de:	3c c0       	rjmp	.+120    	; 0x658 <DIO_WritePin+0x7c>
 5e0:	88 30       	cpi	r24, 0x08	; 8
 5e2:	68 f4       	brcc	.+26     	; 0x5fe <DIO_WritePin+0x22>
 5e4:	4b b3       	in	r20, 0x1b	; 27
 5e6:	21 e0       	ldi	r18, 0x01	; 1
 5e8:	30 e0       	ldi	r19, 0x00	; 0
 5ea:	b9 01       	movw	r22, r18
 5ec:	02 c0       	rjmp	.+4      	; 0x5f2 <DIO_WritePin+0x16>
 5ee:	66 0f       	add	r22, r22
 5f0:	77 1f       	adc	r23, r23
 5f2:	8a 95       	dec	r24
 5f4:	e2 f7       	brpl	.-8      	; 0x5ee <DIO_WritePin+0x12>
 5f6:	cb 01       	movw	r24, r22
 5f8:	80 95       	com	r24
 5fa:	84 23       	and	r24, r20
 5fc:	3c c0       	rjmp	.+120    	; 0x676 <DIO_WritePin+0x9a>
 5fe:	38 ef       	ldi	r19, 0xF8	; 248
 600:	38 0f       	add	r19, r24
 602:	38 30       	cpi	r19, 0x08	; 8
 604:	50 f4       	brcc	.+20     	; 0x61a <DIO_WritePin+0x3e>
 606:	28 b3       	in	r18, 0x18	; 24
 608:	81 e0       	ldi	r24, 0x01	; 1
 60a:	90 e0       	ldi	r25, 0x00	; 0
 60c:	01 c0       	rjmp	.+2      	; 0x610 <DIO_WritePin+0x34>
 60e:	88 0f       	add	r24, r24
 610:	3a 95       	dec	r19
 612:	ea f7       	brpl	.-6      	; 0x60e <DIO_WritePin+0x32>
 614:	80 95       	com	r24
 616:	82 23       	and	r24, r18
 618:	3c c0       	rjmp	.+120    	; 0x692 <DIO_WritePin+0xb6>
 61a:	30 ef       	ldi	r19, 0xF0	; 240
 61c:	38 0f       	add	r19, r24
 61e:	38 30       	cpi	r19, 0x08	; 8
 620:	50 f4       	brcc	.+20     	; 0x636 <DIO_WritePin+0x5a>
 622:	25 b3       	in	r18, 0x15	; 21
 624:	81 e0       	ldi	r24, 0x01	; 1
 626:	90 e0       	ldi	r25, 0x00	; 0
 628:	01 c0       	rjmp	.+2      	; 0x62c <DIO_WritePin+0x50>
 62a:	88 0f       	add	r24, r24
 62c:	3a 95       	dec	r19
 62e:	ea f7       	brpl	.-6      	; 0x62a <DIO_WritePin+0x4e>
 630:	80 95       	com	r24
 632:	82 23       	and	r24, r18
 634:	3c c0       	rjmp	.+120    	; 0x6ae <DIO_WritePin+0xd2>
 636:	88 51       	subi	r24, 0x18	; 24
 638:	88 30       	cpi	r24, 0x08	; 8
 63a:	08 f0       	brcs	.+2      	; 0x63e <DIO_WritePin+0x62>
 63c:	49 c0       	rjmp	.+146    	; 0x6d0 <DIO_WritePin+0xf4>
 63e:	42 b3       	in	r20, 0x12	; 18
 640:	21 e0       	ldi	r18, 0x01	; 1
 642:	30 e0       	ldi	r19, 0x00	; 0
 644:	b9 01       	movw	r22, r18
 646:	02 c0       	rjmp	.+4      	; 0x64c <DIO_WritePin+0x70>
 648:	66 0f       	add	r22, r22
 64a:	77 1f       	adc	r23, r23
 64c:	8a 95       	dec	r24
 64e:	e2 f7       	brpl	.-8      	; 0x648 <DIO_WritePin+0x6c>
 650:	cb 01       	movw	r24, r22
 652:	80 95       	com	r24
 654:	84 23       	and	r24, r20
 656:	3b c0       	rjmp	.+118    	; 0x6ce <DIO_WritePin+0xf2>
 658:	61 30       	cpi	r22, 0x01	; 1
 65a:	d1 f5       	brne	.+116    	; 0x6d0 <DIO_WritePin+0xf4>
 65c:	88 30       	cpi	r24, 0x08	; 8
 65e:	68 f4       	brcc	.+26     	; 0x67a <DIO_WritePin+0x9e>
 660:	4b b3       	in	r20, 0x1b	; 27
 662:	21 e0       	ldi	r18, 0x01	; 1
 664:	30 e0       	ldi	r19, 0x00	; 0
 666:	b9 01       	movw	r22, r18
 668:	02 c0       	rjmp	.+4      	; 0x66e <DIO_WritePin+0x92>
 66a:	66 0f       	add	r22, r22
 66c:	77 1f       	adc	r23, r23
 66e:	8a 95       	dec	r24
 670:	e2 f7       	brpl	.-8      	; 0x66a <DIO_WritePin+0x8e>
 672:	cb 01       	movw	r24, r22
 674:	84 2b       	or	r24, r20
 676:	8b bb       	out	0x1b, r24	; 27
 678:	08 95       	ret
 67a:	28 ef       	ldi	r18, 0xF8	; 248
 67c:	28 0f       	add	r18, r24
 67e:	28 30       	cpi	r18, 0x08	; 8
 680:	50 f4       	brcc	.+20     	; 0x696 <DIO_WritePin+0xba>
 682:	38 b3       	in	r19, 0x18	; 24
 684:	81 e0       	ldi	r24, 0x01	; 1
 686:	90 e0       	ldi	r25, 0x00	; 0
 688:	01 c0       	rjmp	.+2      	; 0x68c <DIO_WritePin+0xb0>
 68a:	88 0f       	add	r24, r24
 68c:	2a 95       	dec	r18
 68e:	ea f7       	brpl	.-6      	; 0x68a <DIO_WritePin+0xae>
 690:	83 2b       	or	r24, r19
 692:	88 bb       	out	0x18, r24	; 24
 694:	08 95       	ret
 696:	20 ef       	ldi	r18, 0xF0	; 240
 698:	28 0f       	add	r18, r24
 69a:	28 30       	cpi	r18, 0x08	; 8
 69c:	50 f4       	brcc	.+20     	; 0x6b2 <DIO_WritePin+0xd6>
 69e:	35 b3       	in	r19, 0x15	; 21
 6a0:	81 e0       	ldi	r24, 0x01	; 1
 6a2:	90 e0       	ldi	r25, 0x00	; 0
 6a4:	01 c0       	rjmp	.+2      	; 0x6a8 <DIO_WritePin+0xcc>
 6a6:	88 0f       	add	r24, r24
 6a8:	2a 95       	dec	r18
 6aa:	ea f7       	brpl	.-6      	; 0x6a6 <DIO_WritePin+0xca>
 6ac:	83 2b       	or	r24, r19
 6ae:	85 bb       	out	0x15, r24	; 21
 6b0:	08 95       	ret
 6b2:	88 51       	subi	r24, 0x18	; 24
 6b4:	88 30       	cpi	r24, 0x08	; 8
 6b6:	60 f4       	brcc	.+24     	; 0x6d0 <DIO_WritePin+0xf4>
 6b8:	42 b3       	in	r20, 0x12	; 18
 6ba:	21 e0       	ldi	r18, 0x01	; 1
 6bc:	30 e0       	ldi	r19, 0x00	; 0
 6be:	b9 01       	movw	r22, r18
 6c0:	02 c0       	rjmp	.+4      	; 0x6c6 <DIO_WritePin+0xea>
 6c2:	66 0f       	add	r22, r22
 6c4:	77 1f       	adc	r23, r23
 6c6:	8a 95       	dec	r24
 6c8:	e2 f7       	brpl	.-8      	; 0x6c2 <DIO_WritePin+0xe6>
 6ca:	cb 01       	movw	r24, r22
 6cc:	84 2b       	or	r24, r20
 6ce:	82 bb       	out	0x12, r24	; 18
 6d0:	08 95       	ret

000006d2 <DIO_TogglePin>:
 6d2:	88 30       	cpi	r24, 0x08	; 8
 6d4:	68 f4       	brcc	.+26     	; 0x6f0 <DIO_TogglePin+0x1e>
 6d6:	4b b3       	in	r20, 0x1b	; 27
 6d8:	21 e0       	ldi	r18, 0x01	; 1
 6da:	30 e0       	ldi	r19, 0x00	; 0
 6dc:	b9 01       	movw	r22, r18
 6de:	02 c0       	rjmp	.+4      	; 0x6e4 <DIO_TogglePin+0x12>
 6e0:	66 0f       	add	r22, r22
 6e2:	77 1f       	adc	r23, r23
 6e4:	8a 95       	dec	r24
 6e6:	e2 f7       	brpl	.-8      	; 0x6e0 <DIO_TogglePin+0xe>
 6e8:	cb 01       	movw	r24, r22
 6ea:	84 27       	eor	r24, r20
 6ec:	8b bb       	out	0x1b, r24	; 27
 6ee:	08 95       	ret
 6f0:	28 ef       	ldi	r18, 0xF8	; 248
 6f2:	28 0f       	add	r18, r24
 6f4:	28 30       	cpi	r18, 0x08	; 8
 6f6:	50 f4       	brcc	.+20     	; 0x70c <DIO_TogglePin+0x3a>
 6f8:	38 b3       	in	r19, 0x18	; 24
 6fa:	81 e0       	ldi	r24, 0x01	; 1
 6fc:	90 e0       	ldi	r25, 0x00	; 0
 6fe:	01 c0       	rjmp	.+2      	; 0x702 <DIO_TogglePin+0x30>
 700:	88 0f       	add	r24, r24
 702:	2a 95       	dec	r18
 704:	ea f7       	brpl	.-6      	; 0x700 <DIO_TogglePin+0x2e>
 706:	83 27       	eor	r24, r19
 708:	88 bb       	out	0x18, r24	; 24
 70a:	08 95       	ret
 70c:	20 ef       	ldi	r18, 0xF0	; 240
 70e:	28 0f       	add	r18, r24
 710:	28 30       	cpi	r18, 0x08	; 8
 712:	50 f4       	brcc	.+20     	; 0x728 <DIO_TogglePin+0x56>
 714:	35 b3       	in	r19, 0x15	; 21
 716:	81 e0       	ldi	r24, 0x01	; 1
 718:	90 e0       	ldi	r25, 0x00	; 0
 71a:	01 c0       	rjmp	.+2      	; 0x71e <DIO_TogglePin+0x4c>
 71c:	88 0f       	add	r24, r24
 71e:	2a 95       	dec	r18
 720:	ea f7       	brpl	.-6      	; 0x71c <DIO_TogglePin+0x4a>
 722:	83 27       	eor	r24, r19
 724:	85 bb       	out	0x15, r24	; 21
 726:	08 95       	ret
 728:	88 51       	subi	r24, 0x18	; 24
 72a:	88 30       	cpi	r24, 0x08	; 8
 72c:	60 f4       	brcc	.+24     	; 0x746 <DIO_TogglePin+0x74>
 72e:	42 b3       	in	r20, 0x12	; 18
 730:	21 e0       	ldi	r18, 0x01	; 1
 732:	30 e0       	ldi	r19, 0x00	; 0
 734:	b9 01       	movw	r22, r18
 736:	02 c0       	rjmp	.+4      	; 0x73c <DIO_TogglePin+0x6a>
 738:	66 0f       	add	r22, r22
 73a:	77 1f       	adc	r23, r23
 73c:	8a 95       	dec	r24
 73e:	e2 f7       	brpl	.-8      	; 0x738 <DIO_TogglePin+0x66>
 740:	cb 01       	movw	r24, r22
 742:	84 27       	eor	r24, r20
 744:	82 bb       	out	0x12, r24	; 18
 746:	08 95       	ret

00000748 <DIO_ReadPin>:
 748:	28 2f       	mov	r18, r24
 74a:	88 30       	cpi	r24, 0x08	; 8
 74c:	10 f4       	brcc	.+4      	; 0x752 <DIO_ReadPin+0xa>
 74e:	99 b3       	in	r25, 0x19	; 25
 750:	16 c0       	rjmp	.+44     	; 0x77e <DIO_ReadPin+0x36>
 752:	38 ef       	ldi	r19, 0xF8	; 248
 754:	38 0f       	add	r19, r24
 756:	38 30       	cpi	r19, 0x08	; 8
 758:	10 f4       	brcc	.+4      	; 0x75e <DIO_ReadPin+0x16>
 75a:	86 b3       	in	r24, 0x16	; 22
 75c:	05 c0       	rjmp	.+10     	; 0x768 <DIO_ReadPin+0x20>
 75e:	30 ef       	ldi	r19, 0xF0	; 240
 760:	38 0f       	add	r19, r24
 762:	38 30       	cpi	r19, 0x08	; 8
 764:	40 f4       	brcc	.+16     	; 0x776 <DIO_ReadPin+0x2e>
 766:	83 b3       	in	r24, 0x13	; 19
 768:	90 e0       	ldi	r25, 0x00	; 0
 76a:	02 c0       	rjmp	.+4      	; 0x770 <DIO_ReadPin+0x28>
 76c:	95 95       	asr	r25
 76e:	87 95       	ror	r24
 770:	3a 95       	dec	r19
 772:	e2 f7       	brpl	.-8      	; 0x76c <DIO_ReadPin+0x24>
 774:	0b c0       	rjmp	.+22     	; 0x78c <DIO_ReadPin+0x44>
 776:	28 51       	subi	r18, 0x18	; 24
 778:	28 30       	cpi	r18, 0x08	; 8
 77a:	50 f4       	brcc	.+20     	; 0x790 <DIO_ReadPin+0x48>
 77c:	90 b3       	in	r25, 0x10	; 16
 77e:	89 2f       	mov	r24, r25
 780:	90 e0       	ldi	r25, 0x00	; 0
 782:	02 c0       	rjmp	.+4      	; 0x788 <DIO_ReadPin+0x40>
 784:	95 95       	asr	r25
 786:	87 95       	ror	r24
 788:	2a 95       	dec	r18
 78a:	e2 f7       	brpl	.-8      	; 0x784 <DIO_ReadPin+0x3c>
 78c:	81 70       	andi	r24, 0x01	; 1
 78e:	08 95       	ret
 790:	08 95       	ret

00000792 <__vector_1>:
 792:	1f 92       	push	r1
 794:	0f 92       	push	r0
 796:	0f b6       	in	r0, 0x3f	; 63
 798:	0f 92       	push	r0
 79a:	11 24       	eor	r1, r1
 79c:	2f 93       	push	r18
 79e:	3f 93       	push	r19
 7a0:	4f 93       	push	r20
 7a2:	5f 93       	push	r21
 7a4:	6f 93       	push	r22
 7a6:	7f 93       	push	r23
 7a8:	8f 93       	push	r24
 7aa:	9f 93       	push	r25
 7ac:	af 93       	push	r26
 7ae:	bf 93       	push	r27
 7b0:	ef 93       	push	r30
 7b2:	ff 93       	push	r31
 7b4:	e0 91 a1 00 	lds	r30, 0x00A1	; 0x8000a1 <FUNC_PTR0>
 7b8:	f0 91 a2 00 	lds	r31, 0x00A2	; 0x8000a2 <FUNC_PTR0+0x1>
 7bc:	30 97       	sbiw	r30, 0x00	; 0
 7be:	09 f0       	breq	.+2      	; 0x7c2 <__vector_1+0x30>
 7c0:	09 95       	icall
 7c2:	ff 91       	pop	r31
 7c4:	ef 91       	pop	r30
 7c6:	bf 91       	pop	r27
 7c8:	af 91       	pop	r26
 7ca:	9f 91       	pop	r25
 7cc:	8f 91       	pop	r24
 7ce:	7f 91       	pop	r23
 7d0:	6f 91       	pop	r22
 7d2:	5f 91       	pop	r21
 7d4:	4f 91       	pop	r20
 7d6:	3f 91       	pop	r19
 7d8:	2f 91       	pop	r18
 7da:	0f 90       	pop	r0
 7dc:	0f be       	out	0x3f, r0	; 63
 7de:	0f 90       	pop	r0
 7e0:	1f 90       	pop	r1
 7e2:	18 95       	reti

000007e4 <__vector_2>:
 7e4:	1f 92       	push	r1
 7e6:	0f 92       	push	r0
 7e8:	0f b6       	in	r0, 0x3f	; 63
 7ea:	0f 92       	push	r0
 7ec:	11 24       	eor	r1, r1
 7ee:	2f 93       	push	r18
 7f0:	3f 93       	push	r19
 7f2:	4f 93       	push	r20
 7f4:	5f 93       	push	r21
 7f6:	6f 93       	push	r22
 7f8:	7f 93       	push	r23
 7fa:	8f 93       	push	r24
 7fc:	9f 93       	push	r25
 7fe:	af 93       	push	r26
 800:	bf 93       	push	r27
 802:	ef 93       	push	r30
 804:	ff 93       	push	r31
 806:	e0 91 9f 00 	lds	r30, 0x009F	; 0x80009f <FUNC_PTR1>
 80a:	f0 91 a0 00 	lds	r31, 0x00A0	; 0x8000a0 <FUNC_PTR1+0x1>
 80e:	30 97       	sbiw	r30, 0x00	; 0
 810:	09 f0       	breq	.+2      	; 0x814 <__DATA_REGION_LENGTH__+0x14>
 812:	09 95       	icall
 814:	ff 91       	pop	r31
 816:	ef 91       	pop	r30
 818:	bf 91       	pop	r27
 81a:	af 91       	pop	r26
 81c:	9f 91       	pop	r25
 81e:	8f 91       	pop	r24
 820:	7f 91       	pop	r23
 822:	6f 91       	pop	r22
 824:	5f 91       	pop	r21
 826:	4f 91       	pop	r20
 828:	3f 91       	pop	r19
 82a:	2f 91       	pop	r18
 82c:	0f 90       	pop	r0
 82e:	0f be       	out	0x3f, r0	; 63
 830:	0f 90       	pop	r0
 832:	1f 90       	pop	r1
 834:	18 95       	reti

00000836 <__vector_3>:
 836:	1f 92       	push	r1
 838:	0f 92       	push	r0
 83a:	0f b6       	in	r0, 0x3f	; 63
 83c:	0f 92       	push	r0
 83e:	11 24       	eor	r1, r1
 840:	2f 93       	push	r18
 842:	3f 93       	push	r19
 844:	4f 93       	push	r20
 846:	5f 93       	push	r21
 848:	6f 93       	push	r22
 84a:	7f 93       	push	r23
 84c:	8f 93       	push	r24
 84e:	9f 93       	push	r25
 850:	af 93       	push	r26
 852:	bf 93       	push	r27
 854:	ef 93       	push	r30
 856:	ff 93       	push	r31
 858:	e0 91 9d 00 	lds	r30, 0x009D	; 0x80009d <FUNC_PTR2>
 85c:	f0 91 9e 00 	lds	r31, 0x009E	; 0x80009e <FUNC_PTR2+0x1>
 860:	30 97       	sbiw	r30, 0x00	; 0
 862:	09 f0       	breq	.+2      	; 0x866 <__stack+0x7>
 864:	09 95       	icall
 866:	ff 91       	pop	r31
 868:	ef 91       	pop	r30
 86a:	bf 91       	pop	r27
 86c:	af 91       	pop	r26
 86e:	9f 91       	pop	r25
 870:	8f 91       	pop	r24
 872:	7f 91       	pop	r23
 874:	6f 91       	pop	r22
 876:	5f 91       	pop	r21
 878:	4f 91       	pop	r20
 87a:	3f 91       	pop	r19
 87c:	2f 91       	pop	r18
 87e:	0f 90       	pop	r0
 880:	0f be       	out	0x3f, r0	; 63
 882:	0f 90       	pop	r0
 884:	1f 90       	pop	r1
 886:	18 95       	reti

00000888 <__vector_12>:
 888:	1f 92       	push	r1
 88a:	0f 92       	push	r0
 88c:	0f b6       	in	r0, 0x3f	; 63
 88e:	0f 92       	push	r0
 890:	11 24       	eor	r1, r1
 892:	2f 93       	push	r18
 894:	3f 93       	push	r19
 896:	4f 93       	push	r20
 898:	5f 93       	push	r21
 89a:	6f 93       	push	r22
 89c:	7f 93       	push	r23
 89e:	8f 93       	push	r24
 8a0:	9f 93       	push	r25
 8a2:	af 93       	push	r26
 8a4:	bf 93       	push	r27
 8a6:	ef 93       	push	r30
 8a8:	ff 93       	push	r31
 8aa:	e0 91 a3 00 	lds	r30, 0x00A3	; 0x8000a3 <SPI_INTERRUP_PTR>
 8ae:	f0 91 a4 00 	lds	r31, 0x00A4	; 0x8000a4 <SPI_INTERRUP_PTR+0x1>
 8b2:	30 97       	sbiw	r30, 0x00	; 0
 8b4:	09 f0       	breq	.+2      	; 0x8b8 <__vector_12+0x30>
 8b6:	09 95       	icall
 8b8:	ff 91       	pop	r31
 8ba:	ef 91       	pop	r30
 8bc:	bf 91       	pop	r27
 8be:	af 91       	pop	r26
 8c0:	9f 91       	pop	r25
 8c2:	8f 91       	pop	r24
 8c4:	7f 91       	pop	r23
 8c6:	6f 91       	pop	r22
 8c8:	5f 91       	pop	r21
 8ca:	4f 91       	pop	r20
 8cc:	3f 91       	pop	r19
 8ce:	2f 91       	pop	r18
 8d0:	0f 90       	pop	r0
 8d2:	0f be       	out	0x3f, r0	; 63
 8d4:	0f 90       	pop	r0
 8d6:	1f 90       	pop	r1
 8d8:	18 95       	reti

000008da <__vector_10>:
 8da:	1f 92       	push	r1
 8dc:	0f 92       	push	r0
 8de:	0f b6       	in	r0, 0x3f	; 63
 8e0:	0f 92       	push	r0
 8e2:	11 24       	eor	r1, r1
 8e4:	2f 93       	push	r18
 8e6:	3f 93       	push	r19
 8e8:	4f 93       	push	r20
 8ea:	5f 93       	push	r21
 8ec:	6f 93       	push	r22
 8ee:	7f 93       	push	r23
 8f0:	8f 93       	push	r24
 8f2:	9f 93       	push	r25
 8f4:	af 93       	push	r26
 8f6:	bf 93       	push	r27
 8f8:	ef 93       	push	r30
 8fa:	ff 93       	push	r31
 8fc:	e0 91 a7 00 	lds	r30, 0x00A7	; 0x8000a7 <funcPtrCompareMatch>
 900:	f0 91 a8 00 	lds	r31, 0x00A8	; 0x8000a8 <funcPtrCompareMatch+0x1>
 904:	30 97       	sbiw	r30, 0x00	; 0
 906:	09 f0       	breq	.+2      	; 0x90a <__vector_10+0x30>
 908:	09 95       	icall
 90a:	ff 91       	pop	r31
 90c:	ef 91       	pop	r30
 90e:	bf 91       	pop	r27
 910:	af 91       	pop	r26
 912:	9f 91       	pop	r25
 914:	8f 91       	pop	r24
 916:	7f 91       	pop	r23
 918:	6f 91       	pop	r22
 91a:	5f 91       	pop	r21
 91c:	4f 91       	pop	r20
 91e:	3f 91       	pop	r19
 920:	2f 91       	pop	r18
 922:	0f 90       	pop	r0
 924:	0f be       	out	0x3f, r0	; 63
 926:	0f 90       	pop	r0
 928:	1f 90       	pop	r1
 92a:	18 95       	reti

0000092c <__vector_11>:
 92c:	1f 92       	push	r1
 92e:	0f 92       	push	r0
 930:	0f b6       	in	r0, 0x3f	; 63
 932:	0f 92       	push	r0
 934:	11 24       	eor	r1, r1
 936:	2f 93       	push	r18
 938:	3f 93       	push	r19
 93a:	4f 93       	push	r20
 93c:	5f 93       	push	r21
 93e:	6f 93       	push	r22
 940:	7f 93       	push	r23
 942:	8f 93       	push	r24
 944:	9f 93       	push	r25
 946:	af 93       	push	r26
 948:	bf 93       	push	r27
 94a:	ef 93       	push	r30
 94c:	ff 93       	push	r31
 94e:	e0 91 a5 00 	lds	r30, 0x00A5	; 0x8000a5 <funcPtrOverflow>
 952:	f0 91 a6 00 	lds	r31, 0x00A6	; 0x8000a6 <funcPtrOverflow+0x1>
 956:	30 97       	sbiw	r30, 0x00	; 0
 958:	09 f0       	breq	.+2      	; 0x95c <__vector_11+0x30>
 95a:	09 95       	icall
 95c:	ff 91       	pop	r31
 95e:	ef 91       	pop	r30
 960:	bf 91       	pop	r27
 962:	af 91       	pop	r26
 964:	9f 91       	pop	r25
 966:	8f 91       	pop	r24
 968:	7f 91       	pop	r23
 96a:	6f 91       	pop	r22
 96c:	5f 91       	pop	r21
 96e:	4f 91       	pop	r20
 970:	3f 91       	pop	r19
 972:	2f 91       	pop	r18
 974:	0f 90       	pop	r0
 976:	0f be       	out	0x3f, r0	; 63
 978:	0f 90       	pop	r0
 97a:	1f 90       	pop	r1
 97c:	18 95       	reti

0000097e <__vector_7>:
 97e:	1f 92       	push	r1
 980:	0f 92       	push	r0
 982:	0f b6       	in	r0, 0x3f	; 63
 984:	0f 92       	push	r0
 986:	11 24       	eor	r1, r1
 988:	2f 93       	push	r18
 98a:	3f 93       	push	r19
 98c:	4f 93       	push	r20
 98e:	5f 93       	push	r21
 990:	6f 93       	push	r22
 992:	7f 93       	push	r23
 994:	8f 93       	push	r24
 996:	9f 93       	push	r25
 998:	af 93       	push	r26
 99a:	bf 93       	push	r27
 99c:	ef 93       	push	r30
 99e:	ff 93       	push	r31
 9a0:	e0 91 af 00 	lds	r30, 0x00AF	; 0x8000af <funcPtrCompareMatch1A>
 9a4:	f0 91 b0 00 	lds	r31, 0x00B0	; 0x8000b0 <funcPtrCompareMatch1A+0x1>
 9a8:	30 97       	sbiw	r30, 0x00	; 0
 9aa:	09 f0       	breq	.+2      	; 0x9ae <__vector_7+0x30>
 9ac:	09 95       	icall
 9ae:	ff 91       	pop	r31
 9b0:	ef 91       	pop	r30
 9b2:	bf 91       	pop	r27
 9b4:	af 91       	pop	r26
 9b6:	9f 91       	pop	r25
 9b8:	8f 91       	pop	r24
 9ba:	7f 91       	pop	r23
 9bc:	6f 91       	pop	r22
 9be:	5f 91       	pop	r21
 9c0:	4f 91       	pop	r20
 9c2:	3f 91       	pop	r19
 9c4:	2f 91       	pop	r18
 9c6:	0f 90       	pop	r0
 9c8:	0f be       	out	0x3f, r0	; 63
 9ca:	0f 90       	pop	r0
 9cc:	1f 90       	pop	r1
 9ce:	18 95       	reti

000009d0 <__vector_8>:
 9d0:	1f 92       	push	r1
 9d2:	0f 92       	push	r0
 9d4:	0f b6       	in	r0, 0x3f	; 63
 9d6:	0f 92       	push	r0
 9d8:	11 24       	eor	r1, r1
 9da:	2f 93       	push	r18
 9dc:	3f 93       	push	r19
 9de:	4f 93       	push	r20
 9e0:	5f 93       	push	r21
 9e2:	6f 93       	push	r22
 9e4:	7f 93       	push	r23
 9e6:	8f 93       	push	r24
 9e8:	9f 93       	push	r25
 9ea:	af 93       	push	r26
 9ec:	bf 93       	push	r27
 9ee:	ef 93       	push	r30
 9f0:	ff 93       	push	r31
 9f2:	e0 91 ad 00 	lds	r30, 0x00AD	; 0x8000ad <funcPtrCompareMatch1B>
 9f6:	f0 91 ae 00 	lds	r31, 0x00AE	; 0x8000ae <funcPtrCompareMatch1B+0x1>
 9fa:	30 97       	sbiw	r30, 0x00	; 0
 9fc:	09 f0       	breq	.+2      	; 0xa00 <__vector_8+0x30>
 9fe:	09 95       	icall
 a00:	ff 91       	pop	r31
 a02:	ef 91       	pop	r30
 a04:	bf 91       	pop	r27
 a06:	af 91       	pop	r26
 a08:	9f 91       	pop	r25
 a0a:	8f 91       	pop	r24
 a0c:	7f 91       	pop	r23
 a0e:	6f 91       	pop	r22
 a10:	5f 91       	pop	r21
 a12:	4f 91       	pop	r20
 a14:	3f 91       	pop	r19
 a16:	2f 91       	pop	r18
 a18:	0f 90       	pop	r0
 a1a:	0f be       	out	0x3f, r0	; 63
 a1c:	0f 90       	pop	r0
 a1e:	1f 90       	pop	r1
 a20:	18 95       	reti

00000a22 <__vector_9>:
 a22:	1f 92       	push	r1
 a24:	0f 92       	push	r0
 a26:	0f b6       	in	r0, 0x3f	; 63
 a28:	0f 92       	push	r0
 a2a:	11 24       	eor	r1, r1
 a2c:	2f 93       	push	r18
 a2e:	3f 93       	push	r19
 a30:	4f 93       	push	r20
 a32:	5f 93       	push	r21
 a34:	6f 93       	push	r22
 a36:	7f 93       	push	r23
 a38:	8f 93       	push	r24
 a3a:	9f 93       	push	r25
 a3c:	af 93       	push	r26
 a3e:	bf 93       	push	r27
 a40:	ef 93       	push	r30
 a42:	ff 93       	push	r31
 a44:	e0 91 ab 00 	lds	r30, 0x00AB	; 0x8000ab <funcPtrOverflow>
 a48:	f0 91 ac 00 	lds	r31, 0x00AC	; 0x8000ac <funcPtrOverflow+0x1>
 a4c:	30 97       	sbiw	r30, 0x00	; 0
 a4e:	09 f0       	breq	.+2      	; 0xa52 <__vector_9+0x30>
 a50:	09 95       	icall
 a52:	ff 91       	pop	r31
 a54:	ef 91       	pop	r30
 a56:	bf 91       	pop	r27
 a58:	af 91       	pop	r26
 a5a:	9f 91       	pop	r25
 a5c:	8f 91       	pop	r24
 a5e:	7f 91       	pop	r23
 a60:	6f 91       	pop	r22
 a62:	5f 91       	pop	r21
 a64:	4f 91       	pop	r20
 a66:	3f 91       	pop	r19
 a68:	2f 91       	pop	r18
 a6a:	0f 90       	pop	r0
 a6c:	0f be       	out	0x3f, r0	; 63
 a6e:	0f 90       	pop	r0
 a70:	1f 90       	pop	r1
 a72:	18 95       	reti

00000a74 <__vector_6>:
 a74:	1f 92       	push	r1
 a76:	0f 92       	push	r0
 a78:	0f b6       	in	r0, 0x3f	; 63
 a7a:	0f 92       	push	r0
 a7c:	11 24       	eor	r1, r1
 a7e:	2f 93       	push	r18
 a80:	3f 93       	push	r19
 a82:	4f 93       	push	r20
 a84:	5f 93       	push	r21
 a86:	6f 93       	push	r22
 a88:	7f 93       	push	r23
 a8a:	8f 93       	push	r24
 a8c:	9f 93       	push	r25
 a8e:	af 93       	push	r26
 a90:	bf 93       	push	r27
 a92:	ef 93       	push	r30
 a94:	ff 93       	push	r31
 a96:	e0 91 a9 00 	lds	r30, 0x00A9	; 0x8000a9 <funcPtrTimeStamp>
 a9a:	f0 91 aa 00 	lds	r31, 0x00AA	; 0x8000aa <funcPtrTimeStamp+0x1>
 a9e:	30 97       	sbiw	r30, 0x00	; 0
 aa0:	09 f0       	breq	.+2      	; 0xaa4 <__vector_6+0x30>
 aa2:	09 95       	icall
 aa4:	ff 91       	pop	r31
 aa6:	ef 91       	pop	r30
 aa8:	bf 91       	pop	r27
 aaa:	af 91       	pop	r26
 aac:	9f 91       	pop	r25
 aae:	8f 91       	pop	r24
 ab0:	7f 91       	pop	r23
 ab2:	6f 91       	pop	r22
 ab4:	5f 91       	pop	r21
 ab6:	4f 91       	pop	r20
 ab8:	3f 91       	pop	r19
 aba:	2f 91       	pop	r18
 abc:	0f 90       	pop	r0
 abe:	0f be       	out	0x3f, r0	; 63
 ac0:	0f 90       	pop	r0
 ac2:	1f 90       	pop	r1
 ac4:	18 95       	reti

00000ac6 <__vector_13>:
 ac6:	1f 92       	push	r1
 ac8:	0f 92       	push	r0
 aca:	0f b6       	in	r0, 0x3f	; 63
 acc:	0f 92       	push	r0
 ace:	11 24       	eor	r1, r1
 ad0:	2f 93       	push	r18
 ad2:	3f 93       	push	r19
 ad4:	4f 93       	push	r20
 ad6:	5f 93       	push	r21
 ad8:	6f 93       	push	r22
 ada:	7f 93       	push	r23
 adc:	8f 93       	push	r24
 ade:	9f 93       	push	r25
 ae0:	af 93       	push	r26
 ae2:	bf 93       	push	r27
 ae4:	ef 93       	push	r30
 ae6:	ff 93       	push	r31
 ae8:	e0 91 b5 00 	lds	r30, 0x00B5	; 0x8000b5 <RXcomplateInterruptPTR>
 aec:	f0 91 b6 00 	lds	r31, 0x00B6	; 0x8000b6 <RXcomplateInterruptPTR+0x1>
 af0:	30 97       	sbiw	r30, 0x00	; 0
 af2:	09 f0       	breq	.+2      	; 0xaf6 <__vector_13+0x30>
 af4:	09 95       	icall
 af6:	ff 91       	pop	r31
 af8:	ef 91       	pop	r30
 afa:	bf 91       	pop	r27
 afc:	af 91       	pop	r26
 afe:	9f 91       	pop	r25
 b00:	8f 91       	pop	r24
 b02:	7f 91       	pop	r23
 b04:	6f 91       	pop	r22
 b06:	5f 91       	pop	r21
 b08:	4f 91       	pop	r20
 b0a:	3f 91       	pop	r19
 b0c:	2f 91       	pop	r18
 b0e:	0f 90       	pop	r0
 b10:	0f be       	out	0x3f, r0	; 63
 b12:	0f 90       	pop	r0
 b14:	1f 90       	pop	r1
 b16:	18 95       	reti

00000b18 <__vector_15>:
 b18:	1f 92       	push	r1
 b1a:	0f 92       	push	r0
 b1c:	0f b6       	in	r0, 0x3f	; 63
 b1e:	0f 92       	push	r0
 b20:	11 24       	eor	r1, r1
 b22:	2f 93       	push	r18
 b24:	3f 93       	push	r19
 b26:	4f 93       	push	r20
 b28:	5f 93       	push	r21
 b2a:	6f 93       	push	r22
 b2c:	7f 93       	push	r23
 b2e:	8f 93       	push	r24
 b30:	9f 93       	push	r25
 b32:	af 93       	push	r26
 b34:	bf 93       	push	r27
 b36:	ef 93       	push	r30
 b38:	ff 93       	push	r31
 b3a:	e0 91 b3 00 	lds	r30, 0x00B3	; 0x8000b3 <TXcomplateInterruptPTR>
 b3e:	f0 91 b4 00 	lds	r31, 0x00B4	; 0x8000b4 <TXcomplateInterruptPTR+0x1>
 b42:	30 97       	sbiw	r30, 0x00	; 0
 b44:	09 f0       	breq	.+2      	; 0xb48 <__vector_15+0x30>
 b46:	09 95       	icall
 b48:	ff 91       	pop	r31
 b4a:	ef 91       	pop	r30
 b4c:	bf 91       	pop	r27
 b4e:	af 91       	pop	r26
 b50:	9f 91       	pop	r25
 b52:	8f 91       	pop	r24
 b54:	7f 91       	pop	r23
 b56:	6f 91       	pop	r22
 b58:	5f 91       	pop	r21
 b5a:	4f 91       	pop	r20
 b5c:	3f 91       	pop	r19
 b5e:	2f 91       	pop	r18
 b60:	0f 90       	pop	r0
 b62:	0f be       	out	0x3f, r0	; 63
 b64:	0f 90       	pop	r0
 b66:	1f 90       	pop	r1
 b68:	18 95       	reti

00000b6a <__vector_14>:
 b6a:	1f 92       	push	r1
 b6c:	0f 92       	push	r0
 b6e:	0f b6       	in	r0, 0x3f	; 63
 b70:	0f 92       	push	r0
 b72:	11 24       	eor	r1, r1
 b74:	2f 93       	push	r18
 b76:	3f 93       	push	r19
 b78:	4f 93       	push	r20
 b7a:	5f 93       	push	r21
 b7c:	6f 93       	push	r22
 b7e:	7f 93       	push	r23
 b80:	8f 93       	push	r24
 b82:	9f 93       	push	r25
 b84:	af 93       	push	r26
 b86:	bf 93       	push	r27
 b88:	ef 93       	push	r30
 b8a:	ff 93       	push	r31
 b8c:	e0 91 b1 00 	lds	r30, 0x00B1	; 0x8000b1 <UDRemptyInterruptPTR>
 b90:	f0 91 b2 00 	lds	r31, 0x00B2	; 0x8000b2 <UDRemptyInterruptPTR+0x1>
 b94:	30 97       	sbiw	r30, 0x00	; 0
 b96:	09 f0       	breq	.+2      	; 0xb9a <__vector_14+0x30>
 b98:	09 95       	icall
 b9a:	ff 91       	pop	r31
 b9c:	ef 91       	pop	r30
 b9e:	bf 91       	pop	r27
 ba0:	af 91       	pop	r26
 ba2:	9f 91       	pop	r25
 ba4:	8f 91       	pop	r24
 ba6:	7f 91       	pop	r23
 ba8:	6f 91       	pop	r22
 baa:	5f 91       	pop	r21
 bac:	4f 91       	pop	r20
 bae:	3f 91       	pop	r19
 bb0:	2f 91       	pop	r18
 bb2:	0f 90       	pop	r0
 bb4:	0f be       	out	0x3f, r0	; 63
 bb6:	0f 90       	pop	r0
 bb8:	1f 90       	pop	r1
 bba:	18 95       	reti

00000bbc <__udivmodqi4>:
 bbc:	99 1b       	sub	r25, r25
 bbe:	79 e0       	ldi	r23, 0x09	; 9
 bc0:	04 c0       	rjmp	.+8      	; 0xbca <__udivmodqi4_ep>

00000bc2 <__udivmodqi4_loop>:
 bc2:	99 1f       	adc	r25, r25
 bc4:	96 17       	cp	r25, r22
 bc6:	08 f0       	brcs	.+2      	; 0xbca <__udivmodqi4_ep>
 bc8:	96 1b       	sub	r25, r22

00000bca <__udivmodqi4_ep>:
 bca:	88 1f       	adc	r24, r24
 bcc:	7a 95       	dec	r23
 bce:	c9 f7       	brne	.-14     	; 0xbc2 <__udivmodqi4_loop>
 bd0:	80 95       	com	r24
 bd2:	08 95       	ret

00000bd4 <_exit>:
 bd4:	f8 94       	cli

00000bd6 <__stop_program>:
 bd6:	ff cf       	rjmp	.-2      	; 0xbd6 <__stop_program>
