
atmega32_ECU.elf:     file format elf32-avr

Sections:
Idx Name          Size      VMA       LMA       File off  Algn
  0 .text         00001e56  00000000  00000000  00000094  2**1
                  CONTENTS, ALLOC, LOAD, READONLY, CODE
  1 .data         00000080  00800060  00001e56  00001eea  2**0
                  CONTENTS, ALLOC, LOAD, DATA
  2 .bss          00000084  008000e0  008000e0  00001f6a  2**0
                  ALLOC
  3 .comment      00000030  00000000  00000000  00001f6a  2**0
                  CONTENTS, READONLY
  4 .note.gnu.avr.deviceinfo 0000003c  00000000  00000000  00001f9c  2**2
                  CONTENTS, READONLY
  5 .debug_info   000004e6  00000000  00000000  00001fd8  2**0
                  CONTENTS, READONLY, DEBUGGING
  6 .debug_abbrev 000004a3  00000000  00000000  000024be  2**0
                  CONTENTS, READONLY, DEBUGGING
  7 .debug_line   00000116  00000000  00000000  00002961  2**0
                  CONTENTS, READONLY, DEBUGGING
  8 .debug_str    00000196  00000000  00000000  00002a77  2**0
                  CONTENTS, READONLY, DEBUGGING

Disassembly of section .text:

00000000 <__vectors>:
       0:	0c 94 49 00 	jmp	0x92	; 0x92 <__ctors_end>
       4:	0c 94 ca 09 	jmp	0x1394	; 0x1394 <__vector_1>
       8:	0c 94 f3 09 	jmp	0x13e6	; 0x13e6 <__vector_2>
       c:	0c 94 1c 0a 	jmp	0x1438	; 0x1438 <__vector_3>
      10:	0c 94 66 00 	jmp	0xcc	; 0xcc <__bad_interrupt>
      14:	0c 94 66 00 	jmp	0xcc	; 0xcc <__bad_interrupt>
      18:	0c 94 03 0c 	jmp	0x1806	; 0x1806 <__vector_6>
      1c:	0c 94 88 0b 	jmp	0x1710	; 0x1710 <__vector_7>
      20:	0c 94 b1 0b 	jmp	0x1762	; 0x1762 <__vector_8>
      24:	0c 94 da 0b 	jmp	0x17b4	; 0x17b4 <__vector_9>
      28:	0c 94 6e 0a 	jmp	0x14dc	; 0x14dc <__vector_10>
      2c:	0c 94 97 0a 	jmp	0x152e	; 0x152e <__vector_11>
      30:	0c 94 45 0a 	jmp	0x148a	; 0x148a <__vector_12>
      34:	0c 94 2c 0c 	jmp	0x1858	; 0x1858 <__vector_13>
      38:	0c 94 7e 0c 	jmp	0x18fc	; 0x18fc <__vector_14>
      3c:	0c 94 55 0c 	jmp	0x18aa	; 0x18aa <__vector_15>
      40:	0c 94 10 08 	jmp	0x1020	; 0x1020 <__vector_16>
      44:	0c 94 66 00 	jmp	0xcc	; 0xcc <__bad_interrupt>
      48:	0c 94 66 00 	jmp	0xcc	; 0xcc <__bad_interrupt>
      4c:	0c 94 66 00 	jmp	0xcc	; 0xcc <__bad_interrupt>
      50:	0c 94 66 00 	jmp	0xcc	; 0xcc <__bad_interrupt>
      54:	c2 07       	cpc	r28, r18
      56:	c4 07       	cpc	r28, r20
      58:	c6 07       	cpc	r28, r22
      5a:	c8 07       	cpc	r28, r24
      5c:	cb 07       	cpc	r28, r27
      5e:	ce 07       	cpc	r28, r30
      60:	d2 07       	cpc	r29, r18
      62:	e4 07       	cpc	r30, r20
      64:	e6 07       	cpc	r30, r22
      66:	e8 07       	cpc	r30, r24
      68:	ec 07       	cpc	r30, r28
      6a:	ee 07       	cpc	r30, r30
      6c:	f1 07       	cpc	r31, r17
      6e:	f4 07       	cpc	r31, r20
      70:	f6 07       	cpc	r31, r22
      72:	fc 0a       	sbc	r15, r28
      74:	ff 0a       	sbc	r15, r31
      76:	02 0b       	sbc	r16, r18
      78:	05 0b       	sbc	r16, r21
      7a:	08 0b       	sbc	r16, r24
      7c:	11 0b       	sbc	r17, r17
      7e:	17 0b       	sbc	r17, r23
      80:	1a 0b       	sbc	r17, r26
      82:	1d 0b       	sbc	r17, r29
      84:	23 0b       	sbc	r18, r19
      86:	2c 0b       	sbc	r18, r28
      88:	32 0b       	sbc	r19, r18
      8a:	38 0b       	sbc	r19, r24
      8c:	53 0b       	sbc	r21, r19
      8e:	3b 0b       	sbc	r19, r27
      90:	47 0b       	sbc	r20, r23

00000092 <__ctors_end>:
      92:	11 24       	eor	r1, r1
      94:	1f be       	out	0x3f, r1	; 63
      96:	cf e5       	ldi	r28, 0x5F	; 95
      98:	d8 e0       	ldi	r29, 0x08	; 8
      9a:	de bf       	out	0x3e, r29	; 62
      9c:	cd bf       	out	0x3d, r28	; 61

0000009e <__do_copy_data>:
      9e:	10 e0       	ldi	r17, 0x00	; 0
      a0:	a0 e6       	ldi	r26, 0x60	; 96
      a2:	b0 e0       	ldi	r27, 0x00	; 0
      a4:	e6 e5       	ldi	r30, 0x56	; 86
      a6:	fe e1       	ldi	r31, 0x1E	; 30
      a8:	02 c0       	rjmp	.+4      	; 0xae <__do_copy_data+0x10>
      aa:	05 90       	lpm	r0, Z+
      ac:	0d 92       	st	X+, r0
      ae:	a0 3e       	cpi	r26, 0xE0	; 224
      b0:	b1 07       	cpc	r27, r17
      b2:	d9 f7       	brne	.-10     	; 0xaa <__do_copy_data+0xc>

000000b4 <__do_clear_bss>:
      b4:	21 e0       	ldi	r18, 0x01	; 1
      b6:	a0 ee       	ldi	r26, 0xE0	; 224
      b8:	b0 e0       	ldi	r27, 0x00	; 0
      ba:	01 c0       	rjmp	.+2      	; 0xbe <.do_clear_bss_start>

000000bc <.do_clear_bss_loop>:
      bc:	1d 92       	st	X+, r1

000000be <.do_clear_bss_start>:
      be:	a4 36       	cpi	r26, 0x64	; 100
      c0:	b2 07       	cpc	r27, r18
      c2:	e1 f7       	brne	.-8      	; 0xbc <.do_clear_bss_loop>
      c4:	0e 94 a6 07 	call	0xf4c	; 0xf4c <main>
      c8:	0c 94 29 0f 	jmp	0x1e52	; 0x1e52 <_exit>

000000cc <__bad_interrupt>:
      cc:	0c 94 00 00 	jmp	0	; 0x0 <__vectors>

000000d0 <EEPROM_passwardRetrieval.part.1>:
      d0:	af 92       	push	r10
      d2:	bf 92       	push	r11
      d4:	cf 92       	push	r12
      d6:	df 92       	push	r13
      d8:	ef 92       	push	r14
      da:	ff 92       	push	r15
      dc:	0f 93       	push	r16
      de:	1f 93       	push	r17
      e0:	cf 93       	push	r28
      e2:	df 93       	push	r29
      e4:	8c 01       	movw	r16, r24
      e6:	6b 01       	movw	r12, r22
      e8:	5a 01       	movw	r10, r20
      ea:	ca 01       	movw	r24, r20
      ec:	0e 94 c2 09 	call	0x1384	; 0x1384 <EEPROM_read>
      f0:	f8 01       	movw	r30, r16
      f2:	80 83       	st	Z, r24
      f4:	78 01       	movw	r14, r16
      f6:	c1 e0       	ldi	r28, 0x01	; 1
      f8:	d0 e0       	ldi	r29, 0x00	; 0
      fa:	f1 e0       	ldi	r31, 0x01	; 1
      fc:	cf 1a       	sub	r12, r31
      fe:	d1 08       	sbc	r13, r1
     100:	cc 15       	cp	r28, r12
     102:	dd 05       	cpc	r29, r13
     104:	70 f0       	brcs	.+28     	; 0x122 <EEPROM_passwardRetrieval.part.1+0x52>
     106:	c0 0f       	add	r28, r16
     108:	d1 1f       	adc	r29, r17
     10a:	18 82       	st	Y, r1
     10c:	df 91       	pop	r29
     10e:	cf 91       	pop	r28
     110:	1f 91       	pop	r17
     112:	0f 91       	pop	r16
     114:	ff 90       	pop	r15
     116:	ef 90       	pop	r14
     118:	df 90       	pop	r13
     11a:	cf 90       	pop	r12
     11c:	bf 90       	pop	r11
     11e:	af 90       	pop	r10
     120:	08 95       	ret
     122:	f7 01       	movw	r30, r14
     124:	81 91       	ld	r24, Z+
     126:	7f 01       	movw	r14, r30
     128:	88 23       	and	r24, r24
     12a:	69 f3       	breq	.-38     	; 0x106 <EEPROM_passwardRetrieval.part.1+0x36>
     12c:	c5 01       	movw	r24, r10
     12e:	8c 0f       	add	r24, r28
     130:	9d 1f       	adc	r25, r29
     132:	0e 94 c2 09 	call	0x1384	; 0x1384 <EEPROM_read>
     136:	f7 01       	movw	r30, r14
     138:	80 83       	st	Z, r24
     13a:	21 96       	adiw	r28, 0x01	; 1
     13c:	e1 cf       	rjmp	.-62     	; 0x100 <EEPROM_passwardRetrieval.part.1+0x30>

0000013e <changePassward_Init>:
     13e:	0f 93       	push	r16
     140:	1f 93       	push	r17
     142:	cf 93       	push	r28
     144:	00 97       	sbiw	r24, 0x00	; 0
     146:	09 f4       	brne	.+2      	; 0x14a <changePassward_Init+0xc>
     148:	a3 c0       	rjmp	.+326    	; 0x290 <changePassward_Init+0x152>
     14a:	c6 2f       	mov	r28, r22
     14c:	8c 01       	movw	r16, r24
     14e:	80 91 ff 00 	lds	r24, 0x00FF	; 0x8000ff <firstUse>
     152:	81 11       	cpse	r24, r1
     154:	3e c0       	rjmp	.+124    	; 0x1d2 <changePassward_Init+0x94>
     156:	10 92 ea 00 	sts	0x00EA, r1	; 0x8000ea <addressAddress+0x1>
     15a:	10 92 e9 00 	sts	0x00E9, r1	; 0x8000e9 <addressAddress>
     15e:	82 e0       	ldi	r24, 0x02	; 2
     160:	90 e0       	ldi	r25, 0x00	; 0
     162:	90 93 e6 00 	sts	0x00E6, r25	; 0x8000e6 <dataAddress+0x1>
     166:	80 93 e5 00 	sts	0x00E5, r24	; 0x8000e5 <dataAddress>
     16a:	90 93 64 00 	sts	0x0064, r25	; 0x800064 <counterAddress+0x1>
     16e:	80 93 63 00 	sts	0x0063, r24	; 0x800063 <counterAddress>
     172:	10 92 e8 00 	sts	0x00E8, r1	; 0x8000e8 <eepromWriteCounter+0x1>
     176:	10 92 e7 00 	sts	0x00E7, r1	; 0x8000e7 <eepromWriteCounter>
     17a:	83 e0       	ldi	r24, 0x03	; 3
     17c:	90 e0       	ldi	r25, 0x00	; 0
     17e:	90 93 62 00 	sts	0x0062, r25	; 0x800062 <passwardAddress+0x1>
     182:	80 93 61 00 	sts	0x0061, r24	; 0x800061 <passwardAddress>
     186:	60 e3       	ldi	r22, 0x30	; 48
     188:	0e 94 b8 09 	call	0x1370	; 0x1370 <EEPROM_write>
     18c:	80 91 61 00 	lds	r24, 0x0061	; 0x800061 <passwardAddress>
     190:	90 91 62 00 	lds	r25, 0x0062	; 0x800062 <passwardAddress+0x1>
     194:	60 e3       	ldi	r22, 0x30	; 48
     196:	01 96       	adiw	r24, 0x01	; 1
     198:	0e 94 b8 09 	call	0x1370	; 0x1370 <EEPROM_write>
     19c:	80 91 61 00 	lds	r24, 0x0061	; 0x800061 <passwardAddress>
     1a0:	90 91 62 00 	lds	r25, 0x0062	; 0x800062 <passwardAddress+0x1>
     1a4:	60 e3       	ldi	r22, 0x30	; 48
     1a6:	02 96       	adiw	r24, 0x02	; 2
     1a8:	0e 94 b8 09 	call	0x1370	; 0x1370 <EEPROM_write>
     1ac:	80 91 61 00 	lds	r24, 0x0061	; 0x800061 <passwardAddress>
     1b0:	90 91 62 00 	lds	r25, 0x0062	; 0x800062 <passwardAddress+0x1>
     1b4:	60 e3       	ldi	r22, 0x30	; 48
     1b6:	03 96       	adiw	r24, 0x03	; 3
     1b8:	0e 94 b8 09 	call	0x1370	; 0x1370 <EEPROM_write>
     1bc:	80 91 61 00 	lds	r24, 0x0061	; 0x800061 <passwardAddress>
     1c0:	90 91 62 00 	lds	r25, 0x0062	; 0x800062 <passwardAddress+0x1>
     1c4:	60 e0       	ldi	r22, 0x00	; 0
     1c6:	04 96       	adiw	r24, 0x04	; 4
     1c8:	0e 94 b8 09 	call	0x1370	; 0x1370 <EEPROM_write>
     1cc:	81 e0       	ldi	r24, 0x01	; 1
     1ce:	80 93 ff 00 	sts	0x00FF, r24	; 0x8000ff <firstUse>
     1d2:	80 91 e9 00 	lds	r24, 0x00E9	; 0x8000e9 <addressAddress>
     1d6:	90 91 ea 00 	lds	r25, 0x00EA	; 0x8000ea <addressAddress+0x1>
     1da:	0e 94 c2 09 	call	0x1384	; 0x1384 <EEPROM_read>
     1de:	80 93 e5 00 	sts	0x00E5, r24	; 0x8000e5 <dataAddress>
     1e2:	80 91 e9 00 	lds	r24, 0x00E9	; 0x8000e9 <addressAddress>
     1e6:	90 91 ea 00 	lds	r25, 0x00EA	; 0x8000ea <addressAddress+0x1>
     1ea:	01 96       	adiw	r24, 0x01	; 1
     1ec:	0e 94 c2 09 	call	0x1384	; 0x1384 <EEPROM_read>
     1f0:	80 93 e6 00 	sts	0x00E6, r24	; 0x8000e6 <dataAddress+0x1>
     1f4:	80 91 e5 00 	lds	r24, 0x00E5	; 0x8000e5 <dataAddress>
     1f8:	90 91 e6 00 	lds	r25, 0x00E6	; 0x8000e6 <dataAddress+0x1>
     1fc:	8b 3e       	cpi	r24, 0xEB	; 235
     1fe:	93 40       	sbci	r25, 0x03	; 3
     200:	b0 f0       	brcs	.+44     	; 0x22e <changePassward_Init+0xf0>
     202:	82 e0       	ldi	r24, 0x02	; 2
     204:	90 e0       	ldi	r25, 0x00	; 0
     206:	90 93 e6 00 	sts	0x00E6, r25	; 0x8000e6 <dataAddress+0x1>
     20a:	80 93 e5 00 	sts	0x00E5, r24	; 0x8000e5 <dataAddress>
     20e:	62 e0       	ldi	r22, 0x02	; 2
     210:	80 91 e9 00 	lds	r24, 0x00E9	; 0x8000e9 <addressAddress>
     214:	90 91 ea 00 	lds	r25, 0x00EA	; 0x8000ea <addressAddress+0x1>
     218:	0e 94 b8 09 	call	0x1370	; 0x1370 <EEPROM_write>
     21c:	80 91 e9 00 	lds	r24, 0x00E9	; 0x8000e9 <addressAddress>
     220:	90 91 ea 00 	lds	r25, 0x00EA	; 0x8000ea <addressAddress+0x1>
     224:	60 91 e6 00 	lds	r22, 0x00E6	; 0x8000e6 <dataAddress+0x1>
     228:	01 97       	sbiw	r24, 0x01	; 1
     22a:	0e 94 b8 09 	call	0x1370	; 0x1370 <EEPROM_write>
     22e:	80 91 e5 00 	lds	r24, 0x00E5	; 0x8000e5 <dataAddress>
     232:	90 91 e6 00 	lds	r25, 0x00E6	; 0x8000e6 <dataAddress+0x1>
     236:	90 93 64 00 	sts	0x0064, r25	; 0x800064 <counterAddress+0x1>
     23a:	80 93 63 00 	sts	0x0063, r24	; 0x800063 <counterAddress>
     23e:	0e 94 c2 09 	call	0x1384	; 0x1384 <EEPROM_read>
     242:	90 e0       	ldi	r25, 0x00	; 0
     244:	90 93 e8 00 	sts	0x00E8, r25	; 0x8000e8 <eepromWriteCounter+0x1>
     248:	80 93 e7 00 	sts	0x00E7, r24	; 0x8000e7 <eepromWriteCounter>
     24c:	03 97       	sbiw	r24, 0x03	; 3
     24e:	58 f0       	brcs	.+22     	; 0x266 <changePassward_Init+0x128>
     250:	60 e0       	ldi	r22, 0x00	; 0
     252:	80 91 63 00 	lds	r24, 0x0063	; 0x800063 <counterAddress>
     256:	90 91 64 00 	lds	r25, 0x0064	; 0x800064 <counterAddress+0x1>
     25a:	0e 94 b8 09 	call	0x1370	; 0x1370 <EEPROM_write>
     25e:	10 92 e8 00 	sts	0x00E8, r1	; 0x8000e8 <eepromWriteCounter+0x1>
     262:	10 92 e7 00 	sts	0x00E7, r1	; 0x8000e7 <eepromWriteCounter>
     266:	40 91 e5 00 	lds	r20, 0x00E5	; 0x8000e5 <dataAddress>
     26a:	50 91 e6 00 	lds	r21, 0x00E6	; 0x8000e6 <dataAddress+0x1>
     26e:	4f 5f       	subi	r20, 0xFF	; 255
     270:	5f 4f       	sbci	r21, 0xFF	; 255
     272:	50 93 62 00 	sts	0x0062, r21	; 0x800062 <passwardAddress+0x1>
     276:	40 93 61 00 	sts	0x0061, r20	; 0x800061 <passwardAddress>
     27a:	6c 2f       	mov	r22, r28
     27c:	70 e0       	ldi	r23, 0x00	; 0
     27e:	61 15       	cp	r22, r1
     280:	71 05       	cpc	r23, r1
     282:	31 f0       	breq	.+12     	; 0x290 <changePassward_Init+0x152>
     284:	c8 01       	movw	r24, r16
     286:	cf 91       	pop	r28
     288:	1f 91       	pop	r17
     28a:	0f 91       	pop	r16
     28c:	0c 94 68 00 	jmp	0xd0	; 0xd0 <EEPROM_passwardRetrieval.part.1>
     290:	cf 91       	pop	r28
     292:	1f 91       	pop	r17
     294:	0f 91       	pop	r16
     296:	08 95       	ret

00000298 <changePassward_Run>:
     298:	ef 92       	push	r14
     29a:	ff 92       	push	r15
     29c:	0f 93       	push	r16
     29e:	1f 93       	push	r17
     2a0:	cf 93       	push	r28
     2a2:	df 93       	push	r29
     2a4:	ec 01       	movw	r28, r24
     2a6:	16 2f       	mov	r17, r22
     2a8:	80 91 e1 00 	lds	r24, 0x00E1	; 0x8000e1 <index.1902>
     2ac:	90 91 e2 00 	lds	r25, 0x00E2	; 0x8000e2 <index.1902+0x1>
     2b0:	43 97       	sbiw	r24, 0x13	; 19
     2b2:	58 f5       	brcc	.+86     	; 0x30a <changePassward_Run+0x72>
     2b4:	e0 90 61 00 	lds	r14, 0x0061	; 0x800061 <passwardAddress>
     2b8:	f0 90 62 00 	lds	r15, 0x0062	; 0x800062 <passwardAddress+0x1>
     2bc:	01 e0       	ldi	r16, 0x01	; 1
     2be:	00 93 60 00 	sts	0x0060, r16	; 0x800060 <__DATA_REGION_ORIGIN__>
     2c2:	80 91 e4 00 	lds	r24, 0x00E4	; 0x8000e4 <key>
     2c6:	80 93 e0 00 	sts	0x00E0, r24	; 0x8000e0 <__data_end>
     2ca:	0e 94 2d 05 	call	0xa5a	; 0xa5a <KEYPAD_GetKey>
     2ce:	80 93 e4 00 	sts	0x00E4, r24	; 0x8000e4 <key>
     2d2:	90 91 e0 00 	lds	r25, 0x00E0	; 0x8000e0 <__data_end>
     2d6:	89 13       	cpse	r24, r25
     2d8:	e9 c0       	rjmp	.+466    	; 0x4ac <__EEPROM_REGION_LENGTH__+0xac>
     2da:	17 c0       	rjmp	.+46     	; 0x30a <changePassward_Run+0x72>
     2dc:	83 34       	cpi	r24, 0x43	; 67
     2de:	09 f4       	brne	.+2      	; 0x2e2 <changePassward_Run+0x4a>
     2e0:	16 c1       	rjmp	.+556    	; 0x50e <__EEPROM_REGION_LENGTH__+0x10e>
     2e2:	20 91 e1 00 	lds	r18, 0x00E1	; 0x8000e1 <index.1902>
     2e6:	30 91 e2 00 	lds	r19, 0x00E2	; 0x8000e2 <index.1902+0x1>
     2ea:	f9 01       	movw	r30, r18
     2ec:	e5 51       	subi	r30, 0x15	; 21
     2ee:	ff 4f       	sbci	r31, 0xFF	; 255
     2f0:	80 83       	st	Z, r24
     2f2:	c9 01       	movw	r24, r18
     2f4:	01 96       	adiw	r24, 0x01	; 1
     2f6:	90 93 e2 00 	sts	0x00E2, r25	; 0x8000e2 <index.1902+0x1>
     2fa:	80 93 e1 00 	sts	0x00E1, r24	; 0x8000e1 <index.1902>
     2fe:	fc 01       	movw	r30, r24
     300:	e5 51       	subi	r30, 0x15	; 21
     302:	ff 4f       	sbci	r31, 0xFF	; 255
     304:	10 82       	st	Z, r1
     306:	00 93 60 00 	sts	0x0060, r16	; 0x800060 <__DATA_REGION_ORIGIN__>
     30a:	80 91 60 00 	lds	r24, 0x0060	; 0x800060 <__DATA_REGION_ORIGIN__>
     30e:	82 30       	cpi	r24, 0x02	; 2
     310:	91 f4       	brne	.+36     	; 0x336 <changePassward_Run+0x9e>
     312:	80 91 e3 00 	lds	r24, 0x00E3	; 0x8000e3 <retrievalDone>
     316:	81 30       	cpi	r24, 0x01	; 1
     318:	71 f4       	brne	.+28     	; 0x336 <changePassward_Run+0x9e>
     31a:	61 2f       	mov	r22, r17
     31c:	70 e0       	ldi	r23, 0x00	; 0
     31e:	61 15       	cp	r22, r1
     320:	71 05       	cpc	r23, r1
     322:	39 f0       	breq	.+14     	; 0x332 <changePassward_Run+0x9a>
     324:	40 91 61 00 	lds	r20, 0x0061	; 0x800061 <passwardAddress>
     328:	50 91 62 00 	lds	r21, 0x0062	; 0x800062 <passwardAddress+0x1>
     32c:	ce 01       	movw	r24, r28
     32e:	0e 94 68 00 	call	0xd0	; 0xd0 <EEPROM_passwardRetrieval.part.1>
     332:	10 92 e3 00 	sts	0x00E3, r1	; 0x8000e3 <retrievalDone>
     336:	80 91 e7 00 	lds	r24, 0x00E7	; 0x8000e7 <eepromWriteCounter>
     33a:	90 91 e8 00 	lds	r25, 0x00E8	; 0x8000e8 <eepromWriteCounter+0x1>
     33e:	03 97       	sbiw	r24, 0x03	; 3
     340:	09 f0       	breq	.+2      	; 0x344 <changePassward_Run+0xac>
     342:	63 c0       	rjmp	.+198    	; 0x40a <__EEPROM_REGION_LENGTH__+0xa>
     344:	80 91 e5 00 	lds	r24, 0x00E5	; 0x8000e5 <dataAddress>
     348:	90 91 e6 00 	lds	r25, 0x00E6	; 0x8000e6 <dataAddress+0x1>
     34c:	9c 01       	movw	r18, r24
     34e:	26 5d       	subi	r18, 0xD6	; 214
     350:	33 40       	sbci	r19, 0x03	; 3
     352:	27 31       	cpi	r18, 0x17	; 23
     354:	3c 4f       	sbci	r19, 0xFC	; 252
     356:	10 f0       	brcs	.+4      	; 0x35c <changePassward_Run+0xc4>
     358:	45 96       	adiw	r24, 0x15	; 21
     35a:	02 c0       	rjmp	.+4      	; 0x360 <changePassward_Run+0xc8>
     35c:	82 e0       	ldi	r24, 0x02	; 2
     35e:	90 e0       	ldi	r25, 0x00	; 0
     360:	90 93 e6 00 	sts	0x00E6, r25	; 0x8000e6 <dataAddress+0x1>
     364:	80 93 e5 00 	sts	0x00E5, r24	; 0x8000e5 <dataAddress>
     368:	60 91 e5 00 	lds	r22, 0x00E5	; 0x8000e5 <dataAddress>
     36c:	80 91 e9 00 	lds	r24, 0x00E9	; 0x8000e9 <addressAddress>
     370:	90 91 ea 00 	lds	r25, 0x00EA	; 0x8000ea <addressAddress+0x1>
     374:	0e 94 b8 09 	call	0x1370	; 0x1370 <EEPROM_write>
     378:	80 91 e9 00 	lds	r24, 0x00E9	; 0x8000e9 <addressAddress>
     37c:	90 91 ea 00 	lds	r25, 0x00EA	; 0x8000ea <addressAddress+0x1>
     380:	60 91 e6 00 	lds	r22, 0x00E6	; 0x8000e6 <dataAddress+0x1>
     384:	01 96       	adiw	r24, 0x01	; 1
     386:	0e 94 b8 09 	call	0x1370	; 0x1370 <EEPROM_write>
     38a:	80 91 e5 00 	lds	r24, 0x00E5	; 0x8000e5 <dataAddress>
     38e:	90 91 e6 00 	lds	r25, 0x00E6	; 0x8000e6 <dataAddress+0x1>
     392:	90 93 64 00 	sts	0x0064, r25	; 0x800064 <counterAddress+0x1>
     396:	80 93 63 00 	sts	0x0063, r24	; 0x800063 <counterAddress>
     39a:	60 e0       	ldi	r22, 0x00	; 0
     39c:	0e 94 b8 09 	call	0x1370	; 0x1370 <EEPROM_write>
     3a0:	10 92 e8 00 	sts	0x00E8, r1	; 0x8000e8 <eepromWriteCounter+0x1>
     3a4:	10 92 e7 00 	sts	0x00E7, r1	; 0x8000e7 <eepromWriteCounter>
     3a8:	80 91 61 00 	lds	r24, 0x0061	; 0x800061 <passwardAddress>
     3ac:	90 91 62 00 	lds	r25, 0x0062	; 0x800062 <passwardAddress+0x1>
     3b0:	0e 94 c2 09 	call	0x1384	; 0x1384 <EEPROM_read>
     3b4:	10 e0       	ldi	r17, 0x00	; 0
     3b6:	20 91 e5 00 	lds	r18, 0x00E5	; 0x8000e5 <dataAddress>
     3ba:	30 91 e6 00 	lds	r19, 0x00E6	; 0x8000e6 <dataAddress+0x1>
     3be:	41 2f       	mov	r20, r17
     3c0:	50 e0       	ldi	r21, 0x00	; 0
     3c2:	88 23       	and	r24, r24
     3c4:	91 f0       	breq	.+36     	; 0x3ea <changePassward_Run+0x152>
     3c6:	2f 5f       	subi	r18, 0xFF	; 255
     3c8:	3f 4f       	sbci	r19, 0xFF	; 255
     3ca:	68 2f       	mov	r22, r24
     3cc:	c9 01       	movw	r24, r18
     3ce:	84 0f       	add	r24, r20
     3d0:	95 1f       	adc	r25, r21
     3d2:	0e 94 b8 09 	call	0x1370	; 0x1370 <EEPROM_write>
     3d6:	1f 5f       	subi	r17, 0xFF	; 255
     3d8:	80 91 61 00 	lds	r24, 0x0061	; 0x800061 <passwardAddress>
     3dc:	90 91 62 00 	lds	r25, 0x0062	; 0x800062 <passwardAddress+0x1>
     3e0:	81 0f       	add	r24, r17
     3e2:	91 1d       	adc	r25, r1
     3e4:	0e 94 c2 09 	call	0x1384	; 0x1384 <EEPROM_read>
     3e8:	e6 cf       	rjmp	.-52     	; 0x3b6 <changePassward_Run+0x11e>
     3ea:	c9 01       	movw	r24, r18
     3ec:	01 96       	adiw	r24, 0x01	; 1
     3ee:	60 e0       	ldi	r22, 0x00	; 0
     3f0:	84 0f       	add	r24, r20
     3f2:	95 1f       	adc	r25, r21
     3f4:	0e 94 b8 09 	call	0x1370	; 0x1370 <EEPROM_write>
     3f8:	80 91 e5 00 	lds	r24, 0x00E5	; 0x8000e5 <dataAddress>
     3fc:	90 91 e6 00 	lds	r25, 0x00E6	; 0x8000e6 <dataAddress+0x1>
     400:	01 96       	adiw	r24, 0x01	; 1
     402:	90 93 62 00 	sts	0x0062, r25	; 0x800062 <passwardAddress+0x1>
     406:	80 93 61 00 	sts	0x0061, r24	; 0x800061 <passwardAddress>
     40a:	60 e0       	ldi	r22, 0x00	; 0
     40c:	80 e0       	ldi	r24, 0x00	; 0
     40e:	0e 94 9b 06 	call	0xd36	; 0xd36 <LCD_GoTo>
     412:	60 91 e5 00 	lds	r22, 0x00E5	; 0x8000e5 <dataAddress>
     416:	70 91 e6 00 	lds	r23, 0x00E6	; 0x8000e6 <dataAddress+0x1>
     41a:	80 e0       	ldi	r24, 0x00	; 0
     41c:	90 e0       	ldi	r25, 0x00	; 0
     41e:	0e 94 ba 06 	call	0xd74	; 0xd74 <LCD_WriteNumber>
     422:	60 e0       	ldi	r22, 0x00	; 0
     424:	81 e0       	ldi	r24, 0x01	; 1
     426:	0e 94 9b 06 	call	0xd36	; 0xd36 <LCD_GoTo>
     42a:	80 91 e9 00 	lds	r24, 0x00E9	; 0x8000e9 <addressAddress>
     42e:	90 91 ea 00 	lds	r25, 0x00EA	; 0x8000ea <addressAddress+0x1>
     432:	0e 94 24 07 	call	0xe48	; 0xe48 <LCD_WriteNumber_4Digit>
     436:	66 e0       	ldi	r22, 0x06	; 6
     438:	80 e0       	ldi	r24, 0x00	; 0
     43a:	0e 94 9b 06 	call	0xd36	; 0xd36 <LCD_GoTo>
     43e:	80 91 e7 00 	lds	r24, 0x00E7	; 0x8000e7 <eepromWriteCounter>
     442:	90 91 e8 00 	lds	r25, 0x00E8	; 0x8000e8 <eepromWriteCounter+0x1>
     446:	0e 94 24 07 	call	0xe48	; 0xe48 <LCD_WriteNumber_4Digit>
     44a:	66 e0       	ldi	r22, 0x06	; 6
     44c:	81 e0       	ldi	r24, 0x01	; 1
     44e:	0e 94 9b 06 	call	0xd36	; 0xd36 <LCD_GoTo>
     452:	80 91 63 00 	lds	r24, 0x0063	; 0x800063 <counterAddress>
     456:	90 91 64 00 	lds	r25, 0x0064	; 0x800064 <counterAddress+0x1>
     45a:	0e 94 24 07 	call	0xe48	; 0xe48 <LCD_WriteNumber_4Digit>
     45e:	6b e0       	ldi	r22, 0x0B	; 11
     460:	80 e0       	ldi	r24, 0x00	; 0
     462:	0e 94 9b 06 	call	0xd36	; 0xd36 <LCD_GoTo>
     466:	80 91 60 00 	lds	r24, 0x0060	; 0x800060 <__DATA_REGION_ORIGIN__>
     46a:	82 30       	cpi	r24, 0x02	; 2
     46c:	11 f4       	brne	.+4      	; 0x472 <__EEPROM_REGION_LENGTH__+0x72>
     46e:	ce 01       	movw	r24, r28
     470:	04 c0       	rjmp	.+8      	; 0x47a <__EEPROM_REGION_LENGTH__+0x7a>
     472:	81 30       	cpi	r24, 0x01	; 1
     474:	21 f4       	brne	.+8      	; 0x47e <__EEPROM_REGION_LENGTH__+0x7e>
     476:	8b ee       	ldi	r24, 0xEB	; 235
     478:	90 e0       	ldi	r25, 0x00	; 0
     47a:	0e 94 a7 06 	call	0xd4e	; 0xd4e <LCD_WriteString>
     47e:	8a e6       	ldi	r24, 0x6A	; 106
     480:	90 e0       	ldi	r25, 0x00	; 0
     482:	0e 94 a7 06 	call	0xd4e	; 0xd4e <LCD_WriteString>
     486:	6b e0       	ldi	r22, 0x0B	; 11
     488:	81 e0       	ldi	r24, 0x01	; 1
     48a:	0e 94 9b 06 	call	0xd36	; 0xd36 <LCD_GoTo>
     48e:	80 91 61 00 	lds	r24, 0x0061	; 0x800061 <passwardAddress>
     492:	90 91 62 00 	lds	r25, 0x0062	; 0x800062 <passwardAddress+0x1>
     496:	0e 94 24 07 	call	0xe48	; 0xe48 <LCD_WriteNumber_4Digit>
     49a:	80 91 60 00 	lds	r24, 0x0060	; 0x800060 <__DATA_REGION_ORIGIN__>
     49e:	df 91       	pop	r29
     4a0:	cf 91       	pop	r28
     4a2:	1f 91       	pop	r17
     4a4:	0f 91       	pop	r16
     4a6:	ff 90       	pop	r15
     4a8:	ef 90       	pop	r14
     4aa:	08 95       	ret
     4ac:	88 23       	and	r24, r24
     4ae:	09 f4       	brne	.+2      	; 0x4b2 <__EEPROM_REGION_LENGTH__+0xb2>
     4b0:	2c cf       	rjmp	.-424    	; 0x30a <changePassward_Run+0x72>
     4b2:	8d 33       	cpi	r24, 0x3D	; 61
     4b4:	09 f0       	breq	.+2      	; 0x4b8 <__EEPROM_REGION_LENGTH__+0xb8>
     4b6:	12 cf       	rjmp	.-476    	; 0x2dc <changePassward_Run+0x44>
     4b8:	00 e0       	ldi	r16, 0x00	; 0
     4ba:	80 2f       	mov	r24, r16
     4bc:	90 e0       	ldi	r25, 0x00	; 0
     4be:	fc 01       	movw	r30, r24
     4c0:	e5 51       	subi	r30, 0x15	; 21
     4c2:	ff 4f       	sbci	r31, 0xFF	; 255
     4c4:	60 81       	ld	r22, Z
     4c6:	8e 0d       	add	r24, r14
     4c8:	9f 1d       	adc	r25, r15
     4ca:	66 23       	and	r22, r22
     4cc:	21 f0       	breq	.+8      	; 0x4d6 <__EEPROM_REGION_LENGTH__+0xd6>
     4ce:	0e 94 b8 09 	call	0x1370	; 0x1370 <EEPROM_write>
     4d2:	0f 5f       	subi	r16, 0xFF	; 255
     4d4:	f2 cf       	rjmp	.-28     	; 0x4ba <__EEPROM_REGION_LENGTH__+0xba>
     4d6:	0e 94 b8 09 	call	0x1370	; 0x1370 <EEPROM_write>
     4da:	60 91 e7 00 	lds	r22, 0x00E7	; 0x8000e7 <eepromWriteCounter>
     4de:	70 91 e8 00 	lds	r23, 0x00E8	; 0x8000e8 <eepromWriteCounter+0x1>
     4e2:	6f 5f       	subi	r22, 0xFF	; 255
     4e4:	7f 4f       	sbci	r23, 0xFF	; 255
     4e6:	70 93 e8 00 	sts	0x00E8, r23	; 0x8000e8 <eepromWriteCounter+0x1>
     4ea:	60 93 e7 00 	sts	0x00E7, r22	; 0x8000e7 <eepromWriteCounter>
     4ee:	80 91 63 00 	lds	r24, 0x0063	; 0x800063 <counterAddress>
     4f2:	90 91 64 00 	lds	r25, 0x0064	; 0x800064 <counterAddress+0x1>
     4f6:	0e 94 b8 09 	call	0x1370	; 0x1370 <EEPROM_write>
     4fa:	10 92 eb 00 	sts	0x00EB, r1	; 0x8000eb <passward>
     4fe:	10 92 e2 00 	sts	0x00E2, r1	; 0x8000e2 <index.1902+0x1>
     502:	10 92 e1 00 	sts	0x00E1, r1	; 0x8000e1 <index.1902>
     506:	81 e0       	ldi	r24, 0x01	; 1
     508:	80 93 e3 00 	sts	0x00E3, r24	; 0x8000e3 <retrievalDone>
     50c:	06 c0       	rjmp	.+12     	; 0x51a <__EEPROM_REGION_LENGTH__+0x11a>
     50e:	10 92 e2 00 	sts	0x00E2, r1	; 0x8000e2 <index.1902+0x1>
     512:	10 92 e1 00 	sts	0x00E1, r1	; 0x8000e1 <index.1902>
     516:	10 92 eb 00 	sts	0x00EB, r1	; 0x8000eb <passward>
     51a:	82 e0       	ldi	r24, 0x02	; 2
     51c:	80 93 60 00 	sts	0x0060, r24	; 0x800060 <__DATA_REGION_ORIGIN__>
     520:	f4 ce       	rjmp	.-536    	; 0x30a <changePassward_Run+0x72>

00000522 <Fire_System_servo>:
     522:	80 91 01 01 	lds	r24, 0x0101	; 0x800101 <servoDirection.2015>
     526:	81 11       	cpse	r24, r1
     528:	22 c0       	rjmp	.+68     	; 0x56e <Fire_System_servo+0x4c>
     52a:	20 e0       	ldi	r18, 0x00	; 0
     52c:	30 e0       	ldi	r19, 0x00	; 0
     52e:	40 e8       	ldi	r20, 0x80	; 128
     530:	5f e3       	ldi	r21, 0x3F	; 63
     532:	60 91 66 00 	lds	r22, 0x0066	; 0x800066 <angle>
     536:	70 91 67 00 	lds	r23, 0x0067	; 0x800067 <angle+0x1>
     53a:	80 91 68 00 	lds	r24, 0x0068	; 0x800068 <angle+0x2>
     53e:	90 91 69 00 	lds	r25, 0x0069	; 0x800069 <angle+0x3>
     542:	0e 94 a8 0c 	call	0x1950	; 0x1950 <__addsf3>
     546:	60 93 66 00 	sts	0x0066, r22	; 0x800066 <angle>
     54a:	70 93 67 00 	sts	0x0067, r23	; 0x800067 <angle+0x1>
     54e:	80 93 68 00 	sts	0x0068, r24	; 0x800068 <angle+0x2>
     552:	90 93 69 00 	sts	0x0069, r25	; 0x800069 <angle+0x3>
     556:	20 e0       	ldi	r18, 0x00	; 0
     558:	30 e0       	ldi	r19, 0x00	; 0
     55a:	44 eb       	ldi	r20, 0xB4	; 180
     55c:	52 e4       	ldi	r21, 0x42	; 66
     55e:	0e 94 14 0d 	call	0x1a28	; 0x1a28 <__cmpsf2>
     562:	81 11       	cpse	r24, r1
     564:	26 c0       	rjmp	.+76     	; 0x5b2 <Fire_System_servo+0x90>
     566:	81 e0       	ldi	r24, 0x01	; 1
     568:	80 93 01 01 	sts	0x0101, r24	; 0x800101 <servoDirection.2015>
     56c:	22 c0       	rjmp	.+68     	; 0x5b2 <Fire_System_servo+0x90>
     56e:	81 30       	cpi	r24, 0x01	; 1
     570:	01 f5       	brne	.+64     	; 0x5b2 <Fire_System_servo+0x90>
     572:	20 e0       	ldi	r18, 0x00	; 0
     574:	30 e0       	ldi	r19, 0x00	; 0
     576:	40 e8       	ldi	r20, 0x80	; 128
     578:	5f e3       	ldi	r21, 0x3F	; 63
     57a:	60 91 66 00 	lds	r22, 0x0066	; 0x800066 <angle>
     57e:	70 91 67 00 	lds	r23, 0x0067	; 0x800067 <angle+0x1>
     582:	80 91 68 00 	lds	r24, 0x0068	; 0x800068 <angle+0x2>
     586:	90 91 69 00 	lds	r25, 0x0069	; 0x800069 <angle+0x3>
     58a:	0e 94 a7 0c 	call	0x194e	; 0x194e <__subsf3>
     58e:	60 93 66 00 	sts	0x0066, r22	; 0x800066 <angle>
     592:	70 93 67 00 	sts	0x0067, r23	; 0x800067 <angle+0x1>
     596:	80 93 68 00 	sts	0x0068, r24	; 0x800068 <angle+0x2>
     59a:	90 93 69 00 	sts	0x0069, r25	; 0x800069 <angle+0x3>
     59e:	20 e0       	ldi	r18, 0x00	; 0
     5a0:	30 e0       	ldi	r19, 0x00	; 0
     5a2:	44 eb       	ldi	r20, 0xB4	; 180
     5a4:	52 ec       	ldi	r21, 0xC2	; 194
     5a6:	0e 94 14 0d 	call	0x1a28	; 0x1a28 <__cmpsf2>
     5aa:	81 11       	cpse	r24, r1
     5ac:	02 c0       	rjmp	.+4      	; 0x5b2 <Fire_System_servo+0x90>
     5ae:	10 92 01 01 	sts	0x0101, r1	; 0x800101 <servoDirection.2015>
     5b2:	60 91 66 00 	lds	r22, 0x0066	; 0x800066 <angle>
     5b6:	70 91 67 00 	lds	r23, 0x0067	; 0x800067 <angle+0x1>
     5ba:	80 91 68 00 	lds	r24, 0x0068	; 0x800068 <angle+0x2>
     5be:	90 91 69 00 	lds	r25, 0x0069	; 0x800069 <angle+0x3>
     5c2:	0c 94 89 07 	jmp	0xf12	; 0xf12 <SERVO_setAngle>

000005c6 <Fire_System_State_Fine>:
     5c6:	10 92 31 01 	sts	0x0131, r1	; 0x800131 <smoke+0x1>
     5ca:	10 92 30 01 	sts	0x0130, r1	; 0x800130 <smoke>
     5ce:	0e 94 68 07 	call	0xed0	; 0xed0 <LED1_Off>
     5d2:	0e 94 5a 07 	call	0xeb4	; 0xeb4 <LED2_Off>
     5d6:	80 91 04 01 	lds	r24, 0x0104	; 0x800104 <screen>
     5da:	81 11       	cpse	r24, r1
     5dc:	23 c0       	rjmp	.+70     	; 0x624 <Fire_System_State_Fine+0x5e>
     5de:	60 e0       	ldi	r22, 0x00	; 0
     5e0:	0e 94 9b 06 	call	0xd36	; 0xd36 <LCD_GoTo>
     5e4:	8f e6       	ldi	r24, 0x6F	; 111
     5e6:	90 e0       	ldi	r25, 0x00	; 0
     5e8:	0e 94 a7 06 	call	0xd4e	; 0xd4e <LCD_WriteString>
     5ec:	66 e0       	ldi	r22, 0x06	; 6
     5ee:	80 e0       	ldi	r24, 0x00	; 0
     5f0:	0e 94 9b 06 	call	0xd36	; 0xd36 <LCD_GoTo>
     5f4:	84 e7       	ldi	r24, 0x74	; 116
     5f6:	90 e0       	ldi	r25, 0x00	; 0
     5f8:	0e 94 a7 06 	call	0xd4e	; 0xd4e <LCD_WriteString>
     5fc:	80 91 32 01 	lds	r24, 0x0132	; 0x800132 <temperature>
     600:	90 91 33 01 	lds	r25, 0x0133	; 0x800133 <temperature+0x1>
     604:	0e 94 24 07 	call	0xe48	; 0xe48 <LCD_WriteNumber_4Digit>
     608:	66 e0       	ldi	r22, 0x06	; 6
     60a:	81 e0       	ldi	r24, 0x01	; 1
     60c:	0e 94 9b 06 	call	0xd36	; 0xd36 <LCD_GoTo>
     610:	8a e7       	ldi	r24, 0x7A	; 122
     612:	90 e0       	ldi	r25, 0x00	; 0
     614:	0e 94 a7 06 	call	0xd4e	; 0xd4e <LCD_WriteString>
     618:	80 91 30 01 	lds	r24, 0x0130	; 0x800130 <smoke>
     61c:	90 91 31 01 	lds	r25, 0x0131	; 0x800131 <smoke+0x1>
     620:	0c 94 24 07 	jmp	0xe48	; 0xe48 <LCD_WriteNumber_4Digit>
     624:	08 95       	ret

00000626 <Fire_System_State_Heat>:
     626:	0e 94 62 07 	call	0xec4	; 0xec4 <LED1_On>
     62a:	0e 94 5a 07 	call	0xeb4	; 0xeb4 <LED2_Off>
     62e:	80 91 04 01 	lds	r24, 0x0104	; 0x800104 <screen>
     632:	81 11       	cpse	r24, r1
     634:	23 c0       	rjmp	.+70     	; 0x67c <Fire_System_State_Heat+0x56>
     636:	60 e0       	ldi	r22, 0x00	; 0
     638:	0e 94 9b 06 	call	0xd36	; 0xd36 <LCD_GoTo>
     63c:	80 e8       	ldi	r24, 0x80	; 128
     63e:	90 e0       	ldi	r25, 0x00	; 0
     640:	0e 94 a7 06 	call	0xd4e	; 0xd4e <LCD_WriteString>
     644:	66 e0       	ldi	r22, 0x06	; 6
     646:	80 e0       	ldi	r24, 0x00	; 0
     648:	0e 94 9b 06 	call	0xd36	; 0xd36 <LCD_GoTo>
     64c:	84 e7       	ldi	r24, 0x74	; 116
     64e:	90 e0       	ldi	r25, 0x00	; 0
     650:	0e 94 a7 06 	call	0xd4e	; 0xd4e <LCD_WriteString>
     654:	80 91 32 01 	lds	r24, 0x0132	; 0x800132 <temperature>
     658:	90 91 33 01 	lds	r25, 0x0133	; 0x800133 <temperature+0x1>
     65c:	0e 94 24 07 	call	0xe48	; 0xe48 <LCD_WriteNumber_4Digit>
     660:	66 e0       	ldi	r22, 0x06	; 6
     662:	81 e0       	ldi	r24, 0x01	; 1
     664:	0e 94 9b 06 	call	0xd36	; 0xd36 <LCD_GoTo>
     668:	8a e7       	ldi	r24, 0x7A	; 122
     66a:	90 e0       	ldi	r25, 0x00	; 0
     66c:	0e 94 a7 06 	call	0xd4e	; 0xd4e <LCD_WriteString>
     670:	80 91 30 01 	lds	r24, 0x0130	; 0x800130 <smoke>
     674:	90 91 31 01 	lds	r25, 0x0131	; 0x800131 <smoke+0x1>
     678:	0c 94 24 07 	jmp	0xe48	; 0xe48 <LCD_WriteNumber_4Digit>
     67c:	08 95       	ret

0000067e <Fire_System_State_Fire>:
     67e:	81 e0       	ldi	r24, 0x01	; 1
     680:	80 93 2e 01 	sts	0x012E, r24	; 0x80012e <fireMode>
     684:	0e 94 62 07 	call	0xec4	; 0xec4 <LED1_On>
     688:	0e 94 56 07 	call	0xeac	; 0xeac <LED2_On>
     68c:	0e 94 91 02 	call	0x522	; 0x522 <Fire_System_servo>
     690:	80 91 04 01 	lds	r24, 0x0104	; 0x800104 <screen>
     694:	81 11       	cpse	r24, r1
     696:	23 c0       	rjmp	.+70     	; 0x6de <Fire_System_State_Fire+0x60>
     698:	60 e0       	ldi	r22, 0x00	; 0
     69a:	0e 94 9b 06 	call	0xd36	; 0xd36 <LCD_GoTo>
     69e:	85 e8       	ldi	r24, 0x85	; 133
     6a0:	90 e0       	ldi	r25, 0x00	; 0
     6a2:	0e 94 a7 06 	call	0xd4e	; 0xd4e <LCD_WriteString>
     6a6:	66 e0       	ldi	r22, 0x06	; 6
     6a8:	80 e0       	ldi	r24, 0x00	; 0
     6aa:	0e 94 9b 06 	call	0xd36	; 0xd36 <LCD_GoTo>
     6ae:	84 e7       	ldi	r24, 0x74	; 116
     6b0:	90 e0       	ldi	r25, 0x00	; 0
     6b2:	0e 94 a7 06 	call	0xd4e	; 0xd4e <LCD_WriteString>
     6b6:	80 91 32 01 	lds	r24, 0x0132	; 0x800132 <temperature>
     6ba:	90 91 33 01 	lds	r25, 0x0133	; 0x800133 <temperature+0x1>
     6be:	0e 94 24 07 	call	0xe48	; 0xe48 <LCD_WriteNumber_4Digit>
     6c2:	66 e0       	ldi	r22, 0x06	; 6
     6c4:	81 e0       	ldi	r24, 0x01	; 1
     6c6:	0e 94 9b 06 	call	0xd36	; 0xd36 <LCD_GoTo>
     6ca:	8a e7       	ldi	r24, 0x7A	; 122
     6cc:	90 e0       	ldi	r25, 0x00	; 0
     6ce:	0e 94 a7 06 	call	0xd4e	; 0xd4e <LCD_WriteString>
     6d2:	80 91 30 01 	lds	r24, 0x0130	; 0x800130 <smoke>
     6d6:	90 91 31 01 	lds	r25, 0x0131	; 0x800131 <smoke+0x1>
     6da:	0c 94 24 07 	jmp	0xe48	; 0xe48 <LCD_WriteNumber_4Digit>
     6de:	08 95       	ret

000006e0 <Fire_System_getKey>:
     6e0:	80 91 04 01 	lds	r24, 0x0104	; 0x800104 <screen>
     6e4:	81 11       	cpse	r24, r1
     6e6:	2d c0       	rjmp	.+90     	; 0x742 <Fire_System_getKey+0x62>
     6e8:	80 91 05 01 	lds	r24, 0x0105	; 0x800105 <key>
     6ec:	80 93 00 01 	sts	0x0100, r24	; 0x800100 <lastKey.2039>
     6f0:	0e 94 2d 05 	call	0xa5a	; 0xa5a <KEYPAD_GetKey>
     6f4:	80 93 05 01 	sts	0x0105, r24	; 0x800105 <key>
     6f8:	90 91 00 01 	lds	r25, 0x0100	; 0x800100 <lastKey.2039>
     6fc:	89 13       	cpse	r24, r25
     6fe:	01 c0       	rjmp	.+2      	; 0x702 <Fire_System_getKey+0x22>
     700:	08 95       	ret
     702:	81 33       	cpi	r24, 0x31	; 49
     704:	91 f4       	brne	.+36     	; 0x72a <Fire_System_getKey+0x4a>
     706:	0e 94 91 06 	call	0xd22	; 0xd22 <LCD_Clear>
     70a:	10 92 1a 01 	sts	0x011A, r1	; 0x80011a <passward>
     70e:	60 e0       	ldi	r22, 0x00	; 0
     710:	80 e0       	ldi	r24, 0x00	; 0
     712:	0e 94 9b 06 	call	0xd36	; 0xd36 <LCD_GoTo>
     716:	8a e8       	ldi	r24, 0x8A	; 138
     718:	90 e0       	ldi	r25, 0x00	; 0
     71a:	0e 94 a7 06 	call	0xd4e	; 0xd4e <LCD_WriteString>
     71e:	81 e0       	ldi	r24, 0x01	; 1
     720:	80 93 04 01 	sts	0x0104, r24	; 0x800104 <screen>
     724:	80 93 02 01 	sts	0x0102, r24	; 0x800102 <getPasswardMode>
     728:	08 95       	ret
     72a:	82 33       	cpi	r24, 0x32	; 50
     72c:	51 f4       	brne	.+20     	; 0x742 <Fire_System_getKey+0x62>
     72e:	0e 94 91 06 	call	0xd22	; 0xd22 <LCD_Clear>
     732:	10 92 1a 01 	sts	0x011A, r1	; 0x80011a <passward>
     736:	81 e0       	ldi	r24, 0x01	; 1
     738:	80 93 04 01 	sts	0x0104, r24	; 0x800104 <screen>
     73c:	80 93 03 01 	sts	0x0103, r24	; 0x800103 <changePasswardMode>
     740:	08 95       	ret
     742:	08 95       	ret

00000744 <Fire_System_Init>:
     744:	0e 94 a9 04 	call	0x952	; 0x952 <getPassward_Init>
     748:	0e 94 39 08 	call	0x1072	; 0x1072 <DIO_Init>
     74c:	66 e0       	ldi	r22, 0x06	; 6
     74e:	81 e0       	ldi	r24, 0x01	; 1
     750:	0e 94 ab 07 	call	0xf56	; 0xf56 <ADC_Init>
     754:	80 e2       	ldi	r24, 0x20	; 32
     756:	9e e4       	ldi	r25, 0x4E	; 78
     758:	97 bd       	out	0x27, r25	; 39
     75a:	86 bd       	out	0x26, r24	; 38
     75c:	60 91 66 00 	lds	r22, 0x0066	; 0x800066 <angle>
     760:	70 91 67 00 	lds	r23, 0x0067	; 0x800067 <angle+0x1>
     764:	80 91 68 00 	lds	r24, 0x0068	; 0x800068 <angle+0x2>
     768:	90 91 69 00 	lds	r25, 0x0069	; 0x800069 <angle+0x3>
     76c:	0e 94 89 07 	call	0xf12	; 0xf12 <SERVO_setAngle>
     770:	20 e0       	ldi	r18, 0x00	; 0
     772:	42 e0       	ldi	r20, 0x02	; 2
     774:	6e e0       	ldi	r22, 0x0E	; 14
     776:	82 e0       	ldi	r24, 0x02	; 2
     778:	0e 94 c0 0a 	call	0x1580	; 0x1580 <TIMER1_Init>
     77c:	0e 94 56 06 	call	0xcac	; 0xcac <LCD_Init>
     780:	0e 94 d7 07 	call	0xfae	; 0xfae <ADC_Enable>
     784:	64 e1       	ldi	r22, 0x14	; 20
     786:	86 e0       	ldi	r24, 0x06	; 6
     788:	91 e0       	ldi	r25, 0x01	; 1
     78a:	0c 94 9f 00 	jmp	0x13e	; 0x13e <changePassward_Init>

0000078e <Fire_System_Run>:
     78e:	cf 93       	push	r28
     790:	df 93       	push	r29
     792:	0e 94 6a 07 	call	0xed4	; 0xed4 <LM35>
     796:	9b 01       	movw	r18, r22
     798:	70 93 33 01 	sts	0x0133, r23	; 0x800133 <temperature+0x1>
     79c:	60 93 32 01 	sts	0x0132, r22	; 0x800132 <temperature>
     7a0:	80 91 2e 01 	lds	r24, 0x012E	; 0x80012e <fireMode>
     7a4:	81 11       	cpse	r24, r1
     7a6:	26 c0       	rjmp	.+76     	; 0x7f4 <Fire_System_Run+0x66>
     7a8:	21 39       	cpi	r18, 0x91	; 145
     7aa:	81 e0       	ldi	r24, 0x01	; 1
     7ac:	38 07       	cpc	r19, r24
     7ae:	28 f4       	brcc	.+10     	; 0x7ba <Fire_System_Run+0x2c>
     7b0:	0e 94 e3 02 	call	0x5c6	; 0x5c6 <Fire_System_State_Fine>
     7b4:	10 92 2f 01 	sts	0x012F, r1	; 0x80012f <lastMode>
     7b8:	27 c0       	rjmp	.+78     	; 0x808 <__DATA_REGION_LENGTH__+0x8>
     7ba:	23 3c       	cpi	r18, 0xC3	; 195
     7bc:	31 40       	sbci	r19, 0x01	; 1
     7be:	70 f0       	brcs	.+28     	; 0x7dc <Fire_System_Run+0x4e>
     7c0:	0e 94 71 07 	call	0xee2	; 0xee2 <MQ_2>
     7c4:	90 93 31 01 	sts	0x0131, r25	; 0x800131 <smoke+0x1>
     7c8:	80 93 30 01 	sts	0x0130, r24	; 0x800130 <smoke>
     7cc:	c3 97       	sbiw	r24, 0x33	; 51
     7ce:	d0 f4       	brcc	.+52     	; 0x804 <__DATA_REGION_LENGTH__+0x4>
     7d0:	0e 94 13 03 	call	0x626	; 0x626 <Fire_System_State_Heat>
     7d4:	81 e0       	ldi	r24, 0x01	; 1
     7d6:	80 93 2f 01 	sts	0x012F, r24	; 0x80012f <lastMode>
     7da:	16 c0       	rjmp	.+44     	; 0x808 <__DATA_REGION_LENGTH__+0x8>
     7dc:	80 91 2f 01 	lds	r24, 0x012F	; 0x80012f <lastMode>
     7e0:	81 11       	cpse	r24, r1
     7e2:	03 c0       	rjmp	.+6      	; 0x7ea <Fire_System_Run+0x5c>
     7e4:	0e 94 e3 02 	call	0x5c6	; 0x5c6 <Fire_System_State_Fine>
     7e8:	0f c0       	rjmp	.+30     	; 0x808 <__DATA_REGION_LENGTH__+0x8>
     7ea:	81 30       	cpi	r24, 0x01	; 1
     7ec:	69 f4       	brne	.+26     	; 0x808 <__DATA_REGION_LENGTH__+0x8>
     7ee:	0e 94 13 03 	call	0x626	; 0x626 <Fire_System_State_Heat>
     7f2:	0a c0       	rjmp	.+20     	; 0x808 <__DATA_REGION_LENGTH__+0x8>
     7f4:	81 30       	cpi	r24, 0x01	; 1
     7f6:	41 f4       	brne	.+16     	; 0x808 <__DATA_REGION_LENGTH__+0x8>
     7f8:	0e 94 71 07 	call	0xee2	; 0xee2 <MQ_2>
     7fc:	90 93 31 01 	sts	0x0131, r25	; 0x800131 <smoke+0x1>
     800:	80 93 30 01 	sts	0x0130, r24	; 0x800130 <smoke>
     804:	0e 94 3f 03 	call	0x67e	; 0x67e <Fire_System_State_Fire>
     808:	0e 94 70 03 	call	0x6e0	; 0x6e0 <Fire_System_getKey>
     80c:	0e 94 70 03 	call	0x6e0	; 0x6e0 <Fire_System_getKey>
     810:	80 91 02 01 	lds	r24, 0x0102	; 0x800102 <getPasswardMode>
     814:	81 30       	cpi	r24, 0x01	; 1
     816:	61 f5       	brne	.+88     	; 0x870 <__stack+0x11>
     818:	80 91 04 01 	lds	r24, 0x0104	; 0x800104 <screen>
     81c:	81 30       	cpi	r24, 0x01	; 1
     81e:	41 f5       	brne	.+80     	; 0x870 <__stack+0x11>
     820:	60 91 65 00 	lds	r22, 0x0065	; 0x800065 <passwardSize>
     824:	8a e1       	ldi	r24, 0x1A	; 26
     826:	91 e0       	ldi	r25, 0x01	; 1
     828:	0e 94 ab 04 	call	0x956	; 0x956 <getPassward_Run>
     82c:	01 97       	sbiw	r24, 0x01	; 1
     82e:	29 f0       	breq	.+10     	; 0x83a <__DATA_REGION_LENGTH__+0x3a>
     830:	e6 e0       	ldi	r30, 0x06	; 6
     832:	f1 e0       	ldi	r31, 0x01	; 1
     834:	aa e1       	ldi	r26, 0x1A	; 26
     836:	b1 e0       	ldi	r27, 0x01	; 1
     838:	0d c0       	rjmp	.+26     	; 0x854 <__DATA_REGION_LENGTH__+0x54>
     83a:	60 e0       	ldi	r22, 0x00	; 0
     83c:	81 e0       	ldi	r24, 0x01	; 1
     83e:	0e 94 9b 06 	call	0xd36	; 0xd36 <LCD_GoTo>
     842:	8a e1       	ldi	r24, 0x1A	; 26
     844:	91 e0       	ldi	r25, 0x01	; 1
     846:	0e 94 a7 06 	call	0xd4e	; 0xd4e <LCD_WriteString>
     84a:	8a e9       	ldi	r24, 0x9A	; 154
     84c:	90 e0       	ldi	r25, 0x00	; 0
     84e:	0e 94 a7 06 	call	0xd4e	; 0xd4e <LCD_WriteString>
     852:	0e c0       	rjmp	.+28     	; 0x870 <__stack+0x11>
     854:	81 91       	ld	r24, Z+
     856:	88 23       	and	r24, r24
     858:	09 f4       	brne	.+2      	; 0x85c <__DATA_REGION_LENGTH__+0x5c>
     85a:	65 c0       	rjmp	.+202    	; 0x926 <__stack+0xc7>
     85c:	9d 91       	ld	r25, X+
     85e:	98 17       	cp	r25, r24
     860:	c9 f3       	breq	.-14     	; 0x854 <__DATA_REGION_LENGTH__+0x54>
     862:	83 e0       	ldi	r24, 0x03	; 3
     864:	80 93 04 01 	sts	0x0104, r24	; 0x800104 <screen>
     868:	10 92 02 01 	sts	0x0102, r1	; 0x800102 <getPasswardMode>
     86c:	0e 94 91 06 	call	0xd22	; 0xd22 <LCD_Clear>
     870:	80 91 03 01 	lds	r24, 0x0103	; 0x800103 <changePasswardMode>
     874:	81 30       	cpi	r24, 0x01	; 1
     876:	a9 f5       	brne	.+106    	; 0x8e2 <__stack+0x83>
     878:	80 91 04 01 	lds	r24, 0x0104	; 0x800104 <screen>
     87c:	81 30       	cpi	r24, 0x01	; 1
     87e:	d1 f4       	brne	.+52     	; 0x8b4 <__stack+0x55>
     880:	60 91 65 00 	lds	r22, 0x0065	; 0x800065 <passwardSize>
     884:	8a e1       	ldi	r24, 0x1A	; 26
     886:	91 e0       	ldi	r25, 0x01	; 1
     888:	0e 94 ab 04 	call	0x956	; 0x956 <getPassward_Run>
     88c:	01 97       	sbiw	r24, 0x01	; 1
     88e:	69 f4       	brne	.+26     	; 0x8aa <__stack+0x4b>
     890:	60 e0       	ldi	r22, 0x00	; 0
     892:	81 e0       	ldi	r24, 0x01	; 1
     894:	0e 94 9b 06 	call	0xd36	; 0xd36 <LCD_GoTo>
     898:	8a e1       	ldi	r24, 0x1A	; 26
     89a:	91 e0       	ldi	r25, 0x01	; 1
     89c:	0e 94 a7 06 	call	0xd4e	; 0xd4e <LCD_WriteString>
     8a0:	8a e9       	ldi	r24, 0x9A	; 154
     8a2:	90 e0       	ldi	r25, 0x00	; 0
     8a4:	0e 94 a7 06 	call	0xd4e	; 0xd4e <LCD_WriteString>
     8a8:	05 c0       	rjmp	.+10     	; 0x8b4 <__stack+0x55>
     8aa:	82 e0       	ldi	r24, 0x02	; 2
     8ac:	80 93 04 01 	sts	0x0104, r24	; 0x800104 <screen>
     8b0:	0e 94 91 06 	call	0xd22	; 0xd22 <LCD_Clear>
     8b4:	80 91 04 01 	lds	r24, 0x0104	; 0x800104 <screen>
     8b8:	82 30       	cpi	r24, 0x02	; 2
     8ba:	99 f4       	brne	.+38     	; 0x8e2 <__stack+0x83>
     8bc:	e6 e0       	ldi	r30, 0x06	; 6
     8be:	f1 e0       	ldi	r31, 0x01	; 1
     8c0:	aa e1       	ldi	r26, 0x1A	; 26
     8c2:	b1 e0       	ldi	r27, 0x01	; 1
     8c4:	81 91       	ld	r24, Z+
     8c6:	88 23       	and	r24, r24
     8c8:	99 f1       	breq	.+102    	; 0x930 <__stack+0xd1>
     8ca:	9d 91       	ld	r25, X+
     8cc:	98 17       	cp	r25, r24
     8ce:	d1 f3       	breq	.-12     	; 0x8c4 <__stack+0x65>
     8d0:	10 92 1a 01 	sts	0x011A, r1	; 0x80011a <passward>
     8d4:	83 e0       	ldi	r24, 0x03	; 3
     8d6:	80 93 04 01 	sts	0x0104, r24	; 0x800104 <screen>
     8da:	10 92 03 01 	sts	0x0103, r1	; 0x800103 <changePasswardMode>
     8de:	0e 94 91 06 	call	0xd22	; 0xd22 <LCD_Clear>
     8e2:	80 91 04 01 	lds	r24, 0x0104	; 0x800104 <screen>
     8e6:	83 30       	cpi	r24, 0x03	; 3
     8e8:	89 f5       	brne	.+98     	; 0x94c <__stack+0xed>
     8ea:	60 e0       	ldi	r22, 0x00	; 0
     8ec:	80 e0       	ldi	r24, 0x00	; 0
     8ee:	0e 94 9b 06 	call	0xd36	; 0xd36 <LCD_GoTo>
     8f2:	8f e9       	ldi	r24, 0x9F	; 159
     8f4:	90 e0       	ldi	r25, 0x00	; 0
     8f6:	0e 94 a7 06 	call	0xd4e	; 0xd4e <LCD_WriteString>
     8fa:	c0 e0       	ldi	r28, 0x00	; 0
     8fc:	d0 e0       	ldi	r29, 0x00	; 0
     8fe:	0e 94 91 02 	call	0x522	; 0x522 <Fire_System_servo>
     902:	82 e0       	ldi	r24, 0x02	; 2
     904:	8a 95       	dec	r24
     906:	f1 f7       	brne	.-4      	; 0x904 <__stack+0xa5>
     908:	00 c0       	rjmp	.+0      	; 0x90a <__stack+0xab>
     90a:	80 91 2e 01 	lds	r24, 0x012E	; 0x80012e <fireMode>
     90e:	88 23       	and	r24, r24
     910:	29 f0       	breq	.+10     	; 0x91c <__stack+0xbd>
     912:	21 96       	adiw	r28, 0x01	; 1
     914:	c8 3b       	cpi	r28, 0xB8	; 184
     916:	8b e0       	ldi	r24, 0x0B	; 11
     918:	d8 07       	cpc	r29, r24
     91a:	89 f7       	brne	.-30     	; 0x8fe <__stack+0x9f>
     91c:	0e 94 91 06 	call	0xd22	; 0xd22 <LCD_Clear>
     920:	10 92 04 01 	sts	0x0104, r1	; 0x800104 <screen>
     924:	13 c0       	rjmp	.+38     	; 0x94c <__stack+0xed>
     926:	10 92 2e 01 	sts	0x012E, r1	; 0x80012e <fireMode>
     92a:	10 92 04 01 	sts	0x0104, r1	; 0x800104 <screen>
     92e:	9c cf       	rjmp	.-200    	; 0x868 <__stack+0x9>
     930:	64 e1       	ldi	r22, 0x14	; 20
     932:	86 e0       	ldi	r24, 0x06	; 6
     934:	91 e0       	ldi	r25, 0x01	; 1
     936:	0e 94 4c 01 	call	0x298	; 0x298 <changePassward_Run>
     93a:	82 30       	cpi	r24, 0x02	; 2
     93c:	91 f6       	brne	.-92     	; 0x8e2 <__stack+0x83>
     93e:	10 92 04 01 	sts	0x0104, r1	; 0x800104 <screen>
     942:	10 92 03 01 	sts	0x0103, r1	; 0x800103 <changePasswardMode>
     946:	10 92 1a 01 	sts	0x011A, r1	; 0x80011a <passward>
     94a:	c9 cf       	rjmp	.-110    	; 0x8de <__stack+0x7f>
     94c:	df 91       	pop	r29
     94e:	cf 91       	pop	r28
     950:	08 95       	ret

00000952 <getPassward_Init>:
     952:	0c 94 39 08 	jmp	0x1072	; 0x1072 <DIO_Init>

00000956 <getPassward_Run>:
     956:	0f 93       	push	r16
     958:	1f 93       	push	r17
     95a:	cf 93       	push	r28
     95c:	8c 01       	movw	r16, r24
     95e:	c6 2f       	mov	r28, r22
     960:	60 e0       	ldi	r22, 0x00	; 0
     962:	80 e0       	ldi	r24, 0x00	; 0
     964:	0e 94 9b 06 	call	0xd36	; 0xd36 <LCD_GoTo>
     968:	8a e8       	ldi	r24, 0x8A	; 138
     96a:	90 e0       	ldi	r25, 0x00	; 0
     96c:	0e 94 a7 06 	call	0xd4e	; 0xd4e <LCD_WriteString>
     970:	01 15       	cp	r16, r1
     972:	11 05       	cpc	r17, r1
     974:	69 f1       	breq	.+90     	; 0x9d0 <getPassward_Run+0x7a>
     976:	cc 23       	and	r28, r28
     978:	59 f1       	breq	.+86     	; 0x9d0 <getPassward_Run+0x7a>
     97a:	80 91 35 01 	lds	r24, 0x0135	; 0x800135 <passwordIndex.1843>
     97e:	8c 17       	cp	r24, r28
     980:	38 f5       	brcc	.+78     	; 0x9d0 <getPassward_Run+0x7a>
     982:	80 91 36 01 	lds	r24, 0x0136	; 0x800136 <key>
     986:	80 93 34 01 	sts	0x0134, r24	; 0x800134 <lastKey.1837>
     98a:	0e 94 2d 05 	call	0xa5a	; 0xa5a <KEYPAD_GetKey>
     98e:	80 93 36 01 	sts	0x0136, r24	; 0x800136 <key>
     992:	90 91 34 01 	lds	r25, 0x0134	; 0x800134 <lastKey.1837>
     996:	89 17       	cp	r24, r25
     998:	d9 f0       	breq	.+54     	; 0x9d0 <getPassward_Run+0x7a>
     99a:	88 23       	and	r24, r24
     99c:	c9 f0       	breq	.+50     	; 0x9d0 <getPassward_Run+0x7a>
     99e:	90 91 35 01 	lds	r25, 0x0135	; 0x800135 <passwordIndex.1843>
     9a2:	29 2f       	mov	r18, r25
     9a4:	30 e0       	ldi	r19, 0x00	; 0
     9a6:	f8 01       	movw	r30, r16
     9a8:	e2 0f       	add	r30, r18
     9aa:	f3 1f       	adc	r31, r19
     9ac:	80 83       	st	Z, r24
     9ae:	8d 33       	cpi	r24, 0x3D	; 61
     9b0:	91 f0       	breq	.+36     	; 0x9d6 <getPassward_Run+0x80>
     9b2:	6c 2f       	mov	r22, r28
     9b4:	70 e0       	ldi	r23, 0x00	; 0
     9b6:	61 50       	subi	r22, 0x01	; 1
     9b8:	71 09       	sbc	r23, r1
     9ba:	26 17       	cp	r18, r22
     9bc:	37 07       	cpc	r19, r23
     9be:	59 f0       	breq	.+22     	; 0x9d6 <getPassward_Run+0x80>
     9c0:	81 e0       	ldi	r24, 0x01	; 1
     9c2:	89 0f       	add	r24, r25
     9c4:	80 93 35 01 	sts	0x0135, r24	; 0x800135 <passwordIndex.1843>
     9c8:	f8 01       	movw	r30, r16
     9ca:	e8 0f       	add	r30, r24
     9cc:	f1 1d       	adc	r31, r1
     9ce:	10 82       	st	Z, r1
     9d0:	81 e0       	ldi	r24, 0x01	; 1
     9d2:	90 e0       	ldi	r25, 0x00	; 0
     9d4:	05 c0       	rjmp	.+10     	; 0x9e0 <getPassward_Run+0x8a>
     9d6:	10 82       	st	Z, r1
     9d8:	10 92 35 01 	sts	0x0135, r1	; 0x800135 <passwordIndex.1843>
     9dc:	82 e0       	ldi	r24, 0x02	; 2
     9de:	90 e0       	ldi	r25, 0x00	; 0
     9e0:	cf 91       	pop	r28
     9e2:	1f 91       	pop	r17
     9e4:	0f 91       	pop	r16
     9e6:	08 95       	ret

000009e8 <KEYPAD_IsPressed>:
     9e8:	0f 93       	push	r16
     9ea:	1f 93       	push	r17
     9ec:	cf 93       	push	r28
     9ee:	df 93       	push	r29
     9f0:	d8 2f       	mov	r29, r24
     9f2:	06 2f       	mov	r16, r22
     9f4:	c4 2f       	mov	r28, r20
     9f6:	12 2f       	mov	r17, r18
     9f8:	60 e0       	ldi	r22, 0x00	; 0
     9fa:	0e 94 18 09 	call	0x1230	; 0x1230 <DIO_WritePin>
     9fe:	80 2f       	mov	r24, r16
     a00:	0e 94 93 09 	call	0x1326	; 0x1326 <DIO_ReadPin>
     a04:	4c 2f       	mov	r20, r28
     a06:	50 e0       	ldi	r21, 0x00	; 0
     a08:	21 2f       	mov	r18, r17
     a0a:	30 e0       	ldi	r19, 0x00	; 0
     a0c:	44 0f       	add	r20, r20
     a0e:	55 1f       	adc	r21, r21
     a10:	44 0f       	add	r20, r20
     a12:	55 1f       	adc	r21, r21
     a14:	81 11       	cpse	r24, r1
     a16:	13 c0       	rjmp	.+38     	; 0xa3e <KEYPAD_IsPressed+0x56>
     a18:	fa 01       	movw	r30, r20
     a1a:	e9 5c       	subi	r30, 0xC9	; 201
     a1c:	fe 4f       	sbci	r31, 0xFE	; 254
     a1e:	e2 0f       	add	r30, r18
     a20:	f3 1f       	adc	r31, r19
     a22:	80 81       	ld	r24, Z
     a24:	81 11       	cpse	r24, r1
     a26:	11 c0       	rjmp	.+34     	; 0xa4a <KEYPAD_IsPressed+0x62>
     a28:	40 55       	subi	r20, 0x50	; 80
     a2a:	5f 4f       	sbci	r21, 0xFF	; 255
     a2c:	da 01       	movw	r26, r20
     a2e:	a2 0f       	add	r26, r18
     a30:	b3 1f       	adc	r27, r19
     a32:	8c 91       	ld	r24, X
     a34:	80 93 47 01 	sts	0x0147, r24	; 0x800147 <key>
     a38:	81 e0       	ldi	r24, 0x01	; 1
     a3a:	80 83       	st	Z, r24
     a3c:	06 c0       	rjmp	.+12     	; 0xa4a <KEYPAD_IsPressed+0x62>
     a3e:	49 5c       	subi	r20, 0xC9	; 201
     a40:	5e 4f       	sbci	r21, 0xFE	; 254
     a42:	fa 01       	movw	r30, r20
     a44:	e2 0f       	add	r30, r18
     a46:	f3 1f       	adc	r31, r19
     a48:	10 82       	st	Z, r1
     a4a:	61 e0       	ldi	r22, 0x01	; 1
     a4c:	8d 2f       	mov	r24, r29
     a4e:	df 91       	pop	r29
     a50:	cf 91       	pop	r28
     a52:	1f 91       	pop	r17
     a54:	0f 91       	pop	r16
     a56:	0c 94 18 09 	jmp	0x1230	; 0x1230 <DIO_WritePin>

00000a5a <KEYPAD_GetKey>:
     a5a:	61 e0       	ldi	r22, 0x01	; 1
     a5c:	89 e1       	ldi	r24, 0x19	; 25
     a5e:	0e 94 18 09 	call	0x1230	; 0x1230 <DIO_WritePin>
     a62:	61 e0       	ldi	r22, 0x01	; 1
     a64:	8a e1       	ldi	r24, 0x1A	; 26
     a66:	0e 94 18 09 	call	0x1230	; 0x1230 <DIO_WritePin>
     a6a:	61 e0       	ldi	r22, 0x01	; 1
     a6c:	8b e1       	ldi	r24, 0x1B	; 27
     a6e:	0e 94 18 09 	call	0x1230	; 0x1230 <DIO_WritePin>
     a72:	61 e0       	ldi	r22, 0x01	; 1
     a74:	8c e1       	ldi	r24, 0x1C	; 28
     a76:	0e 94 18 09 	call	0x1230	; 0x1230 <DIO_WritePin>
     a7a:	10 92 47 01 	sts	0x0147, r1	; 0x800147 <key>
     a7e:	20 e0       	ldi	r18, 0x00	; 0
     a80:	40 e0       	ldi	r20, 0x00	; 0
     a82:	6c e0       	ldi	r22, 0x0C	; 12
     a84:	89 e1       	ldi	r24, 0x19	; 25
     a86:	0e 94 f4 04 	call	0x9e8	; 0x9e8 <KEYPAD_IsPressed>
     a8a:	21 e0       	ldi	r18, 0x01	; 1
     a8c:	40 e0       	ldi	r20, 0x00	; 0
     a8e:	6c e0       	ldi	r22, 0x0C	; 12
     a90:	8a e1       	ldi	r24, 0x1A	; 26
     a92:	0e 94 f4 04 	call	0x9e8	; 0x9e8 <KEYPAD_IsPressed>
     a96:	22 e0       	ldi	r18, 0x02	; 2
     a98:	40 e0       	ldi	r20, 0x00	; 0
     a9a:	6c e0       	ldi	r22, 0x0C	; 12
     a9c:	8b e1       	ldi	r24, 0x1B	; 27
     a9e:	0e 94 f4 04 	call	0x9e8	; 0x9e8 <KEYPAD_IsPressed>
     aa2:	23 e0       	ldi	r18, 0x03	; 3
     aa4:	40 e0       	ldi	r20, 0x00	; 0
     aa6:	6c e0       	ldi	r22, 0x0C	; 12
     aa8:	8c e1       	ldi	r24, 0x1C	; 28
     aaa:	0e 94 f4 04 	call	0x9e8	; 0x9e8 <KEYPAD_IsPressed>
     aae:	20 e0       	ldi	r18, 0x00	; 0
     ab0:	41 e0       	ldi	r20, 0x01	; 1
     ab2:	6d e0       	ldi	r22, 0x0D	; 13
     ab4:	89 e1       	ldi	r24, 0x19	; 25
     ab6:	0e 94 f4 04 	call	0x9e8	; 0x9e8 <KEYPAD_IsPressed>
     aba:	21 e0       	ldi	r18, 0x01	; 1
     abc:	41 e0       	ldi	r20, 0x01	; 1
     abe:	6d e0       	ldi	r22, 0x0D	; 13
     ac0:	8a e1       	ldi	r24, 0x1A	; 26
     ac2:	0e 94 f4 04 	call	0x9e8	; 0x9e8 <KEYPAD_IsPressed>
     ac6:	22 e0       	ldi	r18, 0x02	; 2
     ac8:	41 e0       	ldi	r20, 0x01	; 1
     aca:	6d e0       	ldi	r22, 0x0D	; 13
     acc:	8b e1       	ldi	r24, 0x1B	; 27
     ace:	0e 94 f4 04 	call	0x9e8	; 0x9e8 <KEYPAD_IsPressed>
     ad2:	23 e0       	ldi	r18, 0x03	; 3
     ad4:	41 e0       	ldi	r20, 0x01	; 1
     ad6:	6d e0       	ldi	r22, 0x0D	; 13
     ad8:	8c e1       	ldi	r24, 0x1C	; 28
     ada:	0e 94 f4 04 	call	0x9e8	; 0x9e8 <KEYPAD_IsPressed>
     ade:	20 e0       	ldi	r18, 0x00	; 0
     ae0:	42 e0       	ldi	r20, 0x02	; 2
     ae2:	6e e0       	ldi	r22, 0x0E	; 14
     ae4:	89 e1       	ldi	r24, 0x19	; 25
     ae6:	0e 94 f4 04 	call	0x9e8	; 0x9e8 <KEYPAD_IsPressed>
     aea:	21 e0       	ldi	r18, 0x01	; 1
     aec:	42 e0       	ldi	r20, 0x02	; 2
     aee:	6e e0       	ldi	r22, 0x0E	; 14
     af0:	8a e1       	ldi	r24, 0x1A	; 26
     af2:	0e 94 f4 04 	call	0x9e8	; 0x9e8 <KEYPAD_IsPressed>
     af6:	22 e0       	ldi	r18, 0x02	; 2
     af8:	42 e0       	ldi	r20, 0x02	; 2
     afa:	6e e0       	ldi	r22, 0x0E	; 14
     afc:	8b e1       	ldi	r24, 0x1B	; 27
     afe:	0e 94 f4 04 	call	0x9e8	; 0x9e8 <KEYPAD_IsPressed>
     b02:	23 e0       	ldi	r18, 0x03	; 3
     b04:	42 e0       	ldi	r20, 0x02	; 2
     b06:	6e e0       	ldi	r22, 0x0E	; 14
     b08:	8c e1       	ldi	r24, 0x1C	; 28
     b0a:	0e 94 f4 04 	call	0x9e8	; 0x9e8 <KEYPAD_IsPressed>
     b0e:	20 e0       	ldi	r18, 0x00	; 0
     b10:	43 e0       	ldi	r20, 0x03	; 3
     b12:	6f e0       	ldi	r22, 0x0F	; 15
     b14:	89 e1       	ldi	r24, 0x19	; 25
     b16:	0e 94 f4 04 	call	0x9e8	; 0x9e8 <KEYPAD_IsPressed>
     b1a:	21 e0       	ldi	r18, 0x01	; 1
     b1c:	43 e0       	ldi	r20, 0x03	; 3
     b1e:	6f e0       	ldi	r22, 0x0F	; 15
     b20:	8a e1       	ldi	r24, 0x1A	; 26
     b22:	0e 94 f4 04 	call	0x9e8	; 0x9e8 <KEYPAD_IsPressed>
     b26:	22 e0       	ldi	r18, 0x02	; 2
     b28:	43 e0       	ldi	r20, 0x03	; 3
     b2a:	6f e0       	ldi	r22, 0x0F	; 15
     b2c:	8b e1       	ldi	r24, 0x1B	; 27
     b2e:	0e 94 f4 04 	call	0x9e8	; 0x9e8 <KEYPAD_IsPressed>
     b32:	23 e0       	ldi	r18, 0x03	; 3
     b34:	43 e0       	ldi	r20, 0x03	; 3
     b36:	6f e0       	ldi	r22, 0x0F	; 15
     b38:	8c e1       	ldi	r24, 0x1C	; 28
     b3a:	0e 94 f4 04 	call	0x9e8	; 0x9e8 <KEYPAD_IsPressed>
     b3e:	80 91 47 01 	lds	r24, 0x0147	; 0x800147 <key>
     b42:	08 95       	ret

00000b44 <LCD_WriteCommand>:
     b44:	cf 93       	push	r28
     b46:	c8 2f       	mov	r28, r24
     b48:	60 e0       	ldi	r22, 0x00	; 0
     b4a:	81 e0       	ldi	r24, 0x01	; 1
     b4c:	0e 94 18 09 	call	0x1230	; 0x1230 <DIO_WritePin>
     b50:	c4 fb       	bst	r28, 4
     b52:	66 27       	eor	r22, r22
     b54:	60 f9       	bld	r22, 0
     b56:	83 e0       	ldi	r24, 0x03	; 3
     b58:	0e 94 18 09 	call	0x1230	; 0x1230 <DIO_WritePin>
     b5c:	c5 fb       	bst	r28, 5
     b5e:	66 27       	eor	r22, r22
     b60:	60 f9       	bld	r22, 0
     b62:	84 e0       	ldi	r24, 0x04	; 4
     b64:	0e 94 18 09 	call	0x1230	; 0x1230 <DIO_WritePin>
     b68:	c6 fb       	bst	r28, 6
     b6a:	66 27       	eor	r22, r22
     b6c:	60 f9       	bld	r22, 0
     b6e:	85 e0       	ldi	r24, 0x05	; 5
     b70:	0e 94 18 09 	call	0x1230	; 0x1230 <DIO_WritePin>
     b74:	6c 2f       	mov	r22, r28
     b76:	66 1f       	adc	r22, r22
     b78:	66 27       	eor	r22, r22
     b7a:	66 1f       	adc	r22, r22
     b7c:	86 e0       	ldi	r24, 0x06	; 6
     b7e:	0e 94 18 09 	call	0x1230	; 0x1230 <DIO_WritePin>
     b82:	61 e0       	ldi	r22, 0x01	; 1
     b84:	82 e0       	ldi	r24, 0x02	; 2
     b86:	0e 94 18 09 	call	0x1230	; 0x1230 <DIO_WritePin>
     b8a:	8f ec       	ldi	r24, 0xCF	; 207
     b8c:	97 e0       	ldi	r25, 0x07	; 7
     b8e:	01 97       	sbiw	r24, 0x01	; 1
     b90:	f1 f7       	brne	.-4      	; 0xb8e <LCD_WriteCommand+0x4a>
     b92:	00 c0       	rjmp	.+0      	; 0xb94 <LCD_WriteCommand+0x50>
     b94:	00 00       	nop
     b96:	60 e0       	ldi	r22, 0x00	; 0
     b98:	82 e0       	ldi	r24, 0x02	; 2
     b9a:	0e 94 18 09 	call	0x1230	; 0x1230 <DIO_WritePin>
     b9e:	6c 2f       	mov	r22, r28
     ba0:	61 70       	andi	r22, 0x01	; 1
     ba2:	83 e0       	ldi	r24, 0x03	; 3
     ba4:	0e 94 18 09 	call	0x1230	; 0x1230 <DIO_WritePin>
     ba8:	c1 fb       	bst	r28, 1
     baa:	66 27       	eor	r22, r22
     bac:	60 f9       	bld	r22, 0
     bae:	84 e0       	ldi	r24, 0x04	; 4
     bb0:	0e 94 18 09 	call	0x1230	; 0x1230 <DIO_WritePin>
     bb4:	c2 fb       	bst	r28, 2
     bb6:	66 27       	eor	r22, r22
     bb8:	60 f9       	bld	r22, 0
     bba:	85 e0       	ldi	r24, 0x05	; 5
     bbc:	0e 94 18 09 	call	0x1230	; 0x1230 <DIO_WritePin>
     bc0:	c3 fb       	bst	r28, 3
     bc2:	66 27       	eor	r22, r22
     bc4:	60 f9       	bld	r22, 0
     bc6:	86 e0       	ldi	r24, 0x06	; 6
     bc8:	0e 94 18 09 	call	0x1230	; 0x1230 <DIO_WritePin>
     bcc:	61 e0       	ldi	r22, 0x01	; 1
     bce:	82 e0       	ldi	r24, 0x02	; 2
     bd0:	0e 94 18 09 	call	0x1230	; 0x1230 <DIO_WritePin>
     bd4:	8f ec       	ldi	r24, 0xCF	; 207
     bd6:	97 e0       	ldi	r25, 0x07	; 7
     bd8:	01 97       	sbiw	r24, 0x01	; 1
     bda:	f1 f7       	brne	.-4      	; 0xbd8 <LCD_WriteCommand+0x94>
     bdc:	00 c0       	rjmp	.+0      	; 0xbde <LCD_WriteCommand+0x9a>
     bde:	00 00       	nop
     be0:	60 e0       	ldi	r22, 0x00	; 0
     be2:	82 e0       	ldi	r24, 0x02	; 2
     be4:	0e 94 18 09 	call	0x1230	; 0x1230 <DIO_WritePin>
     be8:	8f ec       	ldi	r24, 0xCF	; 207
     bea:	97 e0       	ldi	r25, 0x07	; 7
     bec:	01 97       	sbiw	r24, 0x01	; 1
     bee:	f1 f7       	brne	.-4      	; 0xbec <LCD_WriteCommand+0xa8>
     bf0:	00 c0       	rjmp	.+0      	; 0xbf2 <LCD_WriteCommand+0xae>
     bf2:	00 00       	nop
     bf4:	cf 91       	pop	r28
     bf6:	08 95       	ret

00000bf8 <LCD_WriteData>:
     bf8:	cf 93       	push	r28
     bfa:	c8 2f       	mov	r28, r24
     bfc:	61 e0       	ldi	r22, 0x01	; 1
     bfe:	81 e0       	ldi	r24, 0x01	; 1
     c00:	0e 94 18 09 	call	0x1230	; 0x1230 <DIO_WritePin>
     c04:	c4 fb       	bst	r28, 4
     c06:	66 27       	eor	r22, r22
     c08:	60 f9       	bld	r22, 0
     c0a:	83 e0       	ldi	r24, 0x03	; 3
     c0c:	0e 94 18 09 	call	0x1230	; 0x1230 <DIO_WritePin>
     c10:	c5 fb       	bst	r28, 5
     c12:	66 27       	eor	r22, r22
     c14:	60 f9       	bld	r22, 0
     c16:	84 e0       	ldi	r24, 0x04	; 4
     c18:	0e 94 18 09 	call	0x1230	; 0x1230 <DIO_WritePin>
     c1c:	c6 fb       	bst	r28, 6
     c1e:	66 27       	eor	r22, r22
     c20:	60 f9       	bld	r22, 0
     c22:	85 e0       	ldi	r24, 0x05	; 5
     c24:	0e 94 18 09 	call	0x1230	; 0x1230 <DIO_WritePin>
     c28:	6c 2f       	mov	r22, r28
     c2a:	66 1f       	adc	r22, r22
     c2c:	66 27       	eor	r22, r22
     c2e:	66 1f       	adc	r22, r22
     c30:	86 e0       	ldi	r24, 0x06	; 6
     c32:	0e 94 18 09 	call	0x1230	; 0x1230 <DIO_WritePin>
     c36:	61 e0       	ldi	r22, 0x01	; 1
     c38:	82 e0       	ldi	r24, 0x02	; 2
     c3a:	0e 94 18 09 	call	0x1230	; 0x1230 <DIO_WritePin>
     c3e:	8f ec       	ldi	r24, 0xCF	; 207
     c40:	97 e0       	ldi	r25, 0x07	; 7
     c42:	01 97       	sbiw	r24, 0x01	; 1
     c44:	f1 f7       	brne	.-4      	; 0xc42 <LCD_WriteData+0x4a>
     c46:	00 c0       	rjmp	.+0      	; 0xc48 <LCD_WriteData+0x50>
     c48:	00 00       	nop
     c4a:	60 e0       	ldi	r22, 0x00	; 0
     c4c:	82 e0       	ldi	r24, 0x02	; 2
     c4e:	0e 94 18 09 	call	0x1230	; 0x1230 <DIO_WritePin>
     c52:	6c 2f       	mov	r22, r28
     c54:	61 70       	andi	r22, 0x01	; 1
     c56:	83 e0       	ldi	r24, 0x03	; 3
     c58:	0e 94 18 09 	call	0x1230	; 0x1230 <DIO_WritePin>
     c5c:	c1 fb       	bst	r28, 1
     c5e:	66 27       	eor	r22, r22
     c60:	60 f9       	bld	r22, 0
     c62:	84 e0       	ldi	r24, 0x04	; 4
     c64:	0e 94 18 09 	call	0x1230	; 0x1230 <DIO_WritePin>
     c68:	c2 fb       	bst	r28, 2
     c6a:	66 27       	eor	r22, r22
     c6c:	60 f9       	bld	r22, 0
     c6e:	85 e0       	ldi	r24, 0x05	; 5
     c70:	0e 94 18 09 	call	0x1230	; 0x1230 <DIO_WritePin>
     c74:	c3 fb       	bst	r28, 3
     c76:	66 27       	eor	r22, r22
     c78:	60 f9       	bld	r22, 0
     c7a:	86 e0       	ldi	r24, 0x06	; 6
     c7c:	0e 94 18 09 	call	0x1230	; 0x1230 <DIO_WritePin>
     c80:	61 e0       	ldi	r22, 0x01	; 1
     c82:	82 e0       	ldi	r24, 0x02	; 2
     c84:	0e 94 18 09 	call	0x1230	; 0x1230 <DIO_WritePin>
     c88:	8f ec       	ldi	r24, 0xCF	; 207
     c8a:	97 e0       	ldi	r25, 0x07	; 7
     c8c:	01 97       	sbiw	r24, 0x01	; 1
     c8e:	f1 f7       	brne	.-4      	; 0xc8c <LCD_WriteData+0x94>
     c90:	00 c0       	rjmp	.+0      	; 0xc92 <LCD_WriteData+0x9a>
     c92:	00 00       	nop
     c94:	60 e0       	ldi	r22, 0x00	; 0
     c96:	82 e0       	ldi	r24, 0x02	; 2
     c98:	0e 94 18 09 	call	0x1230	; 0x1230 <DIO_WritePin>
     c9c:	8f ec       	ldi	r24, 0xCF	; 207
     c9e:	97 e0       	ldi	r25, 0x07	; 7
     ca0:	01 97       	sbiw	r24, 0x01	; 1
     ca2:	f1 f7       	brne	.-4      	; 0xca0 <LCD_WriteData+0xa8>
     ca4:	00 c0       	rjmp	.+0      	; 0xca6 <LCD_WriteData+0xae>
     ca6:	00 00       	nop
     ca8:	cf 91       	pop	r28
     caa:	08 95       	ret

00000cac <LCD_Init>:
     cac:	2f e7       	ldi	r18, 0x7F	; 127
     cae:	88 e3       	ldi	r24, 0x38	; 56
     cb0:	91 e0       	ldi	r25, 0x01	; 1
     cb2:	21 50       	subi	r18, 0x01	; 1
     cb4:	80 40       	sbci	r24, 0x00	; 0
     cb6:	90 40       	sbci	r25, 0x00	; 0
     cb8:	e1 f7       	brne	.-8      	; 0xcb2 <LCD_Init+0x6>
     cba:	00 c0       	rjmp	.+0      	; 0xcbc <LCD_Init+0x10>
     cbc:	00 00       	nop
     cbe:	82 e2       	ldi	r24, 0x22	; 34
     cc0:	0e 94 a2 05 	call	0xb44	; 0xb44 <LCD_WriteCommand>
     cc4:	60 e0       	ldi	r22, 0x00	; 0
     cc6:	81 e0       	ldi	r24, 0x01	; 1
     cc8:	0e 94 18 09 	call	0x1230	; 0x1230 <DIO_WritePin>
     ccc:	60 e0       	ldi	r22, 0x00	; 0
     cce:	85 e0       	ldi	r24, 0x05	; 5
     cd0:	0e 94 18 09 	call	0x1230	; 0x1230 <DIO_WritePin>
     cd4:	61 e0       	ldi	r22, 0x01	; 1
     cd6:	86 e0       	ldi	r24, 0x06	; 6
     cd8:	0e 94 18 09 	call	0x1230	; 0x1230 <DIO_WritePin>
     cdc:	61 e0       	ldi	r22, 0x01	; 1
     cde:	82 e0       	ldi	r24, 0x02	; 2
     ce0:	0e 94 18 09 	call	0x1230	; 0x1230 <DIO_WritePin>
     ce4:	8f ec       	ldi	r24, 0xCF	; 207
     ce6:	97 e0       	ldi	r25, 0x07	; 7
     ce8:	01 97       	sbiw	r24, 0x01	; 1
     cea:	f1 f7       	brne	.-4      	; 0xce8 <LCD_Init+0x3c>
     cec:	00 c0       	rjmp	.+0      	; 0xcee <LCD_Init+0x42>
     cee:	00 00       	nop
     cf0:	60 e0       	ldi	r22, 0x00	; 0
     cf2:	82 e0       	ldi	r24, 0x02	; 2
     cf4:	0e 94 18 09 	call	0x1230	; 0x1230 <DIO_WritePin>
     cf8:	8f ec       	ldi	r24, 0xCF	; 207
     cfa:	97 e0       	ldi	r25, 0x07	; 7
     cfc:	01 97       	sbiw	r24, 0x01	; 1
     cfe:	f1 f7       	brne	.-4      	; 0xcfc <LCD_Init+0x50>
     d00:	00 c0       	rjmp	.+0      	; 0xd02 <LCD_Init+0x56>
     d02:	00 00       	nop
     d04:	8c e0       	ldi	r24, 0x0C	; 12
     d06:	0e 94 a2 05 	call	0xb44	; 0xb44 <LCD_WriteCommand>
     d0a:	81 e0       	ldi	r24, 0x01	; 1
     d0c:	0e 94 a2 05 	call	0xb44	; 0xb44 <LCD_WriteCommand>
     d10:	8f ec       	ldi	r24, 0xCF	; 207
     d12:	97 e0       	ldi	r25, 0x07	; 7
     d14:	01 97       	sbiw	r24, 0x01	; 1
     d16:	f1 f7       	brne	.-4      	; 0xd14 <LCD_Init+0x68>
     d18:	00 c0       	rjmp	.+0      	; 0xd1a <LCD_Init+0x6e>
     d1a:	00 00       	nop
     d1c:	86 e0       	ldi	r24, 0x06	; 6
     d1e:	0c 94 a2 05 	jmp	0xb44	; 0xb44 <LCD_WriteCommand>

00000d22 <LCD_Clear>:
     d22:	81 e0       	ldi	r24, 0x01	; 1
     d24:	0e 94 a2 05 	call	0xb44	; 0xb44 <LCD_WriteCommand>
     d28:	8f ec       	ldi	r24, 0xCF	; 207
     d2a:	97 e0       	ldi	r25, 0x07	; 7
     d2c:	01 97       	sbiw	r24, 0x01	; 1
     d2e:	f1 f7       	brne	.-4      	; 0xd2c <LCD_Clear+0xa>
     d30:	00 c0       	rjmp	.+0      	; 0xd32 <LCD_Clear+0x10>
     d32:	00 00       	nop
     d34:	08 95       	ret

00000d36 <LCD_GoTo>:
     d36:	81 11       	cpse	r24, r1
     d38:	02 c0       	rjmp	.+4      	; 0xd3e <LCD_GoTo+0x8>
     d3a:	86 2f       	mov	r24, r22
     d3c:	04 c0       	rjmp	.+8      	; 0xd46 <LCD_GoTo+0x10>
     d3e:	81 30       	cpi	r24, 0x01	; 1
     d40:	29 f4       	brne	.+10     	; 0xd4c <LCD_GoTo+0x16>
     d42:	80 e4       	ldi	r24, 0x40	; 64
     d44:	86 0f       	add	r24, r22
     d46:	80 68       	ori	r24, 0x80	; 128
     d48:	0c 94 a2 05 	jmp	0xb44	; 0xb44 <LCD_WriteCommand>
     d4c:	08 95       	ret

00000d4e <LCD_WriteString>:
     d4e:	0f 93       	push	r16
     d50:	1f 93       	push	r17
     d52:	cf 93       	push	r28
     d54:	8c 01       	movw	r16, r24
     d56:	c0 e0       	ldi	r28, 0x00	; 0
     d58:	f8 01       	movw	r30, r16
     d5a:	ec 0f       	add	r30, r28
     d5c:	f1 1d       	adc	r31, r1
     d5e:	80 81       	ld	r24, Z
     d60:	88 23       	and	r24, r24
     d62:	21 f0       	breq	.+8      	; 0xd6c <LCD_WriteString+0x1e>
     d64:	0e 94 fc 05 	call	0xbf8	; 0xbf8 <LCD_WriteData>
     d68:	cf 5f       	subi	r28, 0xFF	; 255
     d6a:	f6 cf       	rjmp	.-20     	; 0xd58 <LCD_WriteString+0xa>
     d6c:	cf 91       	pop	r28
     d6e:	1f 91       	pop	r17
     d70:	0f 91       	pop	r16
     d72:	08 95       	ret

00000d74 <LCD_WriteNumber>:
     d74:	8f 92       	push	r8
     d76:	9f 92       	push	r9
     d78:	af 92       	push	r10
     d7a:	bf 92       	push	r11
     d7c:	cf 92       	push	r12
     d7e:	df 92       	push	r13
     d80:	ef 92       	push	r14
     d82:	ff 92       	push	r15
     d84:	cf 93       	push	r28
     d86:	61 15       	cp	r22, r1
     d88:	71 05       	cpc	r23, r1
     d8a:	81 05       	cpc	r24, r1
     d8c:	91 05       	cpc	r25, r1
     d8e:	61 f4       	brne	.+24     	; 0xda8 <LCD_WriteNumber+0x34>
     d90:	80 e3       	ldi	r24, 0x30	; 48
     d92:	cf 91       	pop	r28
     d94:	ff 90       	pop	r15
     d96:	ef 90       	pop	r14
     d98:	df 90       	pop	r13
     d9a:	cf 90       	pop	r12
     d9c:	bf 90       	pop	r11
     d9e:	af 90       	pop	r10
     da0:	9f 90       	pop	r9
     da2:	8f 90       	pop	r8
     da4:	0c 94 fc 05 	jmp	0xbf8	; 0xbf8 <LCD_WriteData>
     da8:	6b 01       	movw	r12, r22
     daa:	7c 01       	movw	r14, r24
     dac:	97 ff       	sbrs	r25, 7
     dae:	0a c0       	rjmp	.+20     	; 0xdc4 <LCD_WriteNumber+0x50>
     db0:	8d e2       	ldi	r24, 0x2D	; 45
     db2:	0e 94 fc 05 	call	0xbf8	; 0xbf8 <LCD_WriteData>
     db6:	66 27       	eor	r22, r22
     db8:	77 27       	eor	r23, r23
     dba:	cb 01       	movw	r24, r22
     dbc:	6c 19       	sub	r22, r12
     dbe:	7d 09       	sbc	r23, r13
     dc0:	8e 09       	sbc	r24, r14
     dc2:	9f 09       	sbc	r25, r15
     dc4:	0e 94 bc 0d 	call	0x1b78	; 0x1b78 <__floatsisf>
     dc8:	6b 01       	movw	r12, r22
     dca:	7c 01       	movw	r14, r24
     dcc:	c0 e0       	ldi	r28, 0x00	; 0
     dce:	20 e0       	ldi	r18, 0x00	; 0
     dd0:	30 e0       	ldi	r19, 0x00	; 0
     dd2:	40 e8       	ldi	r20, 0x80	; 128
     dd4:	5f e3       	ldi	r21, 0x3F	; 63
     dd6:	c7 01       	movw	r24, r14
     dd8:	b6 01       	movw	r22, r12
     dda:	0e 94 6c 0e 	call	0x1cd8	; 0x1cd8 <__gesf2>
     dde:	87 fd       	sbrc	r24, 7
     de0:	0c c0       	rjmp	.+24     	; 0xdfa <LCD_WriteNumber+0x86>
     de2:	20 e0       	ldi	r18, 0x00	; 0
     de4:	30 e0       	ldi	r19, 0x00	; 0
     de6:	40 e2       	ldi	r20, 0x20	; 32
     de8:	51 e4       	ldi	r21, 0x41	; 65
     dea:	c7 01       	movw	r24, r14
     dec:	b6 01       	movw	r22, r12
     dee:	0e 94 19 0d 	call	0x1a32	; 0x1a32 <__divsf3>
     df2:	6b 01       	movw	r12, r22
     df4:	7c 01       	movw	r14, r24
     df6:	cf 5f       	subi	r28, 0xFF	; 255
     df8:	ea cf       	rjmp	.-44     	; 0xdce <LCD_WriteNumber+0x5a>
     dfa:	8a e0       	ldi	r24, 0x0A	; 10
     dfc:	88 2e       	mov	r8, r24
     dfe:	91 2c       	mov	r9, r1
     e00:	a1 2c       	mov	r10, r1
     e02:	b1 2c       	mov	r11, r1
     e04:	cc 23       	and	r28, r28
     e06:	b1 f0       	breq	.+44     	; 0xe34 <LCD_WriteNumber+0xc0>
     e08:	20 e0       	ldi	r18, 0x00	; 0
     e0a:	30 e0       	ldi	r19, 0x00	; 0
     e0c:	40 e2       	ldi	r20, 0x20	; 32
     e0e:	51 e4       	ldi	r21, 0x41	; 65
     e10:	c7 01       	movw	r24, r14
     e12:	b6 01       	movw	r22, r12
     e14:	0e 94 71 0e 	call	0x1ce2	; 0x1ce2 <__mulsf3>
     e18:	6b 01       	movw	r12, r22
     e1a:	7c 01       	movw	r14, r24
     e1c:	0e 94 8b 0d 	call	0x1b16	; 0x1b16 <__fixunssfsi>
     e20:	a5 01       	movw	r20, r10
     e22:	94 01       	movw	r18, r8
     e24:	0e 94 f2 0e 	call	0x1de4	; 0x1de4 <__udivmodsi4>
     e28:	80 e3       	ldi	r24, 0x30	; 48
     e2a:	86 0f       	add	r24, r22
     e2c:	0e 94 fc 05 	call	0xbf8	; 0xbf8 <LCD_WriteData>
     e30:	c1 50       	subi	r28, 0x01	; 1
     e32:	e8 cf       	rjmp	.-48     	; 0xe04 <LCD_WriteNumber+0x90>
     e34:	cf 91       	pop	r28
     e36:	ff 90       	pop	r15
     e38:	ef 90       	pop	r14
     e3a:	df 90       	pop	r13
     e3c:	cf 90       	pop	r12
     e3e:	bf 90       	pop	r11
     e40:	af 90       	pop	r10
     e42:	9f 90       	pop	r9
     e44:	8f 90       	pop	r8
     e46:	08 95       	ret

00000e48 <LCD_WriteNumber_4Digit>:
     e48:	0f 93       	push	r16
     e4a:	1f 93       	push	r17
     e4c:	cf 93       	push	r28
     e4e:	df 93       	push	r29
     e50:	8c 01       	movw	r16, r24
     e52:	68 ee       	ldi	r22, 0xE8	; 232
     e54:	73 e0       	ldi	r23, 0x03	; 3
     e56:	0e 94 de 0e 	call	0x1dbc	; 0x1dbc <__udivmodhi4>
     e5a:	cb 01       	movw	r24, r22
     e5c:	ca e0       	ldi	r28, 0x0A	; 10
     e5e:	d0 e0       	ldi	r29, 0x00	; 0
     e60:	be 01       	movw	r22, r28
     e62:	0e 94 de 0e 	call	0x1dbc	; 0x1dbc <__udivmodhi4>
     e66:	80 5d       	subi	r24, 0xD0	; 208
     e68:	0e 94 fc 05 	call	0xbf8	; 0xbf8 <LCD_WriteData>
     e6c:	c8 01       	movw	r24, r16
     e6e:	64 e6       	ldi	r22, 0x64	; 100
     e70:	70 e0       	ldi	r23, 0x00	; 0
     e72:	0e 94 de 0e 	call	0x1dbc	; 0x1dbc <__udivmodhi4>
     e76:	cb 01       	movw	r24, r22
     e78:	be 01       	movw	r22, r28
     e7a:	0e 94 de 0e 	call	0x1dbc	; 0x1dbc <__udivmodhi4>
     e7e:	80 5d       	subi	r24, 0xD0	; 208
     e80:	0e 94 fc 05 	call	0xbf8	; 0xbf8 <LCD_WriteData>
     e84:	c8 01       	movw	r24, r16
     e86:	be 01       	movw	r22, r28
     e88:	0e 94 de 0e 	call	0x1dbc	; 0x1dbc <__udivmodhi4>
     e8c:	18 2f       	mov	r17, r24
     e8e:	cb 01       	movw	r24, r22
     e90:	be 01       	movw	r22, r28
     e92:	0e 94 de 0e 	call	0x1dbc	; 0x1dbc <__udivmodhi4>
     e96:	80 5d       	subi	r24, 0xD0	; 208
     e98:	0e 94 fc 05 	call	0xbf8	; 0xbf8 <LCD_WriteData>
     e9c:	80 e3       	ldi	r24, 0x30	; 48
     e9e:	81 0f       	add	r24, r17
     ea0:	df 91       	pop	r29
     ea2:	cf 91       	pop	r28
     ea4:	1f 91       	pop	r17
     ea6:	0f 91       	pop	r16
     ea8:	0c 94 fc 05 	jmp	0xbf8	; 0xbf8 <LCD_WriteData>

00000eac <LED2_On>:
     eac:	61 e0       	ldi	r22, 0x01	; 1
     eae:	82 e1       	ldi	r24, 0x12	; 18
     eb0:	0c 94 18 09 	jmp	0x1230	; 0x1230 <DIO_WritePin>

00000eb4 <LED2_Off>:
     eb4:	60 e0       	ldi	r22, 0x00	; 0
     eb6:	82 e1       	ldi	r24, 0x12	; 18
     eb8:	0c 94 18 09 	jmp	0x1230	; 0x1230 <DIO_WritePin>

00000ebc <LED3_On>:
     ebc:	61 e0       	ldi	r22, 0x01	; 1
     ebe:	80 e1       	ldi	r24, 0x10	; 16
     ec0:	0c 94 18 09 	jmp	0x1230	; 0x1230 <DIO_WritePin>

00000ec4 <LED1_On>:
     ec4:	0c 94 5e 07 	jmp	0xebc	; 0xebc <LED3_On>

00000ec8 <LED3_Off>:
     ec8:	60 e0       	ldi	r22, 0x00	; 0
     eca:	80 e1       	ldi	r24, 0x10	; 16
     ecc:	0c 94 18 09 	jmp	0x1230	; 0x1230 <DIO_WritePin>

00000ed0 <LED1_Off>:
     ed0:	0c 94 64 07 	jmp	0xec8	; 0xec8 <LED3_Off>

00000ed4 <LM35>:
     ed4:	80 e0       	ldi	r24, 0x00	; 0
     ed6:	0e 94 ff 07 	call	0xffe	; 0xffe <ADC_GetVolt>
     eda:	bc 01       	movw	r22, r24
     edc:	80 e0       	ldi	r24, 0x00	; 0
     ede:	90 e0       	ldi	r25, 0x00	; 0
     ee0:	08 95       	ret

00000ee2 <MQ_2>:
     ee2:	87 e0       	ldi	r24, 0x07	; 7
     ee4:	0e 94 d9 07 	call	0xfb2	; 0xfb2 <ADC_Read_Polling>
     ee8:	bc 01       	movw	r22, r24
     eea:	80 e0       	ldi	r24, 0x00	; 0
     eec:	90 e0       	ldi	r25, 0x00	; 0
     eee:	0e 94 ba 0d 	call	0x1b74	; 0x1b74 <__floatunsisf>
     ef2:	20 e0       	ldi	r18, 0x00	; 0
     ef4:	30 e0       	ldi	r19, 0x00	; 0
     ef6:	48 ec       	ldi	r20, 0xC8	; 200
     ef8:	52 e4       	ldi	r21, 0x42	; 66
     efa:	0e 94 71 0e 	call	0x1ce2	; 0x1ce2 <__mulsf3>
     efe:	20 e0       	ldi	r18, 0x00	; 0
     f00:	30 e0       	ldi	r19, 0x00	; 0
     f02:	40 e8       	ldi	r20, 0x80	; 128
     f04:	5a e3       	ldi	r21, 0x3A	; 58
     f06:	0e 94 71 0e 	call	0x1ce2	; 0x1ce2 <__mulsf3>
     f0a:	0e 94 8b 0d 	call	0x1b16	; 0x1b16 <__fixunssfsi>
     f0e:	cb 01       	movw	r24, r22
     f10:	08 95       	ret

00000f12 <SERVO_setAngle>:
     f12:	20 e0       	ldi	r18, 0x00	; 0
     f14:	30 e0       	ldi	r19, 0x00	; 0
     f16:	44 eb       	ldi	r20, 0xB4	; 180
     f18:	52 e4       	ldi	r21, 0x42	; 66
     f1a:	0e 94 a8 0c 	call	0x1950	; 0x1950 <__addsf3>
     f1e:	20 e0       	ldi	r18, 0x00	; 0
     f20:	30 e0       	ldi	r19, 0x00	; 0
     f22:	44 e3       	ldi	r20, 0x34	; 52
     f24:	53 e4       	ldi	r21, 0x43	; 67
     f26:	0e 94 19 0d 	call	0x1a32	; 0x1a32 <__divsf3>
     f2a:	20 e0       	ldi	r18, 0x00	; 0
     f2c:	30 e0       	ldi	r19, 0x00	; 0
     f2e:	4a e7       	ldi	r20, 0x7A	; 122
     f30:	54 e4       	ldi	r21, 0x44	; 68
     f32:	0e 94 71 0e 	call	0x1ce2	; 0x1ce2 <__mulsf3>
     f36:	20 e0       	ldi	r18, 0x00	; 0
     f38:	30 ec       	ldi	r19, 0xC0	; 192
     f3a:	49 e7       	ldi	r20, 0x79	; 121
     f3c:	54 e4       	ldi	r21, 0x44	; 68
     f3e:	0e 94 a8 0c 	call	0x1950	; 0x1950 <__addsf3>
     f42:	0e 94 8b 0d 	call	0x1b16	; 0x1b16 <__fixunssfsi>
     f46:	7b bd       	out	0x2b, r23	; 43
     f48:	6a bd       	out	0x2a, r22	; 42
     f4a:	08 95       	ret

00000f4c <main>:
     f4c:	0e 94 a2 03 	call	0x744	; 0x744 <Fire_System_Init>
     f50:	0e 94 c7 03 	call	0x78e	; 0x78e <Fire_System_Run>
     f54:	fd cf       	rjmp	.-6      	; 0xf50 <main+0x4>

00000f56 <ADC_Init>:
     f56:	81 30       	cpi	r24, 0x01	; 1
     f58:	41 f0       	breq	.+16     	; 0xf6a <ADC_Init+0x14>
     f5a:	20 f0       	brcs	.+8      	; 0xf64 <ADC_Init+0xe>
     f5c:	83 30       	cpi	r24, 0x03	; 3
     f5e:	39 f4       	brne	.+14     	; 0xf6e <ADC_Init+0x18>
     f60:	3f 9a       	sbi	0x07, 7	; 7
     f62:	04 c0       	rjmp	.+8      	; 0xf6c <ADC_Init+0x16>
     f64:	3f 98       	cbi	0x07, 7	; 7
     f66:	3e 98       	cbi	0x07, 6	; 7
     f68:	02 c0       	rjmp	.+4      	; 0xf6e <ADC_Init+0x18>
     f6a:	3f 98       	cbi	0x07, 7	; 7
     f6c:	3e 9a       	sbi	0x07, 6	; 7
     f6e:	86 2f       	mov	r24, r22
     f70:	90 e0       	ldi	r25, 0x00	; 0
     f72:	fc 01       	movw	r30, r24
     f74:	31 97       	sbiw	r30, 0x01	; 1
     f76:	e7 30       	cpi	r30, 0x07	; 7
     f78:	f1 05       	cpc	r31, r1
     f7a:	b8 f4       	brcc	.+46     	; 0xfaa <ADC_Init+0x54>
     f7c:	e6 5d       	subi	r30, 0xD6	; 214
     f7e:	ff 4f       	sbci	r31, 0xFF	; 255
     f80:	0c 94 14 0f 	jmp	0x1e28	; 0x1e28 <__tablejump2__>
     f84:	32 98       	cbi	0x06, 2	; 6
     f86:	08 c0       	rjmp	.+16     	; 0xf98 <ADC_Init+0x42>
     f88:	32 98       	cbi	0x06, 2	; 6
     f8a:	09 c0       	rjmp	.+18     	; 0xf9e <ADC_Init+0x48>
     f8c:	32 98       	cbi	0x06, 2	; 6
     f8e:	0b c0       	rjmp	.+22     	; 0xfa6 <ADC_Init+0x50>
     f90:	32 9a       	sbi	0x06, 2	; 6
     f92:	31 98       	cbi	0x06, 1	; 6
     f94:	05 c0       	rjmp	.+10     	; 0xfa0 <ADC_Init+0x4a>
     f96:	32 9a       	sbi	0x06, 2	; 6
     f98:	31 98       	cbi	0x06, 1	; 6
     f9a:	06 c0       	rjmp	.+12     	; 0xfa8 <ADC_Init+0x52>
     f9c:	32 9a       	sbi	0x06, 2	; 6
     f9e:	31 9a       	sbi	0x06, 1	; 6
     fa0:	30 98       	cbi	0x06, 0	; 6
     fa2:	03 c0       	rjmp	.+6      	; 0xfaa <ADC_Init+0x54>
     fa4:	32 9a       	sbi	0x06, 2	; 6
     fa6:	31 9a       	sbi	0x06, 1	; 6
     fa8:	30 9a       	sbi	0x06, 0	; 6
     faa:	3d 98       	cbi	0x07, 5	; 7
     fac:	08 95       	ret

00000fae <ADC_Enable>:
     fae:	37 9a       	sbi	0x06, 7	; 6
     fb0:	08 95       	ret

00000fb2 <ADC_Read_Polling>:
     fb2:	90 e0       	ldi	r25, 0x00	; 0
     fb4:	88 30       	cpi	r24, 0x08	; 8
     fb6:	91 05       	cpc	r25, r1
     fb8:	e0 f4       	brcc	.+56     	; 0xff2 <ADC_Read_Polling+0x40>
     fba:	fc 01       	movw	r30, r24
     fbc:	ef 5c       	subi	r30, 0xCF	; 207
     fbe:	ff 4f       	sbci	r31, 0xFF	; 255
     fc0:	3c 98       	cbi	0x07, 4	; 7
     fc2:	3b 98       	cbi	0x07, 3	; 7
     fc4:	0c 94 14 0f 	jmp	0x1e28	; 0x1e28 <__tablejump2__>
     fc8:	3a 98       	cbi	0x07, 2	; 7
     fca:	09 c0       	rjmp	.+18     	; 0xfde <ADC_Read_Polling+0x2c>
     fcc:	3a 98       	cbi	0x07, 2	; 7
     fce:	0a c0       	rjmp	.+20     	; 0xfe4 <ADC_Read_Polling+0x32>
     fd0:	3a 98       	cbi	0x07, 2	; 7
     fd2:	39 9a       	sbi	0x07, 1	; 7
     fd4:	38 98       	cbi	0x07, 0	; 7
     fd6:	0d c0       	rjmp	.+26     	; 0xff2 <ADC_Read_Polling+0x40>
     fd8:	3a 98       	cbi	0x07, 2	; 7
     fda:	09 c0       	rjmp	.+18     	; 0xfee <ADC_Read_Polling+0x3c>
     fdc:	3a 9a       	sbi	0x07, 2	; 7
     fde:	39 98       	cbi	0x07, 1	; 7
     fe0:	f9 cf       	rjmp	.-14     	; 0xfd4 <ADC_Read_Polling+0x22>
     fe2:	3a 9a       	sbi	0x07, 2	; 7
     fe4:	39 98       	cbi	0x07, 1	; 7
     fe6:	04 c0       	rjmp	.+8      	; 0xff0 <ADC_Read_Polling+0x3e>
     fe8:	3a 9a       	sbi	0x07, 2	; 7
     fea:	f3 cf       	rjmp	.-26     	; 0xfd2 <ADC_Read_Polling+0x20>
     fec:	3a 9a       	sbi	0x07, 2	; 7
     fee:	39 9a       	sbi	0x07, 1	; 7
     ff0:	38 9a       	sbi	0x07, 0	; 7
     ff2:	36 9a       	sbi	0x06, 6	; 6
     ff4:	36 99       	sbic	0x06, 6	; 6
     ff6:	fe cf       	rjmp	.-4      	; 0xff4 <ADC_Read_Polling+0x42>
     ff8:	84 b1       	in	r24, 0x04	; 4
     ffa:	95 b1       	in	r25, 0x05	; 5
     ffc:	08 95       	ret

00000ffe <ADC_GetVolt>:
     ffe:	0e 94 d9 07 	call	0xfb2	; 0xfb2 <ADC_Read_Polling>
    1002:	9c 01       	movw	r18, r24
    1004:	a8 e8       	ldi	r26, 0x88	; 136
    1006:	b3 e1       	ldi	r27, 0x13	; 19
    1008:	0e 94 1a 0f 	call	0x1e34	; 0x1e34 <__umulhisi3>
    100c:	dc 01       	movw	r26, r24
    100e:	cb 01       	movw	r24, r22
    1010:	2a e0       	ldi	r18, 0x0A	; 10
    1012:	b6 95       	lsr	r27
    1014:	a7 95       	ror	r26
    1016:	97 95       	ror	r25
    1018:	87 95       	ror	r24
    101a:	2a 95       	dec	r18
    101c:	d1 f7       	brne	.-12     	; 0x1012 <ADC_GetVolt+0x14>
    101e:	08 95       	ret

00001020 <__vector_16>:
    1020:	1f 92       	push	r1
    1022:	0f 92       	push	r0
    1024:	0f b6       	in	r0, 0x3f	; 63
    1026:	0f 92       	push	r0
    1028:	11 24       	eor	r1, r1
    102a:	2f 93       	push	r18
    102c:	3f 93       	push	r19
    102e:	4f 93       	push	r20
    1030:	5f 93       	push	r21
    1032:	6f 93       	push	r22
    1034:	7f 93       	push	r23
    1036:	8f 93       	push	r24
    1038:	9f 93       	push	r25
    103a:	af 93       	push	r26
    103c:	bf 93       	push	r27
    103e:	ef 93       	push	r30
    1040:	ff 93       	push	r31
    1042:	e0 91 48 01 	lds	r30, 0x0148	; 0x800148 <funcptr>
    1046:	f0 91 49 01 	lds	r31, 0x0149	; 0x800149 <funcptr+0x1>
    104a:	30 97       	sbiw	r30, 0x00	; 0
    104c:	09 f0       	breq	.+2      	; 0x1050 <__vector_16+0x30>
    104e:	09 95       	icall
    1050:	ff 91       	pop	r31
    1052:	ef 91       	pop	r30
    1054:	bf 91       	pop	r27
    1056:	af 91       	pop	r26
    1058:	9f 91       	pop	r25
    105a:	8f 91       	pop	r24
    105c:	7f 91       	pop	r23
    105e:	6f 91       	pop	r22
    1060:	5f 91       	pop	r21
    1062:	4f 91       	pop	r20
    1064:	3f 91       	pop	r19
    1066:	2f 91       	pop	r18
    1068:	0f 90       	pop	r0
    106a:	0f be       	out	0x3f, r0	; 63
    106c:	0f 90       	pop	r0
    106e:	1f 90       	pop	r1
    1070:	18 95       	reti

00001072 <DIO_Init>:
    1072:	cf 93       	push	r28
    1074:	df 93       	push	r29
    1076:	e0 ec       	ldi	r30, 0xC0	; 192
    1078:	f0 e0       	ldi	r31, 0x00	; 0
    107a:	20 ef       	ldi	r18, 0xF0	; 240
    107c:	a8 ee       	ldi	r26, 0xE8	; 232
    107e:	38 ef       	ldi	r19, 0xF8	; 248
    1080:	40 e0       	ldi	r20, 0x00	; 0
    1082:	50 e0       	ldi	r21, 0x00	; 0
    1084:	81 e0       	ldi	r24, 0x01	; 1
    1086:	90 e0       	ldi	r25, 0x00	; 0
    1088:	71 91       	ld	r23, Z+
    108a:	71 11       	cpse	r23, r1
    108c:	3c c0       	rjmp	.+120    	; 0x1106 <DIO_Init+0x94>
    108e:	48 30       	cpi	r20, 0x08	; 8
    1090:	78 f4       	brcc	.+30     	; 0x10b0 <DIO_Init+0x3e>
    1092:	ba b3       	in	r27, 0x1a	; 26
    1094:	ec 01       	movw	r28, r24
    1096:	04 2e       	mov	r0, r20
    1098:	02 c0       	rjmp	.+4      	; 0x109e <DIO_Init+0x2c>
    109a:	cc 0f       	add	r28, r28
    109c:	dd 1f       	adc	r29, r29
    109e:	0a 94       	dec	r0
    10a0:	e2 f7       	brpl	.-8      	; 0x109a <DIO_Init+0x28>
    10a2:	be 01       	movw	r22, r28
    10a4:	7b 2f       	mov	r23, r27
    10a6:	76 2b       	or	r23, r22
    10a8:	7a bb       	out	0x1a, r23	; 26
    10aa:	7b b3       	in	r23, 0x1b	; 27
    10ac:	60 95       	com	r22
    10ae:	3e c0       	rjmp	.+124    	; 0x112c <DIO_Init+0xba>
    10b0:	38 30       	cpi	r19, 0x08	; 8
    10b2:	68 f4       	brcc	.+26     	; 0x10ce <DIO_Init+0x5c>
    10b4:	b7 b3       	in	r27, 0x17	; 23
    10b6:	bc 01       	movw	r22, r24
    10b8:	03 2e       	mov	r0, r19
    10ba:	01 c0       	rjmp	.+2      	; 0x10be <DIO_Init+0x4c>
    10bc:	66 0f       	add	r22, r22
    10be:	0a 94       	dec	r0
    10c0:	ea f7       	brpl	.-6      	; 0x10bc <DIO_Init+0x4a>
    10c2:	7b 2f       	mov	r23, r27
    10c4:	76 2b       	or	r23, r22
    10c6:	77 bb       	out	0x17, r23	; 23
    10c8:	78 b3       	in	r23, 0x18	; 24
    10ca:	60 95       	com	r22
    10cc:	3f c0       	rjmp	.+126    	; 0x114c <DIO_Init+0xda>
    10ce:	28 30       	cpi	r18, 0x08	; 8
    10d0:	68 f4       	brcc	.+26     	; 0x10ec <DIO_Init+0x7a>
    10d2:	b4 b3       	in	r27, 0x14	; 20
    10d4:	bc 01       	movw	r22, r24
    10d6:	02 2e       	mov	r0, r18
    10d8:	01 c0       	rjmp	.+2      	; 0x10dc <DIO_Init+0x6a>
    10da:	66 0f       	add	r22, r22
    10dc:	0a 94       	dec	r0
    10de:	ea f7       	brpl	.-6      	; 0x10da <DIO_Init+0x68>
    10e0:	7b 2f       	mov	r23, r27
    10e2:	76 2b       	or	r23, r22
    10e4:	74 bb       	out	0x14, r23	; 20
    10e6:	75 b3       	in	r23, 0x15	; 21
    10e8:	60 95       	com	r22
    10ea:	40 c0       	rjmp	.+128    	; 0x116c <DIO_Init+0xfa>
    10ec:	b1 b3       	in	r27, 0x11	; 17
    10ee:	bc 01       	movw	r22, r24
    10f0:	0a 2e       	mov	r0, r26
    10f2:	01 c0       	rjmp	.+2      	; 0x10f6 <DIO_Init+0x84>
    10f4:	66 0f       	add	r22, r22
    10f6:	0a 94       	dec	r0
    10f8:	ea f7       	brpl	.-6      	; 0x10f4 <DIO_Init+0x82>
    10fa:	7b 2f       	mov	r23, r27
    10fc:	76 2b       	or	r23, r22
    10fe:	71 bb       	out	0x11, r23	; 17
    1100:	72 b3       	in	r23, 0x12	; 18
    1102:	60 95       	com	r22
    1104:	41 c0       	rjmp	.+130    	; 0x1188 <DIO_Init+0x116>
    1106:	71 30       	cpi	r23, 0x01	; 1
    1108:	09 f0       	breq	.+2      	; 0x110c <DIO_Init+0x9a>
    110a:	40 c0       	rjmp	.+128    	; 0x118c <DIO_Init+0x11a>
    110c:	48 30       	cpi	r20, 0x08	; 8
    110e:	80 f4       	brcc	.+32     	; 0x1130 <DIO_Init+0xbe>
    1110:	ba b3       	in	r27, 0x1a	; 26
    1112:	ec 01       	movw	r28, r24
    1114:	04 2e       	mov	r0, r20
    1116:	02 c0       	rjmp	.+4      	; 0x111c <DIO_Init+0xaa>
    1118:	cc 0f       	add	r28, r28
    111a:	dd 1f       	adc	r29, r29
    111c:	0a 94       	dec	r0
    111e:	e2 f7       	brpl	.-8      	; 0x1118 <DIO_Init+0xa6>
    1120:	be 01       	movw	r22, r28
    1122:	60 95       	com	r22
    1124:	7b 2f       	mov	r23, r27
    1126:	76 23       	and	r23, r22
    1128:	7a bb       	out	0x1a, r23	; 26
    112a:	7b b3       	in	r23, 0x1b	; 27
    112c:	67 23       	and	r22, r23
    112e:	42 c0       	rjmp	.+132    	; 0x11b4 <DIO_Init+0x142>
    1130:	38 30       	cpi	r19, 0x08	; 8
    1132:	70 f4       	brcc	.+28     	; 0x1150 <DIO_Init+0xde>
    1134:	b7 b3       	in	r27, 0x17	; 23
    1136:	bc 01       	movw	r22, r24
    1138:	03 2e       	mov	r0, r19
    113a:	01 c0       	rjmp	.+2      	; 0x113e <DIO_Init+0xcc>
    113c:	66 0f       	add	r22, r22
    113e:	0a 94       	dec	r0
    1140:	ea f7       	brpl	.-6      	; 0x113c <DIO_Init+0xca>
    1142:	60 95       	com	r22
    1144:	7b 2f       	mov	r23, r27
    1146:	76 23       	and	r23, r22
    1148:	77 bb       	out	0x17, r23	; 23
    114a:	78 b3       	in	r23, 0x18	; 24
    114c:	67 23       	and	r22, r23
    114e:	43 c0       	rjmp	.+134    	; 0x11d6 <DIO_Init+0x164>
    1150:	28 30       	cpi	r18, 0x08	; 8
    1152:	70 f4       	brcc	.+28     	; 0x1170 <DIO_Init+0xfe>
    1154:	b4 b3       	in	r27, 0x14	; 20
    1156:	bc 01       	movw	r22, r24
    1158:	02 2e       	mov	r0, r18
    115a:	01 c0       	rjmp	.+2      	; 0x115e <DIO_Init+0xec>
    115c:	66 0f       	add	r22, r22
    115e:	0a 94       	dec	r0
    1160:	ea f7       	brpl	.-6      	; 0x115c <DIO_Init+0xea>
    1162:	60 95       	com	r22
    1164:	7b 2f       	mov	r23, r27
    1166:	76 23       	and	r23, r22
    1168:	74 bb       	out	0x14, r23	; 20
    116a:	75 b3       	in	r23, 0x15	; 21
    116c:	67 23       	and	r22, r23
    116e:	44 c0       	rjmp	.+136    	; 0x11f8 <DIO_Init+0x186>
    1170:	b1 b3       	in	r27, 0x11	; 17
    1172:	bc 01       	movw	r22, r24
    1174:	0a 2e       	mov	r0, r26
    1176:	01 c0       	rjmp	.+2      	; 0x117a <DIO_Init+0x108>
    1178:	66 0f       	add	r22, r22
    117a:	0a 94       	dec	r0
    117c:	ea f7       	brpl	.-6      	; 0x1178 <DIO_Init+0x106>
    117e:	60 95       	com	r22
    1180:	7b 2f       	mov	r23, r27
    1182:	76 23       	and	r23, r22
    1184:	71 bb       	out	0x11, r23	; 17
    1186:	72 b3       	in	r23, 0x12	; 18
    1188:	67 23       	and	r22, r23
    118a:	45 c0       	rjmp	.+138    	; 0x1216 <DIO_Init+0x1a4>
    118c:	72 30       	cpi	r23, 0x02	; 2
    118e:	09 f0       	breq	.+2      	; 0x1192 <DIO_Init+0x120>
    1190:	43 c0       	rjmp	.+134    	; 0x1218 <DIO_Init+0x1a6>
    1192:	48 30       	cpi	r20, 0x08	; 8
    1194:	88 f4       	brcc	.+34     	; 0x11b8 <DIO_Init+0x146>
    1196:	ba b3       	in	r27, 0x1a	; 26
    1198:	ec 01       	movw	r28, r24
    119a:	04 2e       	mov	r0, r20
    119c:	02 c0       	rjmp	.+4      	; 0x11a2 <DIO_Init+0x130>
    119e:	cc 0f       	add	r28, r28
    11a0:	dd 1f       	adc	r29, r29
    11a2:	0a 94       	dec	r0
    11a4:	e2 f7       	brpl	.-8      	; 0x119e <DIO_Init+0x12c>
    11a6:	be 01       	movw	r22, r28
    11a8:	7c 2f       	mov	r23, r28
    11aa:	70 95       	com	r23
    11ac:	7b 23       	and	r23, r27
    11ae:	7a bb       	out	0x1a, r23	; 26
    11b0:	7b b3       	in	r23, 0x1b	; 27
    11b2:	67 2b       	or	r22, r23
    11b4:	6b bb       	out	0x1b, r22	; 27
    11b6:	30 c0       	rjmp	.+96     	; 0x1218 <DIO_Init+0x1a6>
    11b8:	38 30       	cpi	r19, 0x08	; 8
    11ba:	78 f4       	brcc	.+30     	; 0x11da <DIO_Init+0x168>
    11bc:	b7 b3       	in	r27, 0x17	; 23
    11be:	bc 01       	movw	r22, r24
    11c0:	03 2e       	mov	r0, r19
    11c2:	01 c0       	rjmp	.+2      	; 0x11c6 <DIO_Init+0x154>
    11c4:	66 0f       	add	r22, r22
    11c6:	0a 94       	dec	r0
    11c8:	ea f7       	brpl	.-6      	; 0x11c4 <DIO_Init+0x152>
    11ca:	76 2f       	mov	r23, r22
    11cc:	70 95       	com	r23
    11ce:	7b 23       	and	r23, r27
    11d0:	77 bb       	out	0x17, r23	; 23
    11d2:	78 b3       	in	r23, 0x18	; 24
    11d4:	67 2b       	or	r22, r23
    11d6:	68 bb       	out	0x18, r22	; 24
    11d8:	1f c0       	rjmp	.+62     	; 0x1218 <DIO_Init+0x1a6>
    11da:	28 30       	cpi	r18, 0x08	; 8
    11dc:	78 f4       	brcc	.+30     	; 0x11fc <DIO_Init+0x18a>
    11de:	b4 b3       	in	r27, 0x14	; 20
    11e0:	bc 01       	movw	r22, r24
    11e2:	02 2e       	mov	r0, r18
    11e4:	01 c0       	rjmp	.+2      	; 0x11e8 <DIO_Init+0x176>
    11e6:	66 0f       	add	r22, r22
    11e8:	0a 94       	dec	r0
    11ea:	ea f7       	brpl	.-6      	; 0x11e6 <DIO_Init+0x174>
    11ec:	76 2f       	mov	r23, r22
    11ee:	70 95       	com	r23
    11f0:	7b 23       	and	r23, r27
    11f2:	74 bb       	out	0x14, r23	; 20
    11f4:	75 b3       	in	r23, 0x15	; 21
    11f6:	67 2b       	or	r22, r23
    11f8:	65 bb       	out	0x15, r22	; 21
    11fa:	0e c0       	rjmp	.+28     	; 0x1218 <DIO_Init+0x1a6>
    11fc:	b1 b3       	in	r27, 0x11	; 17
    11fe:	bc 01       	movw	r22, r24
    1200:	0a 2e       	mov	r0, r26
    1202:	01 c0       	rjmp	.+2      	; 0x1206 <DIO_Init+0x194>
    1204:	66 0f       	add	r22, r22
    1206:	0a 94       	dec	r0
    1208:	ea f7       	brpl	.-6      	; 0x1204 <DIO_Init+0x192>
    120a:	76 2f       	mov	r23, r22
    120c:	70 95       	com	r23
    120e:	7b 23       	and	r23, r27
    1210:	71 bb       	out	0x11, r23	; 17
    1212:	72 b3       	in	r23, 0x12	; 18
    1214:	67 2b       	or	r22, r23
    1216:	62 bb       	out	0x12, r22	; 18
    1218:	4f 5f       	subi	r20, 0xFF	; 255
    121a:	5f 4f       	sbci	r21, 0xFF	; 255
    121c:	3f 5f       	subi	r19, 0xFF	; 255
    121e:	af 5f       	subi	r26, 0xFF	; 255
    1220:	2f 5f       	subi	r18, 0xFF	; 255
    1222:	40 32       	cpi	r20, 0x20	; 32
    1224:	51 05       	cpc	r21, r1
    1226:	09 f0       	breq	.+2      	; 0x122a <DIO_Init+0x1b8>
    1228:	2f cf       	rjmp	.-418    	; 0x1088 <DIO_Init+0x16>
    122a:	df 91       	pop	r29
    122c:	cf 91       	pop	r28
    122e:	08 95       	ret

00001230 <DIO_WritePin>:
    1230:	61 11       	cpse	r22, r1
    1232:	3c c0       	rjmp	.+120    	; 0x12ac <DIO_WritePin+0x7c>
    1234:	88 30       	cpi	r24, 0x08	; 8
    1236:	68 f4       	brcc	.+26     	; 0x1252 <DIO_WritePin+0x22>
    1238:	4b b3       	in	r20, 0x1b	; 27
    123a:	21 e0       	ldi	r18, 0x01	; 1
    123c:	30 e0       	ldi	r19, 0x00	; 0
    123e:	b9 01       	movw	r22, r18
    1240:	02 c0       	rjmp	.+4      	; 0x1246 <DIO_WritePin+0x16>
    1242:	66 0f       	add	r22, r22
    1244:	77 1f       	adc	r23, r23
    1246:	8a 95       	dec	r24
    1248:	e2 f7       	brpl	.-8      	; 0x1242 <DIO_WritePin+0x12>
    124a:	cb 01       	movw	r24, r22
    124c:	80 95       	com	r24
    124e:	84 23       	and	r24, r20
    1250:	3c c0       	rjmp	.+120    	; 0x12ca <DIO_WritePin+0x9a>
    1252:	38 ef       	ldi	r19, 0xF8	; 248
    1254:	38 0f       	add	r19, r24
    1256:	38 30       	cpi	r19, 0x08	; 8
    1258:	50 f4       	brcc	.+20     	; 0x126e <DIO_WritePin+0x3e>
    125a:	28 b3       	in	r18, 0x18	; 24
    125c:	81 e0       	ldi	r24, 0x01	; 1
    125e:	90 e0       	ldi	r25, 0x00	; 0
    1260:	01 c0       	rjmp	.+2      	; 0x1264 <DIO_WritePin+0x34>
    1262:	88 0f       	add	r24, r24
    1264:	3a 95       	dec	r19
    1266:	ea f7       	brpl	.-6      	; 0x1262 <DIO_WritePin+0x32>
    1268:	80 95       	com	r24
    126a:	82 23       	and	r24, r18
    126c:	3c c0       	rjmp	.+120    	; 0x12e6 <DIO_WritePin+0xb6>
    126e:	30 ef       	ldi	r19, 0xF0	; 240
    1270:	38 0f       	add	r19, r24
    1272:	38 30       	cpi	r19, 0x08	; 8
    1274:	50 f4       	brcc	.+20     	; 0x128a <DIO_WritePin+0x5a>
    1276:	25 b3       	in	r18, 0x15	; 21
    1278:	81 e0       	ldi	r24, 0x01	; 1
    127a:	90 e0       	ldi	r25, 0x00	; 0
    127c:	01 c0       	rjmp	.+2      	; 0x1280 <DIO_WritePin+0x50>
    127e:	88 0f       	add	r24, r24
    1280:	3a 95       	dec	r19
    1282:	ea f7       	brpl	.-6      	; 0x127e <DIO_WritePin+0x4e>
    1284:	80 95       	com	r24
    1286:	82 23       	and	r24, r18
    1288:	3c c0       	rjmp	.+120    	; 0x1302 <DIO_WritePin+0xd2>
    128a:	88 51       	subi	r24, 0x18	; 24
    128c:	88 30       	cpi	r24, 0x08	; 8
    128e:	08 f0       	brcs	.+2      	; 0x1292 <DIO_WritePin+0x62>
    1290:	49 c0       	rjmp	.+146    	; 0x1324 <DIO_WritePin+0xf4>
    1292:	42 b3       	in	r20, 0x12	; 18
    1294:	21 e0       	ldi	r18, 0x01	; 1
    1296:	30 e0       	ldi	r19, 0x00	; 0
    1298:	b9 01       	movw	r22, r18
    129a:	02 c0       	rjmp	.+4      	; 0x12a0 <DIO_WritePin+0x70>
    129c:	66 0f       	add	r22, r22
    129e:	77 1f       	adc	r23, r23
    12a0:	8a 95       	dec	r24
    12a2:	e2 f7       	brpl	.-8      	; 0x129c <DIO_WritePin+0x6c>
    12a4:	cb 01       	movw	r24, r22
    12a6:	80 95       	com	r24
    12a8:	84 23       	and	r24, r20
    12aa:	3b c0       	rjmp	.+118    	; 0x1322 <DIO_WritePin+0xf2>
    12ac:	61 30       	cpi	r22, 0x01	; 1
    12ae:	d1 f5       	brne	.+116    	; 0x1324 <DIO_WritePin+0xf4>
    12b0:	88 30       	cpi	r24, 0x08	; 8
    12b2:	68 f4       	brcc	.+26     	; 0x12ce <DIO_WritePin+0x9e>
    12b4:	4b b3       	in	r20, 0x1b	; 27
    12b6:	21 e0       	ldi	r18, 0x01	; 1
    12b8:	30 e0       	ldi	r19, 0x00	; 0
    12ba:	b9 01       	movw	r22, r18
    12bc:	02 c0       	rjmp	.+4      	; 0x12c2 <DIO_WritePin+0x92>
    12be:	66 0f       	add	r22, r22
    12c0:	77 1f       	adc	r23, r23
    12c2:	8a 95       	dec	r24
    12c4:	e2 f7       	brpl	.-8      	; 0x12be <DIO_WritePin+0x8e>
    12c6:	cb 01       	movw	r24, r22
    12c8:	84 2b       	or	r24, r20
    12ca:	8b bb       	out	0x1b, r24	; 27
    12cc:	08 95       	ret
    12ce:	28 ef       	ldi	r18, 0xF8	; 248
    12d0:	28 0f       	add	r18, r24
    12d2:	28 30       	cpi	r18, 0x08	; 8
    12d4:	50 f4       	brcc	.+20     	; 0x12ea <DIO_WritePin+0xba>
    12d6:	38 b3       	in	r19, 0x18	; 24
    12d8:	81 e0       	ldi	r24, 0x01	; 1
    12da:	90 e0       	ldi	r25, 0x00	; 0
    12dc:	01 c0       	rjmp	.+2      	; 0x12e0 <DIO_WritePin+0xb0>
    12de:	88 0f       	add	r24, r24
    12e0:	2a 95       	dec	r18
    12e2:	ea f7       	brpl	.-6      	; 0x12de <DIO_WritePin+0xae>
    12e4:	83 2b       	or	r24, r19
    12e6:	88 bb       	out	0x18, r24	; 24
    12e8:	08 95       	ret
    12ea:	20 ef       	ldi	r18, 0xF0	; 240
    12ec:	28 0f       	add	r18, r24
    12ee:	28 30       	cpi	r18, 0x08	; 8
    12f0:	50 f4       	brcc	.+20     	; 0x1306 <DIO_WritePin+0xd6>
    12f2:	35 b3       	in	r19, 0x15	; 21
    12f4:	81 e0       	ldi	r24, 0x01	; 1
    12f6:	90 e0       	ldi	r25, 0x00	; 0
    12f8:	01 c0       	rjmp	.+2      	; 0x12fc <DIO_WritePin+0xcc>
    12fa:	88 0f       	add	r24, r24
    12fc:	2a 95       	dec	r18
    12fe:	ea f7       	brpl	.-6      	; 0x12fa <DIO_WritePin+0xca>
    1300:	83 2b       	or	r24, r19
    1302:	85 bb       	out	0x15, r24	; 21
    1304:	08 95       	ret
    1306:	88 51       	subi	r24, 0x18	; 24
    1308:	88 30       	cpi	r24, 0x08	; 8
    130a:	60 f4       	brcc	.+24     	; 0x1324 <DIO_WritePin+0xf4>
    130c:	42 b3       	in	r20, 0x12	; 18
    130e:	21 e0       	ldi	r18, 0x01	; 1
    1310:	30 e0       	ldi	r19, 0x00	; 0
    1312:	b9 01       	movw	r22, r18
    1314:	02 c0       	rjmp	.+4      	; 0x131a <DIO_WritePin+0xea>
    1316:	66 0f       	add	r22, r22
    1318:	77 1f       	adc	r23, r23
    131a:	8a 95       	dec	r24
    131c:	e2 f7       	brpl	.-8      	; 0x1316 <DIO_WritePin+0xe6>
    131e:	cb 01       	movw	r24, r22
    1320:	84 2b       	or	r24, r20
    1322:	82 bb       	out	0x12, r24	; 18
    1324:	08 95       	ret

00001326 <DIO_ReadPin>:
    1326:	28 2f       	mov	r18, r24
    1328:	88 30       	cpi	r24, 0x08	; 8
    132a:	10 f4       	brcc	.+4      	; 0x1330 <DIO_ReadPin+0xa>
    132c:	99 b3       	in	r25, 0x19	; 25
    132e:	16 c0       	rjmp	.+44     	; 0x135c <DIO_ReadPin+0x36>
    1330:	38 ef       	ldi	r19, 0xF8	; 248
    1332:	38 0f       	add	r19, r24
    1334:	38 30       	cpi	r19, 0x08	; 8
    1336:	10 f4       	brcc	.+4      	; 0x133c <DIO_ReadPin+0x16>
    1338:	86 b3       	in	r24, 0x16	; 22
    133a:	05 c0       	rjmp	.+10     	; 0x1346 <DIO_ReadPin+0x20>
    133c:	30 ef       	ldi	r19, 0xF0	; 240
    133e:	38 0f       	add	r19, r24
    1340:	38 30       	cpi	r19, 0x08	; 8
    1342:	40 f4       	brcc	.+16     	; 0x1354 <DIO_ReadPin+0x2e>
    1344:	83 b3       	in	r24, 0x13	; 19
    1346:	90 e0       	ldi	r25, 0x00	; 0
    1348:	02 c0       	rjmp	.+4      	; 0x134e <DIO_ReadPin+0x28>
    134a:	95 95       	asr	r25
    134c:	87 95       	ror	r24
    134e:	3a 95       	dec	r19
    1350:	e2 f7       	brpl	.-8      	; 0x134a <DIO_ReadPin+0x24>
    1352:	0b c0       	rjmp	.+22     	; 0x136a <DIO_ReadPin+0x44>
    1354:	28 51       	subi	r18, 0x18	; 24
    1356:	28 30       	cpi	r18, 0x08	; 8
    1358:	50 f4       	brcc	.+20     	; 0x136e <DIO_ReadPin+0x48>
    135a:	90 b3       	in	r25, 0x10	; 16
    135c:	89 2f       	mov	r24, r25
    135e:	90 e0       	ldi	r25, 0x00	; 0
    1360:	02 c0       	rjmp	.+4      	; 0x1366 <DIO_ReadPin+0x40>
    1362:	95 95       	asr	r25
    1364:	87 95       	ror	r24
    1366:	2a 95       	dec	r18
    1368:	e2 f7       	brpl	.-8      	; 0x1362 <DIO_ReadPin+0x3c>
    136a:	81 70       	andi	r24, 0x01	; 1
    136c:	08 95       	ret
    136e:	08 95       	ret

00001370 <EEPROM_write>:
    1370:	e1 99       	sbic	0x1c, 1	; 28
    1372:	fe cf       	rjmp	.-4      	; 0x1370 <EEPROM_write>
    1374:	70 e0       	ldi	r23, 0x00	; 0
    1376:	7e bb       	out	0x1e, r23	; 30
    1378:	6d bb       	out	0x1d, r22	; 29
    137a:	9f bb       	out	0x1f, r25	; 31
    137c:	8e bb       	out	0x1e, r24	; 30
    137e:	e2 9a       	sbi	0x1c, 2	; 28
    1380:	e1 9a       	sbi	0x1c, 1	; 28
    1382:	08 95       	ret

00001384 <EEPROM_read>:
    1384:	e1 99       	sbic	0x1c, 1	; 28
    1386:	fe cf       	rjmp	.-4      	; 0x1384 <EEPROM_read>
    1388:	9f bb       	out	0x1f, r25	; 31
    138a:	8e bb       	out	0x1e, r24	; 30
    138c:	e0 9a       	sbi	0x1c, 0	; 28
    138e:	8d b3       	in	r24, 0x1d	; 29
    1390:	9e b3       	in	r25, 0x1e	; 30
    1392:	08 95       	ret

00001394 <__vector_1>:
    1394:	1f 92       	push	r1
    1396:	0f 92       	push	r0
    1398:	0f b6       	in	r0, 0x3f	; 63
    139a:	0f 92       	push	r0
    139c:	11 24       	eor	r1, r1
    139e:	2f 93       	push	r18
    13a0:	3f 93       	push	r19
    13a2:	4f 93       	push	r20
    13a4:	5f 93       	push	r21
    13a6:	6f 93       	push	r22
    13a8:	7f 93       	push	r23
    13aa:	8f 93       	push	r24
    13ac:	9f 93       	push	r25
    13ae:	af 93       	push	r26
    13b0:	bf 93       	push	r27
    13b2:	ef 93       	push	r30
    13b4:	ff 93       	push	r31
    13b6:	e0 91 4e 01 	lds	r30, 0x014E	; 0x80014e <FUNC_PTR0>
    13ba:	f0 91 4f 01 	lds	r31, 0x014F	; 0x80014f <FUNC_PTR0+0x1>
    13be:	30 97       	sbiw	r30, 0x00	; 0
    13c0:	09 f0       	breq	.+2      	; 0x13c4 <__vector_1+0x30>
    13c2:	09 95       	icall
    13c4:	ff 91       	pop	r31
    13c6:	ef 91       	pop	r30
    13c8:	bf 91       	pop	r27
    13ca:	af 91       	pop	r26
    13cc:	9f 91       	pop	r25
    13ce:	8f 91       	pop	r24
    13d0:	7f 91       	pop	r23
    13d2:	6f 91       	pop	r22
    13d4:	5f 91       	pop	r21
    13d6:	4f 91       	pop	r20
    13d8:	3f 91       	pop	r19
    13da:	2f 91       	pop	r18
    13dc:	0f 90       	pop	r0
    13de:	0f be       	out	0x3f, r0	; 63
    13e0:	0f 90       	pop	r0
    13e2:	1f 90       	pop	r1
    13e4:	18 95       	reti

000013e6 <__vector_2>:
    13e6:	1f 92       	push	r1
    13e8:	0f 92       	push	r0
    13ea:	0f b6       	in	r0, 0x3f	; 63
    13ec:	0f 92       	push	r0
    13ee:	11 24       	eor	r1, r1
    13f0:	2f 93       	push	r18
    13f2:	3f 93       	push	r19
    13f4:	4f 93       	push	r20
    13f6:	5f 93       	push	r21
    13f8:	6f 93       	push	r22
    13fa:	7f 93       	push	r23
    13fc:	8f 93       	push	r24
    13fe:	9f 93       	push	r25
    1400:	af 93       	push	r26
    1402:	bf 93       	push	r27
    1404:	ef 93       	push	r30
    1406:	ff 93       	push	r31
    1408:	e0 91 4c 01 	lds	r30, 0x014C	; 0x80014c <FUNC_PTR1>
    140c:	f0 91 4d 01 	lds	r31, 0x014D	; 0x80014d <FUNC_PTR1+0x1>
    1410:	30 97       	sbiw	r30, 0x00	; 0
    1412:	09 f0       	breq	.+2      	; 0x1416 <__vector_2+0x30>
    1414:	09 95       	icall
    1416:	ff 91       	pop	r31
    1418:	ef 91       	pop	r30
    141a:	bf 91       	pop	r27
    141c:	af 91       	pop	r26
    141e:	9f 91       	pop	r25
    1420:	8f 91       	pop	r24
    1422:	7f 91       	pop	r23
    1424:	6f 91       	pop	r22
    1426:	5f 91       	pop	r21
    1428:	4f 91       	pop	r20
    142a:	3f 91       	pop	r19
    142c:	2f 91       	pop	r18
    142e:	0f 90       	pop	r0
    1430:	0f be       	out	0x3f, r0	; 63
    1432:	0f 90       	pop	r0
    1434:	1f 90       	pop	r1
    1436:	18 95       	reti

00001438 <__vector_3>:
    1438:	1f 92       	push	r1
    143a:	0f 92       	push	r0
    143c:	0f b6       	in	r0, 0x3f	; 63
    143e:	0f 92       	push	r0
    1440:	11 24       	eor	r1, r1
    1442:	2f 93       	push	r18
    1444:	3f 93       	push	r19
    1446:	4f 93       	push	r20
    1448:	5f 93       	push	r21
    144a:	6f 93       	push	r22
    144c:	7f 93       	push	r23
    144e:	8f 93       	push	r24
    1450:	9f 93       	push	r25
    1452:	af 93       	push	r26
    1454:	bf 93       	push	r27
    1456:	ef 93       	push	r30
    1458:	ff 93       	push	r31
    145a:	e0 91 4a 01 	lds	r30, 0x014A	; 0x80014a <FUNC_PTR2>
    145e:	f0 91 4b 01 	lds	r31, 0x014B	; 0x80014b <FUNC_PTR2+0x1>
    1462:	30 97       	sbiw	r30, 0x00	; 0
    1464:	09 f0       	breq	.+2      	; 0x1468 <__vector_3+0x30>
    1466:	09 95       	icall
    1468:	ff 91       	pop	r31
    146a:	ef 91       	pop	r30
    146c:	bf 91       	pop	r27
    146e:	af 91       	pop	r26
    1470:	9f 91       	pop	r25
    1472:	8f 91       	pop	r24
    1474:	7f 91       	pop	r23
    1476:	6f 91       	pop	r22
    1478:	5f 91       	pop	r21
    147a:	4f 91       	pop	r20
    147c:	3f 91       	pop	r19
    147e:	2f 91       	pop	r18
    1480:	0f 90       	pop	r0
    1482:	0f be       	out	0x3f, r0	; 63
    1484:	0f 90       	pop	r0
    1486:	1f 90       	pop	r1
    1488:	18 95       	reti

0000148a <__vector_12>:
    148a:	1f 92       	push	r1
    148c:	0f 92       	push	r0
    148e:	0f b6       	in	r0, 0x3f	; 63
    1490:	0f 92       	push	r0
    1492:	11 24       	eor	r1, r1
    1494:	2f 93       	push	r18
    1496:	3f 93       	push	r19
    1498:	4f 93       	push	r20
    149a:	5f 93       	push	r21
    149c:	6f 93       	push	r22
    149e:	7f 93       	push	r23
    14a0:	8f 93       	push	r24
    14a2:	9f 93       	push	r25
    14a4:	af 93       	push	r26
    14a6:	bf 93       	push	r27
    14a8:	ef 93       	push	r30
    14aa:	ff 93       	push	r31
    14ac:	e0 91 50 01 	lds	r30, 0x0150	; 0x800150 <SPI_INTERRUP_PTR>
    14b0:	f0 91 51 01 	lds	r31, 0x0151	; 0x800151 <SPI_INTERRUP_PTR+0x1>
    14b4:	30 97       	sbiw	r30, 0x00	; 0
    14b6:	09 f0       	breq	.+2      	; 0x14ba <__vector_12+0x30>
    14b8:	09 95       	icall
    14ba:	ff 91       	pop	r31
    14bc:	ef 91       	pop	r30
    14be:	bf 91       	pop	r27
    14c0:	af 91       	pop	r26
    14c2:	9f 91       	pop	r25
    14c4:	8f 91       	pop	r24
    14c6:	7f 91       	pop	r23
    14c8:	6f 91       	pop	r22
    14ca:	5f 91       	pop	r21
    14cc:	4f 91       	pop	r20
    14ce:	3f 91       	pop	r19
    14d0:	2f 91       	pop	r18
    14d2:	0f 90       	pop	r0
    14d4:	0f be       	out	0x3f, r0	; 63
    14d6:	0f 90       	pop	r0
    14d8:	1f 90       	pop	r1
    14da:	18 95       	reti

000014dc <__vector_10>:
    14dc:	1f 92       	push	r1
    14de:	0f 92       	push	r0
    14e0:	0f b6       	in	r0, 0x3f	; 63
    14e2:	0f 92       	push	r0
    14e4:	11 24       	eor	r1, r1
    14e6:	2f 93       	push	r18
    14e8:	3f 93       	push	r19
    14ea:	4f 93       	push	r20
    14ec:	5f 93       	push	r21
    14ee:	6f 93       	push	r22
    14f0:	7f 93       	push	r23
    14f2:	8f 93       	push	r24
    14f4:	9f 93       	push	r25
    14f6:	af 93       	push	r26
    14f8:	bf 93       	push	r27
    14fa:	ef 93       	push	r30
    14fc:	ff 93       	push	r31
    14fe:	e0 91 54 01 	lds	r30, 0x0154	; 0x800154 <funcPtrCompareMatch>
    1502:	f0 91 55 01 	lds	r31, 0x0155	; 0x800155 <funcPtrCompareMatch+0x1>
    1506:	30 97       	sbiw	r30, 0x00	; 0
    1508:	09 f0       	breq	.+2      	; 0x150c <__vector_10+0x30>
    150a:	09 95       	icall
    150c:	ff 91       	pop	r31
    150e:	ef 91       	pop	r30
    1510:	bf 91       	pop	r27
    1512:	af 91       	pop	r26
    1514:	9f 91       	pop	r25
    1516:	8f 91       	pop	r24
    1518:	7f 91       	pop	r23
    151a:	6f 91       	pop	r22
    151c:	5f 91       	pop	r21
    151e:	4f 91       	pop	r20
    1520:	3f 91       	pop	r19
    1522:	2f 91       	pop	r18
    1524:	0f 90       	pop	r0
    1526:	0f be       	out	0x3f, r0	; 63
    1528:	0f 90       	pop	r0
    152a:	1f 90       	pop	r1
    152c:	18 95       	reti

0000152e <__vector_11>:
    152e:	1f 92       	push	r1
    1530:	0f 92       	push	r0
    1532:	0f b6       	in	r0, 0x3f	; 63
    1534:	0f 92       	push	r0
    1536:	11 24       	eor	r1, r1
    1538:	2f 93       	push	r18
    153a:	3f 93       	push	r19
    153c:	4f 93       	push	r20
    153e:	5f 93       	push	r21
    1540:	6f 93       	push	r22
    1542:	7f 93       	push	r23
    1544:	8f 93       	push	r24
    1546:	9f 93       	push	r25
    1548:	af 93       	push	r26
    154a:	bf 93       	push	r27
    154c:	ef 93       	push	r30
    154e:	ff 93       	push	r31
    1550:	e0 91 52 01 	lds	r30, 0x0152	; 0x800152 <funcPtrOverflow>
    1554:	f0 91 53 01 	lds	r31, 0x0153	; 0x800153 <funcPtrOverflow+0x1>
    1558:	30 97       	sbiw	r30, 0x00	; 0
    155a:	09 f0       	breq	.+2      	; 0x155e <__vector_11+0x30>
    155c:	09 95       	icall
    155e:	ff 91       	pop	r31
    1560:	ef 91       	pop	r30
    1562:	bf 91       	pop	r27
    1564:	af 91       	pop	r26
    1566:	9f 91       	pop	r25
    1568:	8f 91       	pop	r24
    156a:	7f 91       	pop	r23
    156c:	6f 91       	pop	r22
    156e:	5f 91       	pop	r21
    1570:	4f 91       	pop	r20
    1572:	3f 91       	pop	r19
    1574:	2f 91       	pop	r18
    1576:	0f 90       	pop	r0
    1578:	0f be       	out	0x3f, r0	; 63
    157a:	0f 90       	pop	r0
    157c:	1f 90       	pop	r1
    157e:	18 95       	reti

00001580 <TIMER1_Init>:
    1580:	82 30       	cpi	r24, 0x02	; 2
    1582:	99 f0       	breq	.+38     	; 0x15aa <TIMER1_Init+0x2a>
    1584:	38 f4       	brcc	.+14     	; 0x1594 <TIMER1_Init+0x14>
    1586:	88 23       	and	r24, r24
    1588:	69 f0       	breq	.+26     	; 0x15a4 <TIMER1_Init+0x24>
    158a:	81 30       	cpi	r24, 0x01	; 1
    158c:	51 f5       	brne	.+84     	; 0x15e2 <TIMER1_Init+0x62>
    158e:	8e b5       	in	r24, 0x2e	; 46
    1590:	8b 7f       	andi	r24, 0xFB	; 251
    1592:	20 c0       	rjmp	.+64     	; 0x15d4 <TIMER1_Init+0x54>
    1594:	84 30       	cpi	r24, 0x04	; 4
    1596:	a9 f0       	breq	.+42     	; 0x15c2 <TIMER1_Init+0x42>
    1598:	70 f0       	brcs	.+28     	; 0x15b6 <TIMER1_Init+0x36>
    159a:	85 30       	cpi	r24, 0x05	; 5
    159c:	11 f5       	brne	.+68     	; 0x15e2 <TIMER1_Init+0x62>
    159e:	8e b5       	in	r24, 0x2e	; 46
    15a0:	84 60       	ori	r24, 0x04	; 4
    15a2:	18 c0       	rjmp	.+48     	; 0x15d4 <TIMER1_Init+0x54>
    15a4:	8e b5       	in	r24, 0x2e	; 46
    15a6:	8b 7f       	andi	r24, 0xFB	; 251
    15a8:	0e c0       	rjmp	.+28     	; 0x15c6 <TIMER1_Init+0x46>
    15aa:	8e b5       	in	r24, 0x2e	; 46
    15ac:	8b 7f       	andi	r24, 0xFB	; 251
    15ae:	8e bd       	out	0x2e, r24	; 46
    15b0:	8e b5       	in	r24, 0x2e	; 46
    15b2:	82 60       	ori	r24, 0x02	; 2
    15b4:	0b c0       	rjmp	.+22     	; 0x15cc <TIMER1_Init+0x4c>
    15b6:	8e b5       	in	r24, 0x2e	; 46
    15b8:	8b 7f       	andi	r24, 0xFB	; 251
    15ba:	8e bd       	out	0x2e, r24	; 46
    15bc:	8e b5       	in	r24, 0x2e	; 46
    15be:	82 60       	ori	r24, 0x02	; 2
    15c0:	0c c0       	rjmp	.+24     	; 0x15da <TIMER1_Init+0x5a>
    15c2:	8e b5       	in	r24, 0x2e	; 46
    15c4:	84 60       	ori	r24, 0x04	; 4
    15c6:	8e bd       	out	0x2e, r24	; 46
    15c8:	8e b5       	in	r24, 0x2e	; 46
    15ca:	8d 7f       	andi	r24, 0xFD	; 253
    15cc:	8e bd       	out	0x2e, r24	; 46
    15ce:	8e b5       	in	r24, 0x2e	; 46
    15d0:	8e 7f       	andi	r24, 0xFE	; 254
    15d2:	06 c0       	rjmp	.+12     	; 0x15e0 <TIMER1_Init+0x60>
    15d4:	8e bd       	out	0x2e, r24	; 46
    15d6:	8e b5       	in	r24, 0x2e	; 46
    15d8:	8d 7f       	andi	r24, 0xFD	; 253
    15da:	8e bd       	out	0x2e, r24	; 46
    15dc:	8e b5       	in	r24, 0x2e	; 46
    15de:	81 60       	ori	r24, 0x01	; 1
    15e0:	8e bd       	out	0x2e, r24	; 46
    15e2:	86 2f       	mov	r24, r22
    15e4:	90 e0       	ldi	r25, 0x00	; 0
    15e6:	80 31       	cpi	r24, 0x10	; 16
    15e8:	91 05       	cpc	r25, r1
    15ea:	08 f0       	brcs	.+2      	; 0x15ee <TIMER1_Init+0x6e>
    15ec:	5c c0       	rjmp	.+184    	; 0x16a6 <TIMER1_Init+0x126>
    15ee:	fc 01       	movw	r30, r24
    15f0:	e7 5c       	subi	r30, 0xC7	; 199
    15f2:	ff 4f       	sbci	r31, 0xFF	; 255
    15f4:	0c 94 14 0f 	jmp	0x1e28	; 0x1e28 <__tablejump2__>
    15f8:	8e b5       	in	r24, 0x2e	; 46
    15fa:	8f 7e       	andi	r24, 0xEF	; 239
    15fc:	20 c0       	rjmp	.+64     	; 0x163e <TIMER1_Init+0xbe>
    15fe:	8e b5       	in	r24, 0x2e	; 46
    1600:	8f 7e       	andi	r24, 0xEF	; 239
    1602:	23 c0       	rjmp	.+70     	; 0x164a <TIMER1_Init+0xca>
    1604:	8e b5       	in	r24, 0x2e	; 46
    1606:	8f 7e       	andi	r24, 0xEF	; 239
    1608:	29 c0       	rjmp	.+82     	; 0x165c <TIMER1_Init+0xdc>
    160a:	8e b5       	in	r24, 0x2e	; 46
    160c:	8f 7e       	andi	r24, 0xEF	; 239
    160e:	2c c0       	rjmp	.+88     	; 0x1668 <TIMER1_Init+0xe8>
    1610:	8e b5       	in	r24, 0x2e	; 46
    1612:	8f 7e       	andi	r24, 0xEF	; 239
    1614:	8e bd       	out	0x2e, r24	; 46
    1616:	8e b5       	in	r24, 0x2e	; 46
    1618:	88 60       	ori	r24, 0x08	; 8
    161a:	8e bd       	out	0x2e, r24	; 46
    161c:	8f b5       	in	r24, 0x2f	; 47
    161e:	8d 7f       	andi	r24, 0xFD	; 253
    1620:	32 c0       	rjmp	.+100    	; 0x1686 <TIMER1_Init+0x106>
    1622:	8e b5       	in	r24, 0x2e	; 46
    1624:	8f 7e       	andi	r24, 0xEF	; 239
    1626:	8e bd       	out	0x2e, r24	; 46
    1628:	8e b5       	in	r24, 0x2e	; 46
    162a:	88 60       	ori	r24, 0x08	; 8
    162c:	11 c0       	rjmp	.+34     	; 0x1650 <TIMER1_Init+0xd0>
    162e:	8e b5       	in	r24, 0x2e	; 46
    1630:	8f 7e       	andi	r24, 0xEF	; 239
    1632:	23 c0       	rjmp	.+70     	; 0x167a <TIMER1_Init+0xfa>
    1634:	8e b5       	in	r24, 0x2e	; 46
    1636:	8f 7e       	andi	r24, 0xEF	; 239
    1638:	2c c0       	rjmp	.+88     	; 0x1692 <TIMER1_Init+0x112>
    163a:	8e b5       	in	r24, 0x2e	; 46
    163c:	80 61       	ori	r24, 0x10	; 16
    163e:	8e bd       	out	0x2e, r24	; 46
    1640:	8e b5       	in	r24, 0x2e	; 46
    1642:	87 7f       	andi	r24, 0xF7	; 247
    1644:	ea cf       	rjmp	.-44     	; 0x161a <TIMER1_Init+0x9a>
    1646:	8e b5       	in	r24, 0x2e	; 46
    1648:	80 61       	ori	r24, 0x10	; 16
    164a:	8e bd       	out	0x2e, r24	; 46
    164c:	8e b5       	in	r24, 0x2e	; 46
    164e:	87 7f       	andi	r24, 0xF7	; 247
    1650:	8e bd       	out	0x2e, r24	; 46
    1652:	8f b5       	in	r24, 0x2f	; 47
    1654:	8d 7f       	andi	r24, 0xFD	; 253
    1656:	23 c0       	rjmp	.+70     	; 0x169e <TIMER1_Init+0x11e>
    1658:	8e b5       	in	r24, 0x2e	; 46
    165a:	80 61       	ori	r24, 0x10	; 16
    165c:	8e bd       	out	0x2e, r24	; 46
    165e:	8e b5       	in	r24, 0x2e	; 46
    1660:	87 7f       	andi	r24, 0xF7	; 247
    1662:	0e c0       	rjmp	.+28     	; 0x1680 <TIMER1_Init+0x100>
    1664:	8e b5       	in	r24, 0x2e	; 46
    1666:	80 61       	ori	r24, 0x10	; 16
    1668:	8e bd       	out	0x2e, r24	; 46
    166a:	8e b5       	in	r24, 0x2e	; 46
    166c:	87 7f       	andi	r24, 0xF7	; 247
    166e:	14 c0       	rjmp	.+40     	; 0x1698 <TIMER1_Init+0x118>
    1670:	8e b5       	in	r24, 0x2e	; 46
    1672:	80 61       	ori	r24, 0x10	; 16
    1674:	cf cf       	rjmp	.-98     	; 0x1614 <TIMER1_Init+0x94>
    1676:	8e b5       	in	r24, 0x2e	; 46
    1678:	80 61       	ori	r24, 0x10	; 16
    167a:	8e bd       	out	0x2e, r24	; 46
    167c:	8e b5       	in	r24, 0x2e	; 46
    167e:	88 60       	ori	r24, 0x08	; 8
    1680:	8e bd       	out	0x2e, r24	; 46
    1682:	8f b5       	in	r24, 0x2f	; 47
    1684:	82 60       	ori	r24, 0x02	; 2
    1686:	8f bd       	out	0x2f, r24	; 47
    1688:	8f b5       	in	r24, 0x2f	; 47
    168a:	8e 7f       	andi	r24, 0xFE	; 254
    168c:	0b c0       	rjmp	.+22     	; 0x16a4 <TIMER1_Init+0x124>
    168e:	8e b5       	in	r24, 0x2e	; 46
    1690:	80 61       	ori	r24, 0x10	; 16
    1692:	8e bd       	out	0x2e, r24	; 46
    1694:	8e b5       	in	r24, 0x2e	; 46
    1696:	88 60       	ori	r24, 0x08	; 8
    1698:	8e bd       	out	0x2e, r24	; 46
    169a:	8f b5       	in	r24, 0x2f	; 47
    169c:	82 60       	ori	r24, 0x02	; 2
    169e:	8f bd       	out	0x2f, r24	; 47
    16a0:	8f b5       	in	r24, 0x2f	; 47
    16a2:	81 60       	ori	r24, 0x01	; 1
    16a4:	8f bd       	out	0x2f, r24	; 47
    16a6:	41 30       	cpi	r20, 0x01	; 1
    16a8:	59 f0       	breq	.+22     	; 0x16c0 <TIMER1_Init+0x140>
    16aa:	38 f0       	brcs	.+14     	; 0x16ba <TIMER1_Init+0x13a>
    16ac:	42 30       	cpi	r20, 0x02	; 2
    16ae:	59 f0       	breq	.+22     	; 0x16c6 <TIMER1_Init+0x146>
    16b0:	43 30       	cpi	r20, 0x03	; 3
    16b2:	99 f4       	brne	.+38     	; 0x16da <TIMER1_Init+0x15a>
    16b4:	8f b5       	in	r24, 0x2f	; 47
    16b6:	80 68       	ori	r24, 0x80	; 128
    16b8:	0c c0       	rjmp	.+24     	; 0x16d2 <TIMER1_Init+0x152>
    16ba:	8f b5       	in	r24, 0x2f	; 47
    16bc:	8f 77       	andi	r24, 0x7F	; 127
    16be:	05 c0       	rjmp	.+10     	; 0x16ca <TIMER1_Init+0x14a>
    16c0:	8f b5       	in	r24, 0x2f	; 47
    16c2:	8f 77       	andi	r24, 0x7F	; 127
    16c4:	06 c0       	rjmp	.+12     	; 0x16d2 <TIMER1_Init+0x152>
    16c6:	8f b5       	in	r24, 0x2f	; 47
    16c8:	80 68       	ori	r24, 0x80	; 128
    16ca:	8f bd       	out	0x2f, r24	; 47
    16cc:	8f b5       	in	r24, 0x2f	; 47
    16ce:	8f 7b       	andi	r24, 0xBF	; 191
    16d0:	03 c0       	rjmp	.+6      	; 0x16d8 <TIMER1_Init+0x158>
    16d2:	8f bd       	out	0x2f, r24	; 47
    16d4:	8f b5       	in	r24, 0x2f	; 47
    16d6:	80 64       	ori	r24, 0x40	; 64
    16d8:	8f bd       	out	0x2f, r24	; 47
    16da:	21 30       	cpi	r18, 0x01	; 1
    16dc:	49 f0       	breq	.+18     	; 0x16f0 <TIMER1_Init+0x170>
    16de:	28 f0       	brcs	.+10     	; 0x16ea <TIMER1_Init+0x16a>
    16e0:	22 30       	cpi	r18, 0x02	; 2
    16e2:	49 f0       	breq	.+18     	; 0x16f6 <TIMER1_Init+0x176>
    16e4:	23 30       	cpi	r18, 0x03	; 3
    16e6:	69 f0       	breq	.+26     	; 0x1702 <TIMER1_Init+0x182>
    16e8:	08 95       	ret
    16ea:	8f b5       	in	r24, 0x2f	; 47
    16ec:	8f 7d       	andi	r24, 0xDF	; 223
    16ee:	05 c0       	rjmp	.+10     	; 0x16fa <TIMER1_Init+0x17a>
    16f0:	8f b5       	in	r24, 0x2f	; 47
    16f2:	8f 7d       	andi	r24, 0xDF	; 223
    16f4:	08 c0       	rjmp	.+16     	; 0x1706 <TIMER1_Init+0x186>
    16f6:	8f b5       	in	r24, 0x2f	; 47
    16f8:	80 62       	ori	r24, 0x20	; 32
    16fa:	8f bd       	out	0x2f, r24	; 47
    16fc:	8f b5       	in	r24, 0x2f	; 47
    16fe:	8f 7e       	andi	r24, 0xEF	; 239
    1700:	05 c0       	rjmp	.+10     	; 0x170c <TIMER1_Init+0x18c>
    1702:	8f b5       	in	r24, 0x2f	; 47
    1704:	80 62       	ori	r24, 0x20	; 32
    1706:	8f bd       	out	0x2f, r24	; 47
    1708:	8f b5       	in	r24, 0x2f	; 47
    170a:	80 61       	ori	r24, 0x10	; 16
    170c:	8f bd       	out	0x2f, r24	; 47
    170e:	08 95       	ret

00001710 <__vector_7>:
    1710:	1f 92       	push	r1
    1712:	0f 92       	push	r0
    1714:	0f b6       	in	r0, 0x3f	; 63
    1716:	0f 92       	push	r0
    1718:	11 24       	eor	r1, r1
    171a:	2f 93       	push	r18
    171c:	3f 93       	push	r19
    171e:	4f 93       	push	r20
    1720:	5f 93       	push	r21
    1722:	6f 93       	push	r22
    1724:	7f 93       	push	r23
    1726:	8f 93       	push	r24
    1728:	9f 93       	push	r25
    172a:	af 93       	push	r26
    172c:	bf 93       	push	r27
    172e:	ef 93       	push	r30
    1730:	ff 93       	push	r31
    1732:	e0 91 5c 01 	lds	r30, 0x015C	; 0x80015c <funcPtrCompareMatch1A>
    1736:	f0 91 5d 01 	lds	r31, 0x015D	; 0x80015d <funcPtrCompareMatch1A+0x1>
    173a:	30 97       	sbiw	r30, 0x00	; 0
    173c:	09 f0       	breq	.+2      	; 0x1740 <__vector_7+0x30>
    173e:	09 95       	icall
    1740:	ff 91       	pop	r31
    1742:	ef 91       	pop	r30
    1744:	bf 91       	pop	r27
    1746:	af 91       	pop	r26
    1748:	9f 91       	pop	r25
    174a:	8f 91       	pop	r24
    174c:	7f 91       	pop	r23
    174e:	6f 91       	pop	r22
    1750:	5f 91       	pop	r21
    1752:	4f 91       	pop	r20
    1754:	3f 91       	pop	r19
    1756:	2f 91       	pop	r18
    1758:	0f 90       	pop	r0
    175a:	0f be       	out	0x3f, r0	; 63
    175c:	0f 90       	pop	r0
    175e:	1f 90       	pop	r1
    1760:	18 95       	reti

00001762 <__vector_8>:
    1762:	1f 92       	push	r1
    1764:	0f 92       	push	r0
    1766:	0f b6       	in	r0, 0x3f	; 63
    1768:	0f 92       	push	r0
    176a:	11 24       	eor	r1, r1
    176c:	2f 93       	push	r18
    176e:	3f 93       	push	r19
    1770:	4f 93       	push	r20
    1772:	5f 93       	push	r21
    1774:	6f 93       	push	r22
    1776:	7f 93       	push	r23
    1778:	8f 93       	push	r24
    177a:	9f 93       	push	r25
    177c:	af 93       	push	r26
    177e:	bf 93       	push	r27
    1780:	ef 93       	push	r30
    1782:	ff 93       	push	r31
    1784:	e0 91 5a 01 	lds	r30, 0x015A	; 0x80015a <funcPtrCompareMatch1B>
    1788:	f0 91 5b 01 	lds	r31, 0x015B	; 0x80015b <funcPtrCompareMatch1B+0x1>
    178c:	30 97       	sbiw	r30, 0x00	; 0
    178e:	09 f0       	breq	.+2      	; 0x1792 <__vector_8+0x30>
    1790:	09 95       	icall
    1792:	ff 91       	pop	r31
    1794:	ef 91       	pop	r30
    1796:	bf 91       	pop	r27
    1798:	af 91       	pop	r26
    179a:	9f 91       	pop	r25
    179c:	8f 91       	pop	r24
    179e:	7f 91       	pop	r23
    17a0:	6f 91       	pop	r22
    17a2:	5f 91       	pop	r21
    17a4:	4f 91       	pop	r20
    17a6:	3f 91       	pop	r19
    17a8:	2f 91       	pop	r18
    17aa:	0f 90       	pop	r0
    17ac:	0f be       	out	0x3f, r0	; 63
    17ae:	0f 90       	pop	r0
    17b0:	1f 90       	pop	r1
    17b2:	18 95       	reti

000017b4 <__vector_9>:
    17b4:	1f 92       	push	r1
    17b6:	0f 92       	push	r0
    17b8:	0f b6       	in	r0, 0x3f	; 63
    17ba:	0f 92       	push	r0
    17bc:	11 24       	eor	r1, r1
    17be:	2f 93       	push	r18
    17c0:	3f 93       	push	r19
    17c2:	4f 93       	push	r20
    17c4:	5f 93       	push	r21
    17c6:	6f 93       	push	r22
    17c8:	7f 93       	push	r23
    17ca:	8f 93       	push	r24
    17cc:	9f 93       	push	r25
    17ce:	af 93       	push	r26
    17d0:	bf 93       	push	r27
    17d2:	ef 93       	push	r30
    17d4:	ff 93       	push	r31
    17d6:	e0 91 58 01 	lds	r30, 0x0158	; 0x800158 <funcPtrOverflow>
    17da:	f0 91 59 01 	lds	r31, 0x0159	; 0x800159 <funcPtrOverflow+0x1>
    17de:	30 97       	sbiw	r30, 0x00	; 0
    17e0:	09 f0       	breq	.+2      	; 0x17e4 <__vector_9+0x30>
    17e2:	09 95       	icall
    17e4:	ff 91       	pop	r31
    17e6:	ef 91       	pop	r30
    17e8:	bf 91       	pop	r27
    17ea:	af 91       	pop	r26
    17ec:	9f 91       	pop	r25
    17ee:	8f 91       	pop	r24
    17f0:	7f 91       	pop	r23
    17f2:	6f 91       	pop	r22
    17f4:	5f 91       	pop	r21
    17f6:	4f 91       	pop	r20
    17f8:	3f 91       	pop	r19
    17fa:	2f 91       	pop	r18
    17fc:	0f 90       	pop	r0
    17fe:	0f be       	out	0x3f, r0	; 63
    1800:	0f 90       	pop	r0
    1802:	1f 90       	pop	r1
    1804:	18 95       	reti

00001806 <__vector_6>:
    1806:	1f 92       	push	r1
    1808:	0f 92       	push	r0
    180a:	0f b6       	in	r0, 0x3f	; 63
    180c:	0f 92       	push	r0
    180e:	11 24       	eor	r1, r1
    1810:	2f 93       	push	r18
    1812:	3f 93       	push	r19
    1814:	4f 93       	push	r20
    1816:	5f 93       	push	r21
    1818:	6f 93       	push	r22
    181a:	7f 93       	push	r23
    181c:	8f 93       	push	r24
    181e:	9f 93       	push	r25
    1820:	af 93       	push	r26
    1822:	bf 93       	push	r27
    1824:	ef 93       	push	r30
    1826:	ff 93       	push	r31
    1828:	e0 91 56 01 	lds	r30, 0x0156	; 0x800156 <funcPtrTimeStamp>
    182c:	f0 91 57 01 	lds	r31, 0x0157	; 0x800157 <funcPtrTimeStamp+0x1>
    1830:	30 97       	sbiw	r30, 0x00	; 0
    1832:	09 f0       	breq	.+2      	; 0x1836 <__vector_6+0x30>
    1834:	09 95       	icall
    1836:	ff 91       	pop	r31
    1838:	ef 91       	pop	r30
    183a:	bf 91       	pop	r27
    183c:	af 91       	pop	r26
    183e:	9f 91       	pop	r25
    1840:	8f 91       	pop	r24
    1842:	7f 91       	pop	r23
    1844:	6f 91       	pop	r22
    1846:	5f 91       	pop	r21
    1848:	4f 91       	pop	r20
    184a:	3f 91       	pop	r19
    184c:	2f 91       	pop	r18
    184e:	0f 90       	pop	r0
    1850:	0f be       	out	0x3f, r0	; 63
    1852:	0f 90       	pop	r0
    1854:	1f 90       	pop	r1
    1856:	18 95       	reti

00001858 <__vector_13>:
    1858:	1f 92       	push	r1
    185a:	0f 92       	push	r0
    185c:	0f b6       	in	r0, 0x3f	; 63
    185e:	0f 92       	push	r0
    1860:	11 24       	eor	r1, r1
    1862:	2f 93       	push	r18
    1864:	3f 93       	push	r19
    1866:	4f 93       	push	r20
    1868:	5f 93       	push	r21
    186a:	6f 93       	push	r22
    186c:	7f 93       	push	r23
    186e:	8f 93       	push	r24
    1870:	9f 93       	push	r25
    1872:	af 93       	push	r26
    1874:	bf 93       	push	r27
    1876:	ef 93       	push	r30
    1878:	ff 93       	push	r31
    187a:	e0 91 62 01 	lds	r30, 0x0162	; 0x800162 <RXcomplateInterruptPTR>
    187e:	f0 91 63 01 	lds	r31, 0x0163	; 0x800163 <RXcomplateInterruptPTR+0x1>
    1882:	30 97       	sbiw	r30, 0x00	; 0
    1884:	09 f0       	breq	.+2      	; 0x1888 <__vector_13+0x30>
    1886:	09 95       	icall
    1888:	ff 91       	pop	r31
    188a:	ef 91       	pop	r30
    188c:	bf 91       	pop	r27
    188e:	af 91       	pop	r26
    1890:	9f 91       	pop	r25
    1892:	8f 91       	pop	r24
    1894:	7f 91       	pop	r23
    1896:	6f 91       	pop	r22
    1898:	5f 91       	pop	r21
    189a:	4f 91       	pop	r20
    189c:	3f 91       	pop	r19
    189e:	2f 91       	pop	r18
    18a0:	0f 90       	pop	r0
    18a2:	0f be       	out	0x3f, r0	; 63
    18a4:	0f 90       	pop	r0
    18a6:	1f 90       	pop	r1
    18a8:	18 95       	reti

000018aa <__vector_15>:
    18aa:	1f 92       	push	r1
    18ac:	0f 92       	push	r0
    18ae:	0f b6       	in	r0, 0x3f	; 63
    18b0:	0f 92       	push	r0
    18b2:	11 24       	eor	r1, r1
    18b4:	2f 93       	push	r18
    18b6:	3f 93       	push	r19
    18b8:	4f 93       	push	r20
    18ba:	5f 93       	push	r21
    18bc:	6f 93       	push	r22
    18be:	7f 93       	push	r23
    18c0:	8f 93       	push	r24
    18c2:	9f 93       	push	r25
    18c4:	af 93       	push	r26
    18c6:	bf 93       	push	r27
    18c8:	ef 93       	push	r30
    18ca:	ff 93       	push	r31
    18cc:	e0 91 60 01 	lds	r30, 0x0160	; 0x800160 <TXcomplateInterruptPTR>
    18d0:	f0 91 61 01 	lds	r31, 0x0161	; 0x800161 <TXcomplateInterruptPTR+0x1>
    18d4:	30 97       	sbiw	r30, 0x00	; 0
    18d6:	09 f0       	breq	.+2      	; 0x18da <__vector_15+0x30>
    18d8:	09 95       	icall
    18da:	ff 91       	pop	r31
    18dc:	ef 91       	pop	r30
    18de:	bf 91       	pop	r27
    18e0:	af 91       	pop	r26
    18e2:	9f 91       	pop	r25
    18e4:	8f 91       	pop	r24
    18e6:	7f 91       	pop	r23
    18e8:	6f 91       	pop	r22
    18ea:	5f 91       	pop	r21
    18ec:	4f 91       	pop	r20
    18ee:	3f 91       	pop	r19
    18f0:	2f 91       	pop	r18
    18f2:	0f 90       	pop	r0
    18f4:	0f be       	out	0x3f, r0	; 63
    18f6:	0f 90       	pop	r0
    18f8:	1f 90       	pop	r1
    18fa:	18 95       	reti

000018fc <__vector_14>:
    18fc:	1f 92       	push	r1
    18fe:	0f 92       	push	r0
    1900:	0f b6       	in	r0, 0x3f	; 63
    1902:	0f 92       	push	r0
    1904:	11 24       	eor	r1, r1
    1906:	2f 93       	push	r18
    1908:	3f 93       	push	r19
    190a:	4f 93       	push	r20
    190c:	5f 93       	push	r21
    190e:	6f 93       	push	r22
    1910:	7f 93       	push	r23
    1912:	8f 93       	push	r24
    1914:	9f 93       	push	r25
    1916:	af 93       	push	r26
    1918:	bf 93       	push	r27
    191a:	ef 93       	push	r30
    191c:	ff 93       	push	r31
    191e:	e0 91 5e 01 	lds	r30, 0x015E	; 0x80015e <UDRemptyInterruptPTR>
    1922:	f0 91 5f 01 	lds	r31, 0x015F	; 0x80015f <UDRemptyInterruptPTR+0x1>
    1926:	30 97       	sbiw	r30, 0x00	; 0
    1928:	09 f0       	breq	.+2      	; 0x192c <__vector_14+0x30>
    192a:	09 95       	icall
    192c:	ff 91       	pop	r31
    192e:	ef 91       	pop	r30
    1930:	bf 91       	pop	r27
    1932:	af 91       	pop	r26
    1934:	9f 91       	pop	r25
    1936:	8f 91       	pop	r24
    1938:	7f 91       	pop	r23
    193a:	6f 91       	pop	r22
    193c:	5f 91       	pop	r21
    193e:	4f 91       	pop	r20
    1940:	3f 91       	pop	r19
    1942:	2f 91       	pop	r18
    1944:	0f 90       	pop	r0
    1946:	0f be       	out	0x3f, r0	; 63
    1948:	0f 90       	pop	r0
    194a:	1f 90       	pop	r1
    194c:	18 95       	reti

0000194e <__subsf3>:
    194e:	50 58       	subi	r21, 0x80	; 128

00001950 <__addsf3>:
    1950:	bb 27       	eor	r27, r27
    1952:	aa 27       	eor	r26, r26
    1954:	0e 94 bf 0c 	call	0x197e	; 0x197e <__addsf3x>
    1958:	0c 94 32 0e 	jmp	0x1c64	; 0x1c64 <__fp_round>
    195c:	0e 94 24 0e 	call	0x1c48	; 0x1c48 <__fp_pscA>
    1960:	38 f0       	brcs	.+14     	; 0x1970 <__addsf3+0x20>
    1962:	0e 94 2b 0e 	call	0x1c56	; 0x1c56 <__fp_pscB>
    1966:	20 f0       	brcs	.+8      	; 0x1970 <__addsf3+0x20>
    1968:	39 f4       	brne	.+14     	; 0x1978 <__addsf3+0x28>
    196a:	9f 3f       	cpi	r25, 0xFF	; 255
    196c:	19 f4       	brne	.+6      	; 0x1974 <__addsf3+0x24>
    196e:	26 f4       	brtc	.+8      	; 0x1978 <__addsf3+0x28>
    1970:	0c 94 21 0e 	jmp	0x1c42	; 0x1c42 <__fp_nan>
    1974:	0e f4       	brtc	.+2      	; 0x1978 <__addsf3+0x28>
    1976:	e0 95       	com	r30
    1978:	e7 fb       	bst	r30, 7
    197a:	0c 94 1b 0e 	jmp	0x1c36	; 0x1c36 <__fp_inf>

0000197e <__addsf3x>:
    197e:	e9 2f       	mov	r30, r25
    1980:	0e 94 43 0e 	call	0x1c86	; 0x1c86 <__fp_split3>
    1984:	58 f3       	brcs	.-42     	; 0x195c <__addsf3+0xc>
    1986:	ba 17       	cp	r27, r26
    1988:	62 07       	cpc	r22, r18
    198a:	73 07       	cpc	r23, r19
    198c:	84 07       	cpc	r24, r20
    198e:	95 07       	cpc	r25, r21
    1990:	20 f0       	brcs	.+8      	; 0x199a <__addsf3x+0x1c>
    1992:	79 f4       	brne	.+30     	; 0x19b2 <__addsf3x+0x34>
    1994:	a6 f5       	brtc	.+104    	; 0x19fe <__addsf3x+0x80>
    1996:	0c 94 65 0e 	jmp	0x1cca	; 0x1cca <__fp_zero>
    199a:	0e f4       	brtc	.+2      	; 0x199e <__addsf3x+0x20>
    199c:	e0 95       	com	r30
    199e:	0b 2e       	mov	r0, r27
    19a0:	ba 2f       	mov	r27, r26
    19a2:	a0 2d       	mov	r26, r0
    19a4:	0b 01       	movw	r0, r22
    19a6:	b9 01       	movw	r22, r18
    19a8:	90 01       	movw	r18, r0
    19aa:	0c 01       	movw	r0, r24
    19ac:	ca 01       	movw	r24, r20
    19ae:	a0 01       	movw	r20, r0
    19b0:	11 24       	eor	r1, r1
    19b2:	ff 27       	eor	r31, r31
    19b4:	59 1b       	sub	r21, r25
    19b6:	99 f0       	breq	.+38     	; 0x19de <__addsf3x+0x60>
    19b8:	59 3f       	cpi	r21, 0xF9	; 249
    19ba:	50 f4       	brcc	.+20     	; 0x19d0 <__addsf3x+0x52>
    19bc:	50 3e       	cpi	r21, 0xE0	; 224
    19be:	68 f1       	brcs	.+90     	; 0x1a1a <__addsf3x+0x9c>
    19c0:	1a 16       	cp	r1, r26
    19c2:	f0 40       	sbci	r31, 0x00	; 0
    19c4:	a2 2f       	mov	r26, r18
    19c6:	23 2f       	mov	r18, r19
    19c8:	34 2f       	mov	r19, r20
    19ca:	44 27       	eor	r20, r20
    19cc:	58 5f       	subi	r21, 0xF8	; 248
    19ce:	f3 cf       	rjmp	.-26     	; 0x19b6 <__addsf3x+0x38>
    19d0:	46 95       	lsr	r20
    19d2:	37 95       	ror	r19
    19d4:	27 95       	ror	r18
    19d6:	a7 95       	ror	r26
    19d8:	f0 40       	sbci	r31, 0x00	; 0
    19da:	53 95       	inc	r21
    19dc:	c9 f7       	brne	.-14     	; 0x19d0 <__addsf3x+0x52>
    19de:	7e f4       	brtc	.+30     	; 0x19fe <__addsf3x+0x80>
    19e0:	1f 16       	cp	r1, r31
    19e2:	ba 0b       	sbc	r27, r26
    19e4:	62 0b       	sbc	r22, r18
    19e6:	73 0b       	sbc	r23, r19
    19e8:	84 0b       	sbc	r24, r20
    19ea:	ba f0       	brmi	.+46     	; 0x1a1a <__addsf3x+0x9c>
    19ec:	91 50       	subi	r25, 0x01	; 1
    19ee:	a1 f0       	breq	.+40     	; 0x1a18 <__addsf3x+0x9a>
    19f0:	ff 0f       	add	r31, r31
    19f2:	bb 1f       	adc	r27, r27
    19f4:	66 1f       	adc	r22, r22
    19f6:	77 1f       	adc	r23, r23
    19f8:	88 1f       	adc	r24, r24
    19fa:	c2 f7       	brpl	.-16     	; 0x19ec <__addsf3x+0x6e>
    19fc:	0e c0       	rjmp	.+28     	; 0x1a1a <__addsf3x+0x9c>
    19fe:	ba 0f       	add	r27, r26
    1a00:	62 1f       	adc	r22, r18
    1a02:	73 1f       	adc	r23, r19
    1a04:	84 1f       	adc	r24, r20
    1a06:	48 f4       	brcc	.+18     	; 0x1a1a <__addsf3x+0x9c>
    1a08:	87 95       	ror	r24
    1a0a:	77 95       	ror	r23
    1a0c:	67 95       	ror	r22
    1a0e:	b7 95       	ror	r27
    1a10:	f7 95       	ror	r31
    1a12:	9e 3f       	cpi	r25, 0xFE	; 254
    1a14:	08 f0       	brcs	.+2      	; 0x1a18 <__addsf3x+0x9a>
    1a16:	b0 cf       	rjmp	.-160    	; 0x1978 <__addsf3+0x28>
    1a18:	93 95       	inc	r25
    1a1a:	88 0f       	add	r24, r24
    1a1c:	08 f0       	brcs	.+2      	; 0x1a20 <__addsf3x+0xa2>
    1a1e:	99 27       	eor	r25, r25
    1a20:	ee 0f       	add	r30, r30
    1a22:	97 95       	ror	r25
    1a24:	87 95       	ror	r24
    1a26:	08 95       	ret

00001a28 <__cmpsf2>:
    1a28:	0e 94 f7 0d 	call	0x1bee	; 0x1bee <__fp_cmp>
    1a2c:	08 f4       	brcc	.+2      	; 0x1a30 <__cmpsf2+0x8>
    1a2e:	81 e0       	ldi	r24, 0x01	; 1
    1a30:	08 95       	ret

00001a32 <__divsf3>:
    1a32:	0e 94 2d 0d 	call	0x1a5a	; 0x1a5a <__divsf3x>
    1a36:	0c 94 32 0e 	jmp	0x1c64	; 0x1c64 <__fp_round>
    1a3a:	0e 94 2b 0e 	call	0x1c56	; 0x1c56 <__fp_pscB>
    1a3e:	58 f0       	brcs	.+22     	; 0x1a56 <__divsf3+0x24>
    1a40:	0e 94 24 0e 	call	0x1c48	; 0x1c48 <__fp_pscA>
    1a44:	40 f0       	brcs	.+16     	; 0x1a56 <__divsf3+0x24>
    1a46:	29 f4       	brne	.+10     	; 0x1a52 <__divsf3+0x20>
    1a48:	5f 3f       	cpi	r21, 0xFF	; 255
    1a4a:	29 f0       	breq	.+10     	; 0x1a56 <__divsf3+0x24>
    1a4c:	0c 94 1b 0e 	jmp	0x1c36	; 0x1c36 <__fp_inf>
    1a50:	51 11       	cpse	r21, r1
    1a52:	0c 94 66 0e 	jmp	0x1ccc	; 0x1ccc <__fp_szero>
    1a56:	0c 94 21 0e 	jmp	0x1c42	; 0x1c42 <__fp_nan>

00001a5a <__divsf3x>:
    1a5a:	0e 94 43 0e 	call	0x1c86	; 0x1c86 <__fp_split3>
    1a5e:	68 f3       	brcs	.-38     	; 0x1a3a <__divsf3+0x8>

00001a60 <__divsf3_pse>:
    1a60:	99 23       	and	r25, r25
    1a62:	b1 f3       	breq	.-20     	; 0x1a50 <__divsf3+0x1e>
    1a64:	55 23       	and	r21, r21
    1a66:	91 f3       	breq	.-28     	; 0x1a4c <__divsf3+0x1a>
    1a68:	95 1b       	sub	r25, r21
    1a6a:	55 0b       	sbc	r21, r21
    1a6c:	bb 27       	eor	r27, r27
    1a6e:	aa 27       	eor	r26, r26
    1a70:	62 17       	cp	r22, r18
    1a72:	73 07       	cpc	r23, r19
    1a74:	84 07       	cpc	r24, r20
    1a76:	38 f0       	brcs	.+14     	; 0x1a86 <__divsf3_pse+0x26>
    1a78:	9f 5f       	subi	r25, 0xFF	; 255
    1a7a:	5f 4f       	sbci	r21, 0xFF	; 255
    1a7c:	22 0f       	add	r18, r18
    1a7e:	33 1f       	adc	r19, r19
    1a80:	44 1f       	adc	r20, r20
    1a82:	aa 1f       	adc	r26, r26
    1a84:	a9 f3       	breq	.-22     	; 0x1a70 <__divsf3_pse+0x10>
    1a86:	35 d0       	rcall	.+106    	; 0x1af2 <__divsf3_pse+0x92>
    1a88:	0e 2e       	mov	r0, r30
    1a8a:	3a f0       	brmi	.+14     	; 0x1a9a <__divsf3_pse+0x3a>
    1a8c:	e0 e8       	ldi	r30, 0x80	; 128
    1a8e:	32 d0       	rcall	.+100    	; 0x1af4 <__divsf3_pse+0x94>
    1a90:	91 50       	subi	r25, 0x01	; 1
    1a92:	50 40       	sbci	r21, 0x00	; 0
    1a94:	e6 95       	lsr	r30
    1a96:	00 1c       	adc	r0, r0
    1a98:	ca f7       	brpl	.-14     	; 0x1a8c <__divsf3_pse+0x2c>
    1a9a:	2b d0       	rcall	.+86     	; 0x1af2 <__divsf3_pse+0x92>
    1a9c:	fe 2f       	mov	r31, r30
    1a9e:	29 d0       	rcall	.+82     	; 0x1af2 <__divsf3_pse+0x92>
    1aa0:	66 0f       	add	r22, r22
    1aa2:	77 1f       	adc	r23, r23
    1aa4:	88 1f       	adc	r24, r24
    1aa6:	bb 1f       	adc	r27, r27
    1aa8:	26 17       	cp	r18, r22
    1aaa:	37 07       	cpc	r19, r23
    1aac:	48 07       	cpc	r20, r24
    1aae:	ab 07       	cpc	r26, r27
    1ab0:	b0 e8       	ldi	r27, 0x80	; 128
    1ab2:	09 f0       	breq	.+2      	; 0x1ab6 <__divsf3_pse+0x56>
    1ab4:	bb 0b       	sbc	r27, r27
    1ab6:	80 2d       	mov	r24, r0
    1ab8:	bf 01       	movw	r22, r30
    1aba:	ff 27       	eor	r31, r31
    1abc:	93 58       	subi	r25, 0x83	; 131
    1abe:	5f 4f       	sbci	r21, 0xFF	; 255
    1ac0:	3a f0       	brmi	.+14     	; 0x1ad0 <__divsf3_pse+0x70>
    1ac2:	9e 3f       	cpi	r25, 0xFE	; 254
    1ac4:	51 05       	cpc	r21, r1
    1ac6:	78 f0       	brcs	.+30     	; 0x1ae6 <__divsf3_pse+0x86>
    1ac8:	0c 94 1b 0e 	jmp	0x1c36	; 0x1c36 <__fp_inf>
    1acc:	0c 94 66 0e 	jmp	0x1ccc	; 0x1ccc <__fp_szero>
    1ad0:	5f 3f       	cpi	r21, 0xFF	; 255
    1ad2:	e4 f3       	brlt	.-8      	; 0x1acc <__divsf3_pse+0x6c>
    1ad4:	98 3e       	cpi	r25, 0xE8	; 232
    1ad6:	d4 f3       	brlt	.-12     	; 0x1acc <__divsf3_pse+0x6c>
    1ad8:	86 95       	lsr	r24
    1ada:	77 95       	ror	r23
    1adc:	67 95       	ror	r22
    1ade:	b7 95       	ror	r27
    1ae0:	f7 95       	ror	r31
    1ae2:	9f 5f       	subi	r25, 0xFF	; 255
    1ae4:	c9 f7       	brne	.-14     	; 0x1ad8 <__divsf3_pse+0x78>
    1ae6:	88 0f       	add	r24, r24
    1ae8:	91 1d       	adc	r25, r1
    1aea:	96 95       	lsr	r25
    1aec:	87 95       	ror	r24
    1aee:	97 f9       	bld	r25, 7
    1af0:	08 95       	ret
    1af2:	e1 e0       	ldi	r30, 0x01	; 1
    1af4:	66 0f       	add	r22, r22
    1af6:	77 1f       	adc	r23, r23
    1af8:	88 1f       	adc	r24, r24
    1afa:	bb 1f       	adc	r27, r27
    1afc:	62 17       	cp	r22, r18
    1afe:	73 07       	cpc	r23, r19
    1b00:	84 07       	cpc	r24, r20
    1b02:	ba 07       	cpc	r27, r26
    1b04:	20 f0       	brcs	.+8      	; 0x1b0e <__divsf3_pse+0xae>
    1b06:	62 1b       	sub	r22, r18
    1b08:	73 0b       	sbc	r23, r19
    1b0a:	84 0b       	sbc	r24, r20
    1b0c:	ba 0b       	sbc	r27, r26
    1b0e:	ee 1f       	adc	r30, r30
    1b10:	88 f7       	brcc	.-30     	; 0x1af4 <__divsf3_pse+0x94>
    1b12:	e0 95       	com	r30
    1b14:	08 95       	ret

00001b16 <__fixunssfsi>:
    1b16:	0e 94 4b 0e 	call	0x1c96	; 0x1c96 <__fp_splitA>
    1b1a:	88 f0       	brcs	.+34     	; 0x1b3e <__fixunssfsi+0x28>
    1b1c:	9f 57       	subi	r25, 0x7F	; 127
    1b1e:	98 f0       	brcs	.+38     	; 0x1b46 <__fixunssfsi+0x30>
    1b20:	b9 2f       	mov	r27, r25
    1b22:	99 27       	eor	r25, r25
    1b24:	b7 51       	subi	r27, 0x17	; 23
    1b26:	b0 f0       	brcs	.+44     	; 0x1b54 <__fixunssfsi+0x3e>
    1b28:	e1 f0       	breq	.+56     	; 0x1b62 <__fixunssfsi+0x4c>
    1b2a:	66 0f       	add	r22, r22
    1b2c:	77 1f       	adc	r23, r23
    1b2e:	88 1f       	adc	r24, r24
    1b30:	99 1f       	adc	r25, r25
    1b32:	1a f0       	brmi	.+6      	; 0x1b3a <__fixunssfsi+0x24>
    1b34:	ba 95       	dec	r27
    1b36:	c9 f7       	brne	.-14     	; 0x1b2a <__fixunssfsi+0x14>
    1b38:	14 c0       	rjmp	.+40     	; 0x1b62 <__fixunssfsi+0x4c>
    1b3a:	b1 30       	cpi	r27, 0x01	; 1
    1b3c:	91 f0       	breq	.+36     	; 0x1b62 <__fixunssfsi+0x4c>
    1b3e:	0e 94 65 0e 	call	0x1cca	; 0x1cca <__fp_zero>
    1b42:	b1 e0       	ldi	r27, 0x01	; 1
    1b44:	08 95       	ret
    1b46:	0c 94 65 0e 	jmp	0x1cca	; 0x1cca <__fp_zero>
    1b4a:	67 2f       	mov	r22, r23
    1b4c:	78 2f       	mov	r23, r24
    1b4e:	88 27       	eor	r24, r24
    1b50:	b8 5f       	subi	r27, 0xF8	; 248
    1b52:	39 f0       	breq	.+14     	; 0x1b62 <__fixunssfsi+0x4c>
    1b54:	b9 3f       	cpi	r27, 0xF9	; 249
    1b56:	cc f3       	brlt	.-14     	; 0x1b4a <__fixunssfsi+0x34>
    1b58:	86 95       	lsr	r24
    1b5a:	77 95       	ror	r23
    1b5c:	67 95       	ror	r22
    1b5e:	b3 95       	inc	r27
    1b60:	d9 f7       	brne	.-10     	; 0x1b58 <__fixunssfsi+0x42>
    1b62:	3e f4       	brtc	.+14     	; 0x1b72 <__fixunssfsi+0x5c>
    1b64:	90 95       	com	r25
    1b66:	80 95       	com	r24
    1b68:	70 95       	com	r23
    1b6a:	61 95       	neg	r22
    1b6c:	7f 4f       	sbci	r23, 0xFF	; 255
    1b6e:	8f 4f       	sbci	r24, 0xFF	; 255
    1b70:	9f 4f       	sbci	r25, 0xFF	; 255
    1b72:	08 95       	ret

00001b74 <__floatunsisf>:
    1b74:	e8 94       	clt
    1b76:	09 c0       	rjmp	.+18     	; 0x1b8a <__floatsisf+0x12>

00001b78 <__floatsisf>:
    1b78:	97 fb       	bst	r25, 7
    1b7a:	3e f4       	brtc	.+14     	; 0x1b8a <__floatsisf+0x12>
    1b7c:	90 95       	com	r25
    1b7e:	80 95       	com	r24
    1b80:	70 95       	com	r23
    1b82:	61 95       	neg	r22
    1b84:	7f 4f       	sbci	r23, 0xFF	; 255
    1b86:	8f 4f       	sbci	r24, 0xFF	; 255
    1b88:	9f 4f       	sbci	r25, 0xFF	; 255
    1b8a:	99 23       	and	r25, r25
    1b8c:	a9 f0       	breq	.+42     	; 0x1bb8 <__floatsisf+0x40>
    1b8e:	f9 2f       	mov	r31, r25
    1b90:	96 e9       	ldi	r25, 0x96	; 150
    1b92:	bb 27       	eor	r27, r27
    1b94:	93 95       	inc	r25
    1b96:	f6 95       	lsr	r31
    1b98:	87 95       	ror	r24
    1b9a:	77 95       	ror	r23
    1b9c:	67 95       	ror	r22
    1b9e:	b7 95       	ror	r27
    1ba0:	f1 11       	cpse	r31, r1
    1ba2:	f8 cf       	rjmp	.-16     	; 0x1b94 <__floatsisf+0x1c>
    1ba4:	fa f4       	brpl	.+62     	; 0x1be4 <__floatsisf+0x6c>
    1ba6:	bb 0f       	add	r27, r27
    1ba8:	11 f4       	brne	.+4      	; 0x1bae <__floatsisf+0x36>
    1baa:	60 ff       	sbrs	r22, 0
    1bac:	1b c0       	rjmp	.+54     	; 0x1be4 <__floatsisf+0x6c>
    1bae:	6f 5f       	subi	r22, 0xFF	; 255
    1bb0:	7f 4f       	sbci	r23, 0xFF	; 255
    1bb2:	8f 4f       	sbci	r24, 0xFF	; 255
    1bb4:	9f 4f       	sbci	r25, 0xFF	; 255
    1bb6:	16 c0       	rjmp	.+44     	; 0x1be4 <__floatsisf+0x6c>
    1bb8:	88 23       	and	r24, r24
    1bba:	11 f0       	breq	.+4      	; 0x1bc0 <__floatsisf+0x48>
    1bbc:	96 e9       	ldi	r25, 0x96	; 150
    1bbe:	11 c0       	rjmp	.+34     	; 0x1be2 <__floatsisf+0x6a>
    1bc0:	77 23       	and	r23, r23
    1bc2:	21 f0       	breq	.+8      	; 0x1bcc <__floatsisf+0x54>
    1bc4:	9e e8       	ldi	r25, 0x8E	; 142
    1bc6:	87 2f       	mov	r24, r23
    1bc8:	76 2f       	mov	r23, r22
    1bca:	05 c0       	rjmp	.+10     	; 0x1bd6 <__floatsisf+0x5e>
    1bcc:	66 23       	and	r22, r22
    1bce:	71 f0       	breq	.+28     	; 0x1bec <__floatsisf+0x74>
    1bd0:	96 e8       	ldi	r25, 0x86	; 134
    1bd2:	86 2f       	mov	r24, r22
    1bd4:	70 e0       	ldi	r23, 0x00	; 0
    1bd6:	60 e0       	ldi	r22, 0x00	; 0
    1bd8:	2a f0       	brmi	.+10     	; 0x1be4 <__floatsisf+0x6c>
    1bda:	9a 95       	dec	r25
    1bdc:	66 0f       	add	r22, r22
    1bde:	77 1f       	adc	r23, r23
    1be0:	88 1f       	adc	r24, r24
    1be2:	da f7       	brpl	.-10     	; 0x1bda <__floatsisf+0x62>
    1be4:	88 0f       	add	r24, r24
    1be6:	96 95       	lsr	r25
    1be8:	87 95       	ror	r24
    1bea:	97 f9       	bld	r25, 7
    1bec:	08 95       	ret

00001bee <__fp_cmp>:
    1bee:	99 0f       	add	r25, r25
    1bf0:	00 08       	sbc	r0, r0
    1bf2:	55 0f       	add	r21, r21
    1bf4:	aa 0b       	sbc	r26, r26
    1bf6:	e0 e8       	ldi	r30, 0x80	; 128
    1bf8:	fe ef       	ldi	r31, 0xFE	; 254
    1bfa:	16 16       	cp	r1, r22
    1bfc:	17 06       	cpc	r1, r23
    1bfe:	e8 07       	cpc	r30, r24
    1c00:	f9 07       	cpc	r31, r25
    1c02:	c0 f0       	brcs	.+48     	; 0x1c34 <__fp_cmp+0x46>
    1c04:	12 16       	cp	r1, r18
    1c06:	13 06       	cpc	r1, r19
    1c08:	e4 07       	cpc	r30, r20
    1c0a:	f5 07       	cpc	r31, r21
    1c0c:	98 f0       	brcs	.+38     	; 0x1c34 <__fp_cmp+0x46>
    1c0e:	62 1b       	sub	r22, r18
    1c10:	73 0b       	sbc	r23, r19
    1c12:	84 0b       	sbc	r24, r20
    1c14:	95 0b       	sbc	r25, r21
    1c16:	39 f4       	brne	.+14     	; 0x1c26 <__fp_cmp+0x38>
    1c18:	0a 26       	eor	r0, r26
    1c1a:	61 f0       	breq	.+24     	; 0x1c34 <__fp_cmp+0x46>
    1c1c:	23 2b       	or	r18, r19
    1c1e:	24 2b       	or	r18, r20
    1c20:	25 2b       	or	r18, r21
    1c22:	21 f4       	brne	.+8      	; 0x1c2c <__fp_cmp+0x3e>
    1c24:	08 95       	ret
    1c26:	0a 26       	eor	r0, r26
    1c28:	09 f4       	brne	.+2      	; 0x1c2c <__fp_cmp+0x3e>
    1c2a:	a1 40       	sbci	r26, 0x01	; 1
    1c2c:	a6 95       	lsr	r26
    1c2e:	8f ef       	ldi	r24, 0xFF	; 255
    1c30:	81 1d       	adc	r24, r1
    1c32:	81 1d       	adc	r24, r1
    1c34:	08 95       	ret

00001c36 <__fp_inf>:
    1c36:	97 f9       	bld	r25, 7
    1c38:	9f 67       	ori	r25, 0x7F	; 127
    1c3a:	80 e8       	ldi	r24, 0x80	; 128
    1c3c:	70 e0       	ldi	r23, 0x00	; 0
    1c3e:	60 e0       	ldi	r22, 0x00	; 0
    1c40:	08 95       	ret

00001c42 <__fp_nan>:
    1c42:	9f ef       	ldi	r25, 0xFF	; 255
    1c44:	80 ec       	ldi	r24, 0xC0	; 192
    1c46:	08 95       	ret

00001c48 <__fp_pscA>:
    1c48:	00 24       	eor	r0, r0
    1c4a:	0a 94       	dec	r0
    1c4c:	16 16       	cp	r1, r22
    1c4e:	17 06       	cpc	r1, r23
    1c50:	18 06       	cpc	r1, r24
    1c52:	09 06       	cpc	r0, r25
    1c54:	08 95       	ret

00001c56 <__fp_pscB>:
    1c56:	00 24       	eor	r0, r0
    1c58:	0a 94       	dec	r0
    1c5a:	12 16       	cp	r1, r18
    1c5c:	13 06       	cpc	r1, r19
    1c5e:	14 06       	cpc	r1, r20
    1c60:	05 06       	cpc	r0, r21
    1c62:	08 95       	ret

00001c64 <__fp_round>:
    1c64:	09 2e       	mov	r0, r25
    1c66:	03 94       	inc	r0
    1c68:	00 0c       	add	r0, r0
    1c6a:	11 f4       	brne	.+4      	; 0x1c70 <__fp_round+0xc>
    1c6c:	88 23       	and	r24, r24
    1c6e:	52 f0       	brmi	.+20     	; 0x1c84 <__fp_round+0x20>
    1c70:	bb 0f       	add	r27, r27
    1c72:	40 f4       	brcc	.+16     	; 0x1c84 <__fp_round+0x20>
    1c74:	bf 2b       	or	r27, r31
    1c76:	11 f4       	brne	.+4      	; 0x1c7c <__fp_round+0x18>
    1c78:	60 ff       	sbrs	r22, 0
    1c7a:	04 c0       	rjmp	.+8      	; 0x1c84 <__fp_round+0x20>
    1c7c:	6f 5f       	subi	r22, 0xFF	; 255
    1c7e:	7f 4f       	sbci	r23, 0xFF	; 255
    1c80:	8f 4f       	sbci	r24, 0xFF	; 255
    1c82:	9f 4f       	sbci	r25, 0xFF	; 255
    1c84:	08 95       	ret

00001c86 <__fp_split3>:
    1c86:	57 fd       	sbrc	r21, 7
    1c88:	90 58       	subi	r25, 0x80	; 128
    1c8a:	44 0f       	add	r20, r20
    1c8c:	55 1f       	adc	r21, r21
    1c8e:	59 f0       	breq	.+22     	; 0x1ca6 <__fp_splitA+0x10>
    1c90:	5f 3f       	cpi	r21, 0xFF	; 255
    1c92:	71 f0       	breq	.+28     	; 0x1cb0 <__fp_splitA+0x1a>
    1c94:	47 95       	ror	r20

00001c96 <__fp_splitA>:
    1c96:	88 0f       	add	r24, r24
    1c98:	97 fb       	bst	r25, 7
    1c9a:	99 1f       	adc	r25, r25
    1c9c:	61 f0       	breq	.+24     	; 0x1cb6 <__fp_splitA+0x20>
    1c9e:	9f 3f       	cpi	r25, 0xFF	; 255
    1ca0:	79 f0       	breq	.+30     	; 0x1cc0 <__fp_splitA+0x2a>
    1ca2:	87 95       	ror	r24
    1ca4:	08 95       	ret
    1ca6:	12 16       	cp	r1, r18
    1ca8:	13 06       	cpc	r1, r19
    1caa:	14 06       	cpc	r1, r20
    1cac:	55 1f       	adc	r21, r21
    1cae:	f2 cf       	rjmp	.-28     	; 0x1c94 <__fp_split3+0xe>
    1cb0:	46 95       	lsr	r20
    1cb2:	f1 df       	rcall	.-30     	; 0x1c96 <__fp_splitA>
    1cb4:	08 c0       	rjmp	.+16     	; 0x1cc6 <__fp_splitA+0x30>
    1cb6:	16 16       	cp	r1, r22
    1cb8:	17 06       	cpc	r1, r23
    1cba:	18 06       	cpc	r1, r24
    1cbc:	99 1f       	adc	r25, r25
    1cbe:	f1 cf       	rjmp	.-30     	; 0x1ca2 <__fp_splitA+0xc>
    1cc0:	86 95       	lsr	r24
    1cc2:	71 05       	cpc	r23, r1
    1cc4:	61 05       	cpc	r22, r1
    1cc6:	08 94       	sec
    1cc8:	08 95       	ret

00001cca <__fp_zero>:
    1cca:	e8 94       	clt

00001ccc <__fp_szero>:
    1ccc:	bb 27       	eor	r27, r27
    1cce:	66 27       	eor	r22, r22
    1cd0:	77 27       	eor	r23, r23
    1cd2:	cb 01       	movw	r24, r22
    1cd4:	97 f9       	bld	r25, 7
    1cd6:	08 95       	ret

00001cd8 <__gesf2>:
    1cd8:	0e 94 f7 0d 	call	0x1bee	; 0x1bee <__fp_cmp>
    1cdc:	08 f4       	brcc	.+2      	; 0x1ce0 <__gesf2+0x8>
    1cde:	8f ef       	ldi	r24, 0xFF	; 255
    1ce0:	08 95       	ret

00001ce2 <__mulsf3>:
    1ce2:	0e 94 84 0e 	call	0x1d08	; 0x1d08 <__mulsf3x>
    1ce6:	0c 94 32 0e 	jmp	0x1c64	; 0x1c64 <__fp_round>
    1cea:	0e 94 24 0e 	call	0x1c48	; 0x1c48 <__fp_pscA>
    1cee:	38 f0       	brcs	.+14     	; 0x1cfe <__mulsf3+0x1c>
    1cf0:	0e 94 2b 0e 	call	0x1c56	; 0x1c56 <__fp_pscB>
    1cf4:	20 f0       	brcs	.+8      	; 0x1cfe <__mulsf3+0x1c>
    1cf6:	95 23       	and	r25, r21
    1cf8:	11 f0       	breq	.+4      	; 0x1cfe <__mulsf3+0x1c>
    1cfa:	0c 94 1b 0e 	jmp	0x1c36	; 0x1c36 <__fp_inf>
    1cfe:	0c 94 21 0e 	jmp	0x1c42	; 0x1c42 <__fp_nan>
    1d02:	11 24       	eor	r1, r1
    1d04:	0c 94 66 0e 	jmp	0x1ccc	; 0x1ccc <__fp_szero>

00001d08 <__mulsf3x>:
    1d08:	0e 94 43 0e 	call	0x1c86	; 0x1c86 <__fp_split3>
    1d0c:	70 f3       	brcs	.-36     	; 0x1cea <__mulsf3+0x8>

00001d0e <__mulsf3_pse>:
    1d0e:	95 9f       	mul	r25, r21
    1d10:	c1 f3       	breq	.-16     	; 0x1d02 <__mulsf3+0x20>
    1d12:	95 0f       	add	r25, r21
    1d14:	50 e0       	ldi	r21, 0x00	; 0
    1d16:	55 1f       	adc	r21, r21
    1d18:	62 9f       	mul	r22, r18
    1d1a:	f0 01       	movw	r30, r0
    1d1c:	72 9f       	mul	r23, r18
    1d1e:	bb 27       	eor	r27, r27
    1d20:	f0 0d       	add	r31, r0
    1d22:	b1 1d       	adc	r27, r1
    1d24:	63 9f       	mul	r22, r19
    1d26:	aa 27       	eor	r26, r26
    1d28:	f0 0d       	add	r31, r0
    1d2a:	b1 1d       	adc	r27, r1
    1d2c:	aa 1f       	adc	r26, r26
    1d2e:	64 9f       	mul	r22, r20
    1d30:	66 27       	eor	r22, r22
    1d32:	b0 0d       	add	r27, r0
    1d34:	a1 1d       	adc	r26, r1
    1d36:	66 1f       	adc	r22, r22
    1d38:	82 9f       	mul	r24, r18
    1d3a:	22 27       	eor	r18, r18
    1d3c:	b0 0d       	add	r27, r0
    1d3e:	a1 1d       	adc	r26, r1
    1d40:	62 1f       	adc	r22, r18
    1d42:	73 9f       	mul	r23, r19
    1d44:	b0 0d       	add	r27, r0
    1d46:	a1 1d       	adc	r26, r1
    1d48:	62 1f       	adc	r22, r18
    1d4a:	83 9f       	mul	r24, r19
    1d4c:	a0 0d       	add	r26, r0
    1d4e:	61 1d       	adc	r22, r1
    1d50:	22 1f       	adc	r18, r18
    1d52:	74 9f       	mul	r23, r20
    1d54:	33 27       	eor	r19, r19
    1d56:	a0 0d       	add	r26, r0
    1d58:	61 1d       	adc	r22, r1
    1d5a:	23 1f       	adc	r18, r19
    1d5c:	84 9f       	mul	r24, r20
    1d5e:	60 0d       	add	r22, r0
    1d60:	21 1d       	adc	r18, r1
    1d62:	82 2f       	mov	r24, r18
    1d64:	76 2f       	mov	r23, r22
    1d66:	6a 2f       	mov	r22, r26
    1d68:	11 24       	eor	r1, r1
    1d6a:	9f 57       	subi	r25, 0x7F	; 127
    1d6c:	50 40       	sbci	r21, 0x00	; 0
    1d6e:	9a f0       	brmi	.+38     	; 0x1d96 <__mulsf3_pse+0x88>
    1d70:	f1 f0       	breq	.+60     	; 0x1dae <__mulsf3_pse+0xa0>
    1d72:	88 23       	and	r24, r24
    1d74:	4a f0       	brmi	.+18     	; 0x1d88 <__mulsf3_pse+0x7a>
    1d76:	ee 0f       	add	r30, r30
    1d78:	ff 1f       	adc	r31, r31
    1d7a:	bb 1f       	adc	r27, r27
    1d7c:	66 1f       	adc	r22, r22
    1d7e:	77 1f       	adc	r23, r23
    1d80:	88 1f       	adc	r24, r24
    1d82:	91 50       	subi	r25, 0x01	; 1
    1d84:	50 40       	sbci	r21, 0x00	; 0
    1d86:	a9 f7       	brne	.-22     	; 0x1d72 <__mulsf3_pse+0x64>
    1d88:	9e 3f       	cpi	r25, 0xFE	; 254
    1d8a:	51 05       	cpc	r21, r1
    1d8c:	80 f0       	brcs	.+32     	; 0x1dae <__mulsf3_pse+0xa0>
    1d8e:	0c 94 1b 0e 	jmp	0x1c36	; 0x1c36 <__fp_inf>
    1d92:	0c 94 66 0e 	jmp	0x1ccc	; 0x1ccc <__fp_szero>
    1d96:	5f 3f       	cpi	r21, 0xFF	; 255
    1d98:	e4 f3       	brlt	.-8      	; 0x1d92 <__mulsf3_pse+0x84>
    1d9a:	98 3e       	cpi	r25, 0xE8	; 232
    1d9c:	d4 f3       	brlt	.-12     	; 0x1d92 <__mulsf3_pse+0x84>
    1d9e:	86 95       	lsr	r24
    1da0:	77 95       	ror	r23
    1da2:	67 95       	ror	r22
    1da4:	b7 95       	ror	r27
    1da6:	f7 95       	ror	r31
    1da8:	e7 95       	ror	r30
    1daa:	9f 5f       	subi	r25, 0xFF	; 255
    1dac:	c1 f7       	brne	.-16     	; 0x1d9e <__mulsf3_pse+0x90>
    1dae:	fe 2b       	or	r31, r30
    1db0:	88 0f       	add	r24, r24
    1db2:	91 1d       	adc	r25, r1
    1db4:	96 95       	lsr	r25
    1db6:	87 95       	ror	r24
    1db8:	97 f9       	bld	r25, 7
    1dba:	08 95       	ret

00001dbc <__udivmodhi4>:
    1dbc:	aa 1b       	sub	r26, r26
    1dbe:	bb 1b       	sub	r27, r27
    1dc0:	51 e1       	ldi	r21, 0x11	; 17
    1dc2:	07 c0       	rjmp	.+14     	; 0x1dd2 <__udivmodhi4_ep>

00001dc4 <__udivmodhi4_loop>:
    1dc4:	aa 1f       	adc	r26, r26
    1dc6:	bb 1f       	adc	r27, r27
    1dc8:	a6 17       	cp	r26, r22
    1dca:	b7 07       	cpc	r27, r23
    1dcc:	10 f0       	brcs	.+4      	; 0x1dd2 <__udivmodhi4_ep>
    1dce:	a6 1b       	sub	r26, r22
    1dd0:	b7 0b       	sbc	r27, r23

00001dd2 <__udivmodhi4_ep>:
    1dd2:	88 1f       	adc	r24, r24
    1dd4:	99 1f       	adc	r25, r25
    1dd6:	5a 95       	dec	r21
    1dd8:	a9 f7       	brne	.-22     	; 0x1dc4 <__udivmodhi4_loop>
    1dda:	80 95       	com	r24
    1ddc:	90 95       	com	r25
    1dde:	bc 01       	movw	r22, r24
    1de0:	cd 01       	movw	r24, r26
    1de2:	08 95       	ret

00001de4 <__udivmodsi4>:
    1de4:	a1 e2       	ldi	r26, 0x21	; 33
    1de6:	1a 2e       	mov	r1, r26
    1de8:	aa 1b       	sub	r26, r26
    1dea:	bb 1b       	sub	r27, r27
    1dec:	fd 01       	movw	r30, r26
    1dee:	0d c0       	rjmp	.+26     	; 0x1e0a <__udivmodsi4_ep>

00001df0 <__udivmodsi4_loop>:
    1df0:	aa 1f       	adc	r26, r26
    1df2:	bb 1f       	adc	r27, r27
    1df4:	ee 1f       	adc	r30, r30
    1df6:	ff 1f       	adc	r31, r31
    1df8:	a2 17       	cp	r26, r18
    1dfa:	b3 07       	cpc	r27, r19
    1dfc:	e4 07       	cpc	r30, r20
    1dfe:	f5 07       	cpc	r31, r21
    1e00:	20 f0       	brcs	.+8      	; 0x1e0a <__udivmodsi4_ep>
    1e02:	a2 1b       	sub	r26, r18
    1e04:	b3 0b       	sbc	r27, r19
    1e06:	e4 0b       	sbc	r30, r20
    1e08:	f5 0b       	sbc	r31, r21

00001e0a <__udivmodsi4_ep>:
    1e0a:	66 1f       	adc	r22, r22
    1e0c:	77 1f       	adc	r23, r23
    1e0e:	88 1f       	adc	r24, r24
    1e10:	99 1f       	adc	r25, r25
    1e12:	1a 94       	dec	r1
    1e14:	69 f7       	brne	.-38     	; 0x1df0 <__udivmodsi4_loop>
    1e16:	60 95       	com	r22
    1e18:	70 95       	com	r23
    1e1a:	80 95       	com	r24
    1e1c:	90 95       	com	r25
    1e1e:	9b 01       	movw	r18, r22
    1e20:	ac 01       	movw	r20, r24
    1e22:	bd 01       	movw	r22, r26
    1e24:	cf 01       	movw	r24, r30
    1e26:	08 95       	ret

00001e28 <__tablejump2__>:
    1e28:	ee 0f       	add	r30, r30
    1e2a:	ff 1f       	adc	r31, r31
    1e2c:	05 90       	lpm	r0, Z+
    1e2e:	f4 91       	lpm	r31, Z
    1e30:	e0 2d       	mov	r30, r0
    1e32:	09 94       	ijmp

00001e34 <__umulhisi3>:
    1e34:	a2 9f       	mul	r26, r18
    1e36:	b0 01       	movw	r22, r0
    1e38:	b3 9f       	mul	r27, r19
    1e3a:	c0 01       	movw	r24, r0
    1e3c:	a3 9f       	mul	r26, r19
    1e3e:	70 0d       	add	r23, r0
    1e40:	81 1d       	adc	r24, r1
    1e42:	11 24       	eor	r1, r1
    1e44:	91 1d       	adc	r25, r1
    1e46:	b2 9f       	mul	r27, r18
    1e48:	70 0d       	add	r23, r0
    1e4a:	81 1d       	adc	r24, r1
    1e4c:	11 24       	eor	r1, r1
    1e4e:	91 1d       	adc	r25, r1
    1e50:	08 95       	ret

00001e52 <_exit>:
    1e52:	f8 94       	cli

00001e54 <__stop_program>:
    1e54:	ff cf       	rjmp	.-2      	; 0x1e54 <__stop_program>
